
WCH-CH32V307VCT6-Eink-LiteOS.elf:     file format elf32-littleriscv
WCH-CH32V307VCT6-Eink-LiteOS.elf
architecture: riscv:rv32, flags 0x00000112:
EXEC_P, HAS_SYMS, D_PAGED
start address 0x00000000

Program Header:
    LOAD off    0x00001000 vaddr 0x00000000 paddr 0x00000000 align 2**12
         filesz 0x00007c4c memsz 0x00007c4c flags r-x
    LOAD off    0x00009000 vaddr 0x20000000 paddr 0x00007c4c align 2**12
         filesz 0x000000d0 memsz 0x000087a4 flags rw-
    LOAD off    0x00009800 vaddr 0x2000f800 paddr 0x2000f800 align 2**12
         filesz 0x00000000 memsz 0x00000800 flags rw-

Sections:
Idx Name          Size      VMA       LMA       File off  Algn
  0 .init         00000004  00000000  00000000  00001000  2**1
                  CONTENTS, ALLOC, LOAD, READONLY, CODE
  1 .vector       000001bc  00000004  00000004  00001004  2**1
                  CONTENTS, ALLOC, LOAD, READONLY, CODE
  2 .text         00007a8c  000001c0  000001c0  000011c0  2**2
                  CONTENTS, ALLOC, LOAD, READONLY, CODE
  3 .fini         00000000  00007c4c  00007c4c  000090d0  2**0
                  CONTENTS, ALLOC, LOAD, CODE
  4 .dalign       00000000  20000000  20000000  000090d0  2**0
                  CONTENTS
  5 .dlalign      00000000  00007c4c  00007c4c  000090d0  2**0
                  CONTENTS
  6 .data         000000d0  20000000  00007c4c  00009000  2**3
                  CONTENTS, ALLOC, LOAD, DATA
  7 .bss          000086d4  200000d0  00007d1c  000090d0  2**3
                  ALLOC
  8 .stack        00000800  2000f800  2000f800  00009800  2**0
                  ALLOC
  9 .debug_info   00030460  00000000  00000000  000090d0  2**0
                  CONTENTS, READONLY, DEBUGGING
 10 .debug_abbrev 000079c0  00000000  00000000  00039530  2**0
                  CONTENTS, READONLY, DEBUGGING
 11 .debug_loc    00010472  00000000  00000000  00040ef0  2**0
                  CONTENTS, READONLY, DEBUGGING
 12 .debug_aranges 00001028  00000000  00000000  00051368  2**3
                  CONTENTS, READONLY, DEBUGGING
 13 .debug_ranges 00001918  00000000  00000000  00052390  2**3
                  CONTENTS, READONLY, DEBUGGING
 14 .debug_line   0001f6f7  00000000  00000000  00053ca8  2**0
                  CONTENTS, READONLY, DEBUGGING
 15 .debug_str    00005914  00000000  00000000  0007339f  2**0
                  CONTENTS, READONLY, DEBUGGING
 16 .comment      00000033  00000000  00000000  00078cb3  2**0
                  CONTENTS, READONLY
 17 .debug_frame  00003978  00000000  00000000  00078ce8  2**2
                  CONTENTS, READONLY, DEBUGGING
 18 .stab         00000084  00000000  00000000  0007c660  2**2
                  CONTENTS, READONLY, DEBUGGING
 19 .stabstr      00000117  00000000  00000000  0007c6e4  2**0
                  CONTENTS, READONLY, DEBUGGING
SYMBOL TABLE:
00000000 l    d  .init	00000000 .init
00000004 l    d  .vector	00000000 .vector
000001c0 l    d  .text	00000000 .text
00007c4c l    d  .fini	00000000 .fini
20000000 l    d  .dalign	00000000 .dalign
00007c4c l    d  .dlalign	00000000 .dlalign
20000000 l    d  .data	00000000 .data
200000d0 l    d  .bss	00000000 .bss
2000f800 l    d  .stack	00000000 .stack
00000000 l    d  .debug_info	00000000 .debug_info
00000000 l    d  .debug_abbrev	00000000 .debug_abbrev
00000000 l    d  .debug_loc	00000000 .debug_loc
00000000 l    d  .debug_aranges	00000000 .debug_aranges
00000000 l    d  .debug_ranges	00000000 .debug_ranges
00000000 l    d  .debug_line	00000000 .debug_line
00000000 l    d  .debug_str	00000000 .debug_str
00000000 l    d  .comment	00000000 .comment
00000000 l    d  .debug_frame	00000000 .debug_frame
00000000 l    d  .stab	00000000 .stab
00000000 l    d  .stabstr	00000000 .stabstr
00000000 l    df *ABS*	00000000 ./Startup/startup_ch32v30x_D8C.o
00000004 l       .vector	00000000 _vector_base
00000000 l    df *ABS*	00000000 ch32v30x_it.c
200000d0 l     O .bss	00000002 cmd_index.5611
00000000 l    df *ABS*	00000000 main.c
00000000 l    df *ABS*	00000000 system_ch32v30x.c
00000000 l    df *ABS*	00000000 thread_Eink.c
00000000 l    df *ABS*	00000000 thread_WiFi.c
00000000 l    df *ABS*	00000000 user_usart.c
00000000 l    df *ABS*	00000000 ch32v30x_dbgmcu.c
00000000 l    df *ABS*	00000000 ch32v30x_gpio.c
00000000 l    df *ABS*	00000000 ch32v30x_misc.c
00000000 l    df *ABS*	00000000 ch32v30x_rcc.c
20000030 l     O .data	00000010 APBAHBPrescTable
200000b4 l     O .data	00000004 ADCPrescTable
00000000 l    df *ABS*	00000000 ch32v30x_usart.c
00000000 l    df *ABS*	00000000 los_debug.c
200000d8 l     O .bss	00000004 g_excHook
00000000 l    df *ABS*	00000000 memcpy_s.c
00001044 l     F .text	00000062 SecMemcpyError
00000000 l    df *ABS*	00000000 memset_s.c
00000000 l    df *ABS*	00000000 los_memory.c
00001138 l     F .text	00000012 OsMemMergeNode
0000114a l     F .text	00000016 OsMemAddrValidCheck
00001160 l     F .text	0000006c OsGetRealPtr
000011cc l     F .text	0000003c OsMemListDelete
00001208 l     F .text	0000002c OsMemIsNodeValid
00001234 l     F .text	00000078 OsMemCheckUsedNode
000012ac l     F .text	00000046 OsMemSlGet
000012f2 l     F .text	0000003c OsMemFreeListIndexGet
0000132e l     F .text	00000054 OsMemFreeNodeAdd
00001382 l     F .text	0000001c OsMemFreeNodeDelete
0000139e l     F .text	00000036 OsMemSplitNode
000013d4 l     F .text	00000070 OsMemFree
000015ec l     F .text	00000208 OsMemAlloc
20000648 l     O .bss	00008000 g_memStart
000070a8 l     O .text	0000000b __FUNCTION__.6873
000070b4 l     O .text	0000000d __FUNCTION__.6930
00000000 l    df *ABS*	00000000 los_event.c
00000000 l    df *ABS*	00000000 los_init.c
00000000 l    df *ABS*	00000000 los_mux.c
00000000 l    df *ABS*	00000000 los_queue.c
00007188 l     O .text	00000015 __FUNCTION__.6856
00000000 l    df *ABS*	00000000 los_sched.c
00002096 l     F .text	00000036 OsTimeSliceUpdate.part.1
0000222c l     F .text	0000010a OsSchedSetNextExpireTime
20008648 l     O .bss	00000100 g_priQueueList
000071f4 l     O .text	00000016 __func__.5962
0000720c l     O .text	00000018 __func__.5972
00007224 l     O .text	00000012 __func__.5978
00007238 l     O .text	00000013 __func__.6029
0000724c l     O .text	00000015 __func__.6102
200000f8 l     O .bss	00000004 SchedRealSleepTimeSet
200000fc l     O .bss	00000004 g_queueBitmap
20000100 l     O .bss	00000004 g_schedResponseID
20000108 l     O .bss	00000008 g_schedTimerBase
20000110 l     O .bss	00000004 g_swtmrScan
20000114 l     O .bss	00000004 g_taskSortLinkList
20000118 l     O .bss	00000008 oldSchedTime.5967
200000b8 l     O .data	00000008 g_schedResponseTime
00000000 l    df *ABS*	00000000 los_sem.c
00000000 l    df *ABS*	00000000 los_sortlink.c
00002968 l     F .text	0000007c OsGetSortLinkNextExpireTime
2000012c l     O .bss	00000008 g_swtmrSortLink
20000134 l     O .bss	00000008 g_taskSortLink
00000000 l    df *ABS*	00000000 los_swtmr.c
00002c62 l     F .text	00000034 OsSwtmrDelete
00002e70 l     F .text	000000a4 OsSwtmrScan
00000000 l    df *ABS*	00000000 los_task.c
00002fec l     F .text	0000004c OsRecyleFinishedTask
2000014c l     O .bss	00000004 PmEnter
00000000 l    df *ABS*	00000000 los_tick.c
00000000 l    df *ABS*	00000000 los_context.c
00000000 l    df *ABS*	00000000 los_interrupt.c
00000000 l    df *ABS*	00000000 los_timer.c
2000018c l     O .bss	00000004 systick_handler
00000000 l    df *ABS*	00000000 los_pm.c
000037e2 l     F .text	0000000a OsPmSleepTimeSet
000037ec l     F .text	00000394 OsPmEnter
20008760 l     O .bss	00000028 g_pmCB
00007354 l     O .text	0000000f __func__.6739
20000190 l     O .bss	00000008 g_pmSleepTime
20000198 l     O .bss	00000004 g_sysctrl
00000000 l    df *ABS*	00000000 EPD.c
200000c8 l     O .data	00000004 CSWTCH.1
00000000 l    df *ABS*	00000000 EPD_SPI.c
00000000 l    df *ABS*	00000000 ESP8266.c
00000000 l    df *ABS*	00000000 GUI_Paint.c
00000000 l    df *ABS*	00000000 debug.c
200001a2 l     O .bss	00000002 p_ms
200001a4 l     O .bss	00000001 p_us
200000c0 l     O .data	00000004 curbrk.5275
00000000 l    df *ABS*	00000000 core_riscv.c
00000000 l    df *ABS*	00000000 libgcc2.c
00000000 l    df *ABS*	00000000 libgcc2.c
00000000 l    df *ABS*	00000000 libgcc2.c
00000000 l    df *ABS*	00000000 findfp.c
0000531c l     F .text	00000066 std
00000000 l    df *ABS*	00000000 fwalk.c
00000000 l    df *ABS*	00000000 makebuf.c
00000000 l    df *ABS*	00000000 malloc.c
00000000 l    df *ABS*	00000000 memchr.c
00000000 l    df *ABS*	00000000 memcpy.c
00000000 l    df *ABS*	00000000 memmove.c
00000000 l    df *ABS*	00000000 nano-mallocr.c
00000000 l    df *ABS*	00000000 nano-mallocr.c
00000000 l    df *ABS*	00000000 printf.c
00000000 l    df *ABS*	00000000 puts.c
00000000 l    df *ABS*	00000000 sbrkr.c
00000000 l    df *ABS*	00000000 sprintf.c
00000000 l    df *ABS*	00000000 stdio.c
00000000 l    df *ABS*	00000000 strstr.c
00000000 l    df *ABS*	00000000 wbuf.c
00000000 l    df *ABS*	00000000 writer.c
00000000 l    df *ABS*	00000000 wsetup.c
00000000 l    df *ABS*	00000000 closer.c
00000000 l    df *ABS*	00000000 fflush.c
00000000 l    df *ABS*	00000000 fstatr.c
00000000 l    df *ABS*	00000000 isattyr.c
00000000 l    df *ABS*	00000000 lseekr.c
00000000 l    df *ABS*	00000000 mlock.c
00000000 l    df *ABS*	00000000 nano-mallocr.c
00000000 l    df *ABS*	00000000 nano-vfprintf.c
00000000 l    df *ABS*	00000000 nano-vfprintf.c
00006356 l     F .text	00000028 __sfputc_r
00000000 l    df *ABS*	00000000 nano-vfprintf_i.c
00000000 l    df *ABS*	00000000 readr.c
00000000 l    df *ABS*	00000000 nano-mallocr.c
00000000 l    df *ABS*	00000000 close.c
00000000 l    df *ABS*	00000000 fstat.c
00000000 l    df *ABS*	00000000 isatty.c
00000000 l    df *ABS*	00000000 lseek.c
00000000 l    df *ABS*	00000000 read.c
00000000 l    df *ABS*	00000000 font24CN.c
00000000 l    df *ABS*	00000000 libgcc2.c
00000000 l    df *ABS*	00000000 impure.c
2000004c l     O .data	00000060 impure_data
00000000 l    df *ABS*	00000000 reent.c
00006a32 g     F .text	00000014 _malloc_usable_size_r
00000b1e  w      .text	00000000 EXTI2_IRQHandler
00000b1e  w      .text	00000000 TIM8_TRG_COM_IRQHandler
00003d24 g     F .text	00000012 EPD_Update
000029ec g     F .text	0000001a OsDeleteNodeSortLink
00000b1e  w      .text	00000000 TIM8_CC_IRQHandler
00005f42 g     F .text	00000032 _isatty_r
00005912 g     F .text	000000d8 _puts_r
20000184 g     O .bss	00000004 g_sysClock
00005f74 g     F .text	00000036 _lseek_r
0000348e g     F .text	00000022 LOS_TaskYield
00000b1e  w      .text	00000000 UART8_IRQHandler
20000124 g     O .bss	00000008 g_unusedSemList
000003ae g     F .text	000000ac recDataProcessing
00003120 g     F .text	00000058 OsNewTaskInit
0000351a g     F .text	00000030 LOS_TaskUnlock
20000168 g     O .bss	00000004 g_swtmrTaskID
00002bde g     F .text	00000084 OsSwtmrTask
0000329e g     F .text	0000005e OsIdleTaskCreate
000058d0 g     F .text	00000042 printf
200008b0 g       .data	00000000 __global_pointer$
00000256 g     F .text	00000028 .hidden __riscv_save_8
00000b1e  w      .text	00000000 TIM1_CC_IRQHandler
00005ae2 g     F .text	00000030 __sseek
000053d2 g     F .text	0000006c __sinit
00005b4c g     F .text	000000be __swbuf_r
00000360 g     F .text	00000040 HardFault_Handler
000020cc g     F .text	0000000e OsSchedRealSleepTimeSet
0000538c g     F .text	00000046 __sfmoreglue
00001b5a g     F .text	00000014 LOS_Start
00005fac g     F .text	00000002 __malloc_unlock
2000019f g     O .bss	00000001 WIFI_CONNECT_STATE
000002a2 g     F .text	0000000c .hidden __riscv_restore_3
00000b1e  w      .text	00000000 TIM6_IRQHandler
200000e0 g     O .bss	00000004 g_allMux
00003760 g     F .text	0000000c SysTick_Handler
00003dee g     F .text	00000056 EPD_SPI_Init
0000290e g     F .text	0000005a OsSemInit
00000c94 g     F .text	0000005c NVIC_Init
00000b1e  w      .text	00000000 PVD_IRQHandler
00000b1e  w      .text	00000000 SDIO_IRQHandler
00005710 g     F .text	00000046 memmove
00000b1e  w      .text	00000000 TIM9_BRK_IRQHandler
00007364 g     O .text	00000538 Font24CN_Table
0000028e g     F .text	00000020 .hidden __riscv_restore_10
20000174 g     O .bss	00000008 g_taskRecyleList
00002c96 g     F .text	0000003e OsSwtmrTaskCreate
00000b1e  w      .text	00000000 DMA2_Channel8_IRQHandler
00000356 g     F .text	0000000a NMI_Handler
00003e44 g     F .text	00000052 EPD_Write
00000b1e  w      .text	00000000 CAN2_RX1_IRQHandler
00000b1e  w      .text	00000000 EXTI3_IRQHandler
00000256 g     F .text	00000028 .hidden __riscv_save_11
20000140 g     O .bss	00000004 g_swtmrFreeList
00000bb2 g     F .text	0000000a DBGMCU_GetCHIPID
200000dc g     O .bss	00000004 m_aucSysMem0
20000230 g     O .bss	0000040c g_frame_data
000025cc g     F .text	0000000e OsSchedSwtmrScanRegister
00003c86 g     F .text	00000042 EPD_Init
00000b1e  w      .text	00000000 USBHS_IRQHandler
00004920 g     F .text	00000174 Paint_DrawString_CN
00000f90 g     F .text	0000000a USART_GetFlagStatus
00000b1e  w      .text	00000000 DMA2_Channel9_IRQHandler
00005f0e g     F .text	00000034 _fstat_r
00000a68 g     F .text	00000094 thread_WIFI_Start
0000100a g     F .text	0000003a OsLogLevelCheck
00000b1e  w      .text	00000000 TIM10_CC_IRQHandler
200087a0 g     O .bss	00000004 errno
200000d0 g       .bss	00000000 _sbss
00000800 g       *ABS*	00000000 __stack_size
00004abe g     F .text	0000005a USART_Printf_Init
00003454 g     F .text	0000003a OsTaskEntry
20000164 g     O .bss	00000002 g_losTaskLock
000028f4 g     F .text	0000001a LOS_Schedule
00000b1e  w      .text	00000000 USBFS_IRQHandler
00003f24 g     F .text	0000002c EPD_Delay
000002a2 g     F .text	0000000c .hidden __riscv_restore_2
00003702  w    F .text	0000005e HalTickStart
0000565e g     F .text	000000b2 memcpy
00002104 g     F .text	00000060 OsSchedTimerBaseReset
00005382 g     F .text	0000000a _cleanup_r
000060ec g     F .text	0000026a _svfprintf_r
000001e4 g     F .text	00000000 HalStartToRun
00000b1e  w      .text	00000000 EXTI0_IRQHandler
00000b1e  w      .text	00000000 I2C2_EV_IRQHandler
00000b1e  w      .text	00000000 TIM10_TRG_COM_IRQHandler
00001444 g     F .text	00000082 LOS_MemInit
000017f4 g     F .text	00000052 LOS_MemAlloc
000059ea g     F .text	0000000c puts
200000b0 g     O .data	00000004 SystemCoreClock
00003560 g     F .text	00000022 LOS_TickCountGet
00000f88 g     F .text	00000008 USART_ReceiveData
00003038 g     F .text	0000001a OsIdleTask
00005632 g     F .text	0000000a malloc
00004238 g     F .text	00000098 WIFI_CheckIP
00006a56 g     F .text	00000010 _fstat
00000004 g       .init	00000000 _einit
00000e6a g     F .text	0000001e RCC_APB2PeriphClockCmd
00001dbe g     F .text	00000214 OsQueueOperate
0000024e g     F .text	00000030 .hidden __riscv_save_12
00000b1e  w      .text	00000000 CAN2_SCE_IRQHandler
00000b1e  w      .text	00000000 ADC1_2_IRQHandler
00002546 g     F .text	0000000c OsSchedDelay
00000bbc g     F .text	000000c0 GPIO_Init
000001dc g     F .text	00000000 HalIntRestore
00000b1e  w      .text	00000000 Break_Point_Handler
0000028e g     F .text	00000020 .hidden __riscv_restore_11
200000d4 g     O .bss	00000004 NVIC_Priority_Group
00003e96 g     F .text	00000038 EPD_WriteCMD
00002b4a g     F .text	0000004c OsGetNextExpireTime
00000b1e  w      .text	00000000 SPI1_IRQHandler
000036ea g     F .text	00000002 HalHwiInit
00000f34 g     F .text	00000016 USART_Cmd
000059f6 g     F .text	00000032 _sbrk_r
00000b1e  w      .text	00000000 TAMPER_IRQHandler
0000027e g     F .text	0000000c .hidden __riscv_save_1
00003618 g     F .text	00000016 HalTaskSwitch
20000120 g     O .bss	00000004 g_allSem
000002a2 g     F .text	0000000c .hidden __riscv_restore_0
000069fe g     F .text	00000034 _read_r
000020da g     F .text	0000002a OsSchedUpdateSchedTimeBase
00000264 g     F .text	0000001a .hidden __riscv_save_7
00002cd4 g     F .text	00000122 OsSwtmrFindAlignPos
00000fd6 g     F .text	00000014 USART_ClearITPendingBit
00000b1e  w      .text	00000000 CAN2_RX0_IRQHandler
00000afc g     F .text	00000022 USER_UART_SendString
00002552 g     F .text	0000002c OsSchedTaskWait
00001c32 g     F .text	00000054 OsMuxInit
00000b1e  w      .text	00000000 TIM8_UP_IRQHandler
200000e4 g     O .bss	00000008 g_unusedMuxList
00000e88 g     F .text	0000001e RCC_APB1PeriphClockCmd
00000b1e  w      .text	00000000 Ecall_M_Mode_Handler
20000040 g     O .data	0000000c Font24CN
2000f800 g       .stack	00000000 _heap_end
00004f92 g     F .text	0000038a .hidden __umoddi3
00006a66 g     F .text	00000010 _isatty
00003500 g     F .text	0000001a LOS_TaskLock
200000cc g     O .data	00000004 _global_impure_ptr
00000298 g     F .text	00000016 .hidden __riscv_restore_5
00005fae g     F .text	0000005a _realloc_r
00000b1e  w      .text	00000000 DMA2_Channel2_IRQHandler
00004c00 g     F .text	00000392 .hidden __udivdi3
00000b1e  w      .text	00000000 DMA1_Channel4_IRQHandler
00001cee g     F .text	000000d0 LOS_QueueCreate
00004b56 g     F .text	0000002a _sbrk
20000148 g     O .bss	00000004 g_swtmrSortLinkList
000027b2 g     F .text	00000142 LOS_SchedTickHandler
000024a0 g     F .text	00000054 OsSchedTaskDeQueue
00000b1e  w      .text	00000000 TIM9_UP_IRQHandler
00000298 g     F .text	00000016 .hidden __riscv_restore_6
00000b1e  w      .text	00000000 USART3_IRQHandler
2000019c g     O .bss	00000001 WIFI_AP_STATE
00000b1e  w      .text	00000000 RTC_IRQHandler
200087a4 g       .bss	00000000 _ebss
00000f9a g     F .text	0000003c USART_GetITStatus
00004414 g     F .text	00000060 Paint_SetScale
00000b1e  w      .text	00000000 DMA1_Channel7_IRQHandler
20000144 g     O .bss	00000004 g_swtmrHandlerQueue
00000b1e  w      .text	00000000 CAN1_RX1_IRQHandler
00004a94 g     F .text	0000002a Delay_Init
00000b1e  w      .text	00000000 DVP_IRQHandler
00000b1e  w      .text	00000000 UART5_IRQHandler
00002ac4 g     F .text	0000004e OsDeleteSortLink
00001c86 g     F .text	00000068 OsQueueInit
00001988 g     F .text	000000fc LOS_EventRead
000042d0 g     F .text	00000038 WIFI_CheckPort
000035e8 g     F .text	00000024 HalStartSchedule
00000c86 g     F .text	00000004 GPIO_SetBits
00000b1e  w      .text	00000000 TIM4_IRQHandler
00000256 g     F .text	00000028 .hidden __riscv_save_9
20008788 g     O .bss	00000018 Paint
00001932 g     F .text	00000056 LOS_EventPoll
00000b1e  w      .text	00000000 DMA2_Channel1_IRQHandler
00003d36 g     F .text	0000005e EPD_DisplayImage
00007bb0 g     O .text	00000020 __sf_fake_stderr
00000264 g     F .text	0000001a .hidden __riscv_save_4
00000b1e  w      .text	00000000 I2C1_EV_IRQHandler
000010a6 g     F .text	00000040 memcpy_s
2000019d g     O .bss	00000001 WIFI_BOOTFLAG
000026cc g     F .text	000000e6 OsSchedTaskSwitch
2000019e g     O .bss	00000001 WIFI_CMD_FLAG
000037a6  w    F .text	00000026 HalGetTickCycle
00001b2c g     F .text	0000002e LOS_Panic
00006008 g     F .text	000000e4 __ssputs_r
000010e6 g     F .text	00000052 memset_s
000018da g     F .text	0000003c OsMemSystemInit
000041fc g     F .text	0000003c WIFI_LinkSSID
00000cf0 g     F .text	0000017a RCC_GetClocksFreq
200001a0 g     O .bss	00000001 WIFI_RECVSTOP
0000403c g     F .text	00000160 WIFI_Init
00000b1e  w      .text	00000000 DMA1_Channel6_IRQHandler
00004b92 g     F .text	0000006e .hidden __clzsi2
0000637e g     F .text	00000042 __sfputs_r
00000b1e  w      .text	00000000 UART4_IRQHandler
00000b1e  w      .text	00000000 DMA2_Channel4_IRQHandler
00005646 g     F .text	00000018 memchr
00000ea6 g     F .text	0000008e USART_Init
00005756 g     F .text	000000a8 _free_r
00000b1e  w      .text	00000000 TIM3_IRQHandler
00000b1e  w      .text	00000000 RCC_IRQHandler
0000027e g     F .text	0000000c .hidden __riscv_save_3
000009d2 g     F .text	00000056 ProcessImageData
20000180 g     O .bss	00000004 g_cyclesPerTick
00000b1e  w      .text	00000000 TIM1_TRG_COM_IRQHandler
20008748 g     O .bss	00000018 g_swtmrAlignID
00000b1e  w      .text	00000000 DMA1_Channel1_IRQHandler
00000000 g       .init	00000000 _start
00000b1e  w      .text	00000000 DMA2_Channel7_IRQHandler
20000000 g     O .data	00000010 AHBPrescTable
00005b18 g     F .text	00000034 strstr
0000261a g     F .text	00000038 OsGetTopTask
00006a76 g     F .text	00000010 _lseek
000025c0 g     F .text	0000000c OsSchedSetIdleTaskSchedParam
00000b1e  w      .text	00000000 EXTI15_10_IRQHandler
000024f4 g     F .text	00000048 OsSchedTaskExit
0000419c g     F .text	00000060 WIFI_SetTxMode
000023a8 g     F .text	000000f8 OsSchedTaskEnQueue
200001a1 g     O .bss	00000001 WIFI_SEND_STATE
00000f4a g     F .text	00000036 USART_ITConfig
00004474 g     F .text	00000176 Paint_SetPixel
00003596 g     F .text	00000052 HalTskStackInit
2000013c g     O .bss	00000004 g_swtmrCBArray
00000c8a g     F .text	00000004 GPIO_ResetBits
00004b86 g     F .text	00000006 __get_MCAUSE
00000b1e  w      .text	00000000 TIM7_IRQHandler
000007fa g     F .text	00000068 Button_Scan
200000f0 g     O .bss	00000008 g_freeQueueList
0000094c g     F .text	00000086 thread_Eink_Start
00005d42 g     F .text	00000032 _close_r
00000b1e  w      .text	00000000 CAN2_TX_IRQHandler
20000000 g       .dalign	00000000 _data_vma
00000b1e  w      .text	00000000 TIM5_IRQHandler
2000016c g     O .bss	00000004 g_taskCBArray
00003550 g     F .text	00000010 OsTickHandler
00005c40 g     F .text	00000102 __swsetup_r
00000b1e  w      .text	00000000 EXTI9_5_IRQHandler
0000543e g     F .text	000000a0 __sfp
20000020 g     O .data	00000010 button2
2000015c g     O .bss	00000008 g_losTask
00000256 g     F .text	00000028 .hidden __riscv_save_10
0000440a g     F .text	0000000a Paint_SelectImage
00005a6c g     F .text	0000002e __sread
000036f8 g     F .text	0000000a HalIsIntActive
00000b1e  w      .text	00000000 ETH_WKUP_IRQHandler
00005faa g     F .text	00000002 __malloc_lock
00000298 g     F .text	00000016 .hidden __riscv_restore_4
00004b8c g     F .text	00000006 __get_MTVAL
0000028e g     F .text	00000020 .hidden __riscv_restore_8
00004b80 g     F .text	00000006 __get_MEPC
00005ea6 g     F .text	00000068 _fflush_r
00002a06 g     F .text	000000be OsAdd2SortLink
00000264 g     F .text	0000001a .hidden __riscv_save_6
000045ea g     F .text	000000ce Paint_Clear
00000b1e  w      .text	00000000 SPI2_IRQHandler
00007bd0 g     O .text	00000020 __sf_fake_stdin
000002ae g     F .text	000000a8 memset
00003b80 g     F .text	00000076 LOS_PmRegister
0000028e g     F .text	00000020 .hidden __riscv_restore_9
000047b2 g     F .text	000000de Paint_DrawLine
00000298 g     F .text	00000016 .hidden __riscv_restore_7
200000ec g     O .bss	00000004 g_allQueue
0000057a g     F .text	00000058 main
00000b1e  w      .text	00000000 TIM10_BRK_IRQHandler
000043bc g     F .text	0000004e Paint_NewImage
00003060 g     F .text	000000c0 OsTaskInit
00000b1e  w      .text	00000000 TIM9_CC_IRQHandler
00005b12 g     F .text	00000006 __sclose
00000b1e  w      .text	00000000 DMA2_Channel5_IRQHandler
00001512 g     F .text	000000da LOS_MemInfoGet
000057fe g     F .text	000000d2 _malloc_r
000025da g     F .text	00000040 OsSchedInit
00000b1e  w      .text	00000000 DMA1_Channel5_IRQHandler
00000b1e  w      .text	00000000 EXTI4_IRQHandler
00000b1e  w      .text	00000000 USB_LP_CAN1_RX0_IRQHandler
00003052 g     F .text	0000000e OsPmEnterHandlerSet
000005d2 g     F .text	000000fa SystemInit
00001916 g     F .text	0000001c LOS_EventInit
00000b1e  w      .text	00000000 RNG_IRQHandler
000058d0 g     F .text	00000042 iprintf
00000b1e  w      .text	00000000 USB_HP_CAN1_TX_IRQHandler
00000862 g     F .text	0000002a Button_Init
00005a28 g     F .text	00000044 sprintf
00007ab0 g     O .text	00000100 .hidden __clz_tab
00000000 g       .init	00000000 _sinit
00003ece g     F .text	00000038 EPD_WriteDATA
00000fea g     F .text	00000020 OsDoExcHook
00005c0a g     F .text	00000036 _write_r
00000b1e  w      .text	00000000 DMA1_Channel3_IRQHandler
00000b1e  w      .text	00000000 ETH_IRQHandler
0000664e g     F .text	0000010c _printf_common
200000c4 g     O .data	00000004 _impure_ptr
00000b1e  w      .text	00000000 TIM1_UP_IRQHandler
00005d74 g     F .text	00000132 __sflush_r
000001c0 g     F .text	00000000 HalIntLock
00003cc8 g     F .text	00000040 EPD_Init_Fast
00002b12 g     F .text	00000038 OsGetSortLinkAttribute
000060ec g     F .text	0000026a _svfiprintf_r
00000b1e  w      .text	00000000 WWDG_IRQHandler
00000b1e  w      .text	00000000 USBHSWakeup_IRQHandler
00000b1e  w      .text	00000000 DMA2_Channel11_IRQHandler
000014c6 g     F .text	0000004c LOS_MemFree
00000b1e  w      .text	00000000 Ecall_U_Mode_Handler
20000188 g     O .bss	00000004 g_intCount
000036ec g     F .text	0000000c HalIntEnter
00000b1e  w      .text	00000000 DMA2_Channel6_IRQHandler
00000b1e  w      .text	00000000 TIM2_IRQHandler
000004ea g     F .text	00000090 taskSample
00001b6e g     F .text	000000c4 LOS_KernelInit
20010000 g       .stack	00000000 _eusrstack
0000027e g     F .text	0000000c .hidden __riscv_save_2
000029e4 g     F .text	00000008 OsSortLinkInit
00003630 g       .text	00000000 SW_Handler
20000154 g     O .bss	00000008 g_losFreeTask
00000b1e  w      .text	00000000 TIM1_BRK_IRQHandler
00005548 g     F .text	00000058 __swhatbuf_r
00000f80 g     F .text	00000008 USART_SendData
00000b1e  w      .text	00000000 DMA2_Channel10_IRQHandler
00000a28 g     F .text	00000040 ProcessFrame
00002336 g     F .text	00000072 OsSchedUpdateExpireTime
00000b1e  w      .text	00000000 EXTI1_IRQHandler
00000264 g     F .text	0000001a .hidden __riscv_save_5
20000010 g     O .data	00000010 button1
00004890 g     F .text	00000090 Paint_DrawRectangle
00004b18 g     F .text	0000003e _write
20000150 g     O .bss	00000004 g_idleTaskID
200000d0 g       .data	00000000 _edata
200087a4 g       .bss	00000000 _end
00003bf6 g     F .text	00000090 OsPmInit
000003a0 g     F .text	0000000e RecvFrame_Init
00001846 g     F .text	00000094 LOS_MemAllocAlign
000034b0 g     F .text	00000050 LOS_TaskDelay
00002164 g     F .text	000000c8 OsGetCurrSchedTimeCycle
00000b1e  w      .text	00000000 RTCAlarm_IRQHandler
00007c4c g       .dlalign	00000000 _data_lma
00000b1e  w      .text	00000000 TIM10_UP_IRQHandler
00000b1e  w      .text	00000000 TIM9_TRG_COM_IRQHandler
00000b1e  w      .text	00000000 UART7_IRQHandler
00003d08 g     F .text	0000001c EPD_Sleep
200001b0 g     O .bss	00000080 WIFI_CMD
00000b1e  w      .text	00000000 USART2_IRQHandler
0000045a g     F .text	00000090 UART6_IRQHandler
00005a9a g     F .text	00000048 __swrite
0000358c g     F .text	0000000a HalArchInit
000063c0 g     F .text	0000028e _vfiprintf_r
0000360c g     F .text	0000000c HalTaskSchedule
000054de g     F .text	0000006a _fwalk_reent
000006cc g     F .text	0000012e SystemCoreClockUpdate
0000376c  w    F .text	0000003a HalSysTickReload
20000170 g     O .bss	00000004 g_taskMaxNum
00000b1e  w      .text	00000000 I2C2_ER_IRQHandler
0000333c g     F .text	00000118 LOS_TaskDelete
00000b1e  w      .text	00000000 DMA1_Channel2_IRQHandler
00007bf0 g     O .text	00000020 __sf_fake_stdout
00005a28 g     F .text	00000044 siprintf
00002b96 g     F .text	00000048 OsSortLinkGetTargetExpireTime
0000028a g     F .text	00000024 .hidden __riscv_restore_12
00000b1e  w      .text	00000000 TIM8_BRK_IRQHandler
0000354a g     F .text	00000006 LOS_TaskIsRunning
00006a86 g     F .text	00000010 _read
00004308 g     F .text	0000006a WIFI_TCPConnect
00000b20  w      .text	00000000 handle_reset
00004372 g     F .text	0000004a WIFI_CMD_ReturnCheck
00000b1e  w      .text	00000000 CAN1_SCE_IRQHandler
00002036 g     F .text	00000060 LOS_QueueWriteCopy
00000b1e  w      .text	00000000 FLASH_IRQHandler
0000027e g     F .text	0000000c .hidden __riscv_save_0
00002df6 g     F .text	0000007a OsSwtmrStart
00000b1e  w      .text	00000000 USART1_IRQHandler
00003178 g     F .text	00000126 LOS_TaskCreateOnly
000055a0 g     F .text	00000092 __smakebuf_r
00002f14 g     F .text	000000d8 OsSwtmrInit
00003f7c g     F .text	000000c0 WIFI_SendCMD
0000675a g     F .text	000002a4 _printf_i
00000b1e  w      .text	00000000 SPI3_IRQHandler
00003d94 g     F .text	0000005a EPD_DisplayImage_Paragraph
00003f06 g     F .text	0000001e EPD_CheckBusy
200001ac g     O .bss	00000004 __malloc_sbrk_start
000037cc g     F .text	00000016 HalEnterSleep
00001fd2 g     F .text	00000064 LOS_QueueReadCopy
00000b1e  w      .text	00000000 I2C1_ER_IRQHandler
00002652 g     F .text	0000007a OsSchedStart
00000c8e g     F .text	00000006 NVIC_PriorityGroupConfig
200001a8 g     O .bss	00000004 __malloc_free_list
0000253c g     F .text	0000000a OsSchedYield
0000088c g     F .text	000000c0 Display_First
000002a2 g     F .text	0000000c .hidden __riscv_restore_1
00003f50 g     F .text	0000002c ESP8266_Delay
000032fc g     F .text	00000040 LOS_TaskCreate
2000063c g     O .bss	0000000c gWifiEventGroup
000001ce g     F .text	00000000 HalIntUnLock
000063c0 g     F .text	0000028e _vfprintf_r
0000257e g     F .text	00000042 OsSchedTaskWake
00000c7c g     F .text	0000000a GPIO_ReadInputDataBit
000046b8 g     F .text	000000fa Paint_DrawPoint
00000b1e  w      .text	00000000 USBWakeUp_IRQHandler
00006a46 g     F .text	00000010 _close
0000563c g     F .text	0000000a free
2000017c g     O .bss	00000004 g_taskScheduled
00003582 g     F .text	0000000a HalSysExit
00000b1e  w      .text	00000000 DMA2_Channel3_IRQHandler
00001a84 g     F .text	000000a8 LOS_EventWrite



Disassembly of section .init:

00000000 <_sinit>:
   0:	3210006f          	j	b20 <handle_reset>

Disassembly of section .vector:

00000004 <_vector_base>:
	...
   c:	0356                	slli	t1,t1,0x15
   e:	0000                	unimp
  10:	0360                	addi	s0,sp,396
  12:	0000                	unimp
  14:	0000                	unimp
  16:	0000                	unimp
  18:	0b1e                	slli	s6,s6,0x7
	...
  22:	0000                	unimp
  24:	0b1e                	slli	s6,s6,0x7
  26:	0000                	unimp
  28:	0b1e                	slli	s6,s6,0x7
	...
  32:	0000                	unimp
  34:	3760                	lbu	s0,15(a4)
  36:	0000                	unimp
  38:	0000                	unimp
  3a:	0000                	unimp
  3c:	3630                	lbu	a2,11(a2)
  3e:	0000                	unimp
  40:	0000                	unimp
  42:	0000                	unimp
  44:	0b1e                	slli	s6,s6,0x7
  46:	0000                	unimp
  48:	0b1e                	slli	s6,s6,0x7
  4a:	0000                	unimp
  4c:	0b1e                	slli	s6,s6,0x7
  4e:	0000                	unimp
  50:	0b1e                	slli	s6,s6,0x7
  52:	0000                	unimp
  54:	0b1e                	slli	s6,s6,0x7
  56:	0000                	unimp
  58:	0b1e                	slli	s6,s6,0x7
  5a:	0000                	unimp
  5c:	0b1e                	slli	s6,s6,0x7
  5e:	0000                	unimp
  60:	0b1e                	slli	s6,s6,0x7
  62:	0000                	unimp
  64:	0b1e                	slli	s6,s6,0x7
  66:	0000                	unimp
  68:	0b1e                	slli	s6,s6,0x7
  6a:	0000                	unimp
  6c:	0b1e                	slli	s6,s6,0x7
  6e:	0000                	unimp
  70:	0b1e                	slli	s6,s6,0x7
  72:	0000                	unimp
  74:	0b1e                	slli	s6,s6,0x7
  76:	0000                	unimp
  78:	0b1e                	slli	s6,s6,0x7
  7a:	0000                	unimp
  7c:	0b1e                	slli	s6,s6,0x7
  7e:	0000                	unimp
  80:	0b1e                	slli	s6,s6,0x7
  82:	0000                	unimp
  84:	0b1e                	slli	s6,s6,0x7
  86:	0000                	unimp
  88:	0b1e                	slli	s6,s6,0x7
  8a:	0000                	unimp
  8c:	0b1e                	slli	s6,s6,0x7
  8e:	0000                	unimp
  90:	0b1e                	slli	s6,s6,0x7
  92:	0000                	unimp
  94:	0b1e                	slli	s6,s6,0x7
  96:	0000                	unimp
  98:	0b1e                	slli	s6,s6,0x7
  9a:	0000                	unimp
  9c:	0b1e                	slli	s6,s6,0x7
  9e:	0000                	unimp
  a0:	0b1e                	slli	s6,s6,0x7
  a2:	0000                	unimp
  a4:	0b1e                	slli	s6,s6,0x7
  a6:	0000                	unimp
  a8:	0b1e                	slli	s6,s6,0x7
  aa:	0000                	unimp
  ac:	0b1e                	slli	s6,s6,0x7
  ae:	0000                	unimp
  b0:	0b1e                	slli	s6,s6,0x7
  b2:	0000                	unimp
  b4:	0b1e                	slli	s6,s6,0x7
  b6:	0000                	unimp
  b8:	0b1e                	slli	s6,s6,0x7
  ba:	0000                	unimp
  bc:	0b1e                	slli	s6,s6,0x7
  be:	0000                	unimp
  c0:	0b1e                	slli	s6,s6,0x7
  c2:	0000                	unimp
  c4:	0b1e                	slli	s6,s6,0x7
  c6:	0000                	unimp
  c8:	0b1e                	slli	s6,s6,0x7
  ca:	0000                	unimp
  cc:	0b1e                	slli	s6,s6,0x7
  ce:	0000                	unimp
  d0:	0b1e                	slli	s6,s6,0x7
  d2:	0000                	unimp
  d4:	0b1e                	slli	s6,s6,0x7
  d6:	0000                	unimp
  d8:	0b1e                	slli	s6,s6,0x7
  da:	0000                	unimp
  dc:	0b1e                	slli	s6,s6,0x7
  de:	0000                	unimp
  e0:	0b1e                	slli	s6,s6,0x7
  e2:	0000                	unimp
  e4:	0b1e                	slli	s6,s6,0x7
  e6:	0000                	unimp
  e8:	0b1e                	slli	s6,s6,0x7
  ea:	0000                	unimp
  ec:	0b1e                	slli	s6,s6,0x7
  ee:	0000                	unimp
  f0:	0b1e                	slli	s6,s6,0x7
  f2:	0000                	unimp
  f4:	0b1e                	slli	s6,s6,0x7
  f6:	0000                	unimp
  f8:	0b1e                	slli	s6,s6,0x7
  fa:	0000                	unimp
  fc:	0b1e                	slli	s6,s6,0x7
  fe:	0000                	unimp
 100:	0b1e                	slli	s6,s6,0x7
 102:	0000                	unimp
 104:	0000                	unimp
 106:	0000                	unimp
 108:	0b1e                	slli	s6,s6,0x7
 10a:	0000                	unimp
 10c:	0b1e                	slli	s6,s6,0x7
 10e:	0000                	unimp
 110:	0b1e                	slli	s6,s6,0x7
 112:	0000                	unimp
 114:	0b1e                	slli	s6,s6,0x7
 116:	0000                	unimp
 118:	0b1e                	slli	s6,s6,0x7
 11a:	0000                	unimp
 11c:	0b1e                	slli	s6,s6,0x7
 11e:	0000                	unimp
 120:	0b1e                	slli	s6,s6,0x7
 122:	0000                	unimp
 124:	0b1e                	slli	s6,s6,0x7
 126:	0000                	unimp
 128:	0b1e                	slli	s6,s6,0x7
 12a:	0000                	unimp
 12c:	0b1e                	slli	s6,s6,0x7
 12e:	0000                	unimp
 130:	0b1e                	slli	s6,s6,0x7
 132:	0000                	unimp
 134:	0b1e                	slli	s6,s6,0x7
 136:	0000                	unimp
 138:	0b1e                	slli	s6,s6,0x7
 13a:	0000                	unimp
 13c:	0b1e                	slli	s6,s6,0x7
 13e:	0000                	unimp
 140:	0b1e                	slli	s6,s6,0x7
 142:	0000                	unimp
 144:	0b1e                	slli	s6,s6,0x7
 146:	0000                	unimp
 148:	0b1e                	slli	s6,s6,0x7
 14a:	0000                	unimp
 14c:	0b1e                	slli	s6,s6,0x7
 14e:	0000                	unimp
 150:	0b1e                	slli	s6,s6,0x7
 152:	0000                	unimp
 154:	0b1e                	slli	s6,s6,0x7
 156:	0000                	unimp
 158:	0b1e                	slli	s6,s6,0x7
 15a:	0000                	unimp
 15c:	0b1e                	slli	s6,s6,0x7
 15e:	0000                	unimp
 160:	045a                	slli	s0,s0,0x16
 162:	0000                	unimp
 164:	0b1e                	slli	s6,s6,0x7
 166:	0000                	unimp
 168:	0b1e                	slli	s6,s6,0x7
 16a:	0000                	unimp
 16c:	0b1e                	slli	s6,s6,0x7
 16e:	0000                	unimp
 170:	0b1e                	slli	s6,s6,0x7
 172:	0000                	unimp
 174:	0b1e                	slli	s6,s6,0x7
 176:	0000                	unimp
 178:	0b1e                	slli	s6,s6,0x7
 17a:	0000                	unimp
 17c:	0b1e                	slli	s6,s6,0x7
 17e:	0000                	unimp
 180:	0b1e                	slli	s6,s6,0x7
 182:	0000                	unimp
 184:	0b1e                	slli	s6,s6,0x7
 186:	0000                	unimp
 188:	0b1e                	slli	s6,s6,0x7
 18a:	0000                	unimp
 18c:	0b1e                	slli	s6,s6,0x7
 18e:	0000                	unimp
 190:	0b1e                	slli	s6,s6,0x7
 192:	0000                	unimp
 194:	0b1e                	slli	s6,s6,0x7
 196:	0000                	unimp
 198:	0b1e                	slli	s6,s6,0x7
 19a:	0000                	unimp
 19c:	0b1e                	slli	s6,s6,0x7
 19e:	0000                	unimp
 1a0:	0b1e                	slli	s6,s6,0x7
	...

Disassembly of section .text:

000001c0 <HalIntLock>:
     1c0:	30002573          	csrr	a0,mstatus
     1c4:	08800293          	li	t0,136
     1c8:	3002b073          	csrc	mstatus,t0
     1cc:	8082                	ret

000001ce <HalIntUnLock>:
     1ce:	30002573          	csrr	a0,mstatus
     1d2:	08800293          	li	t0,136
     1d6:	3002a073          	csrs	mstatus,t0
     1da:	8082                	ret

000001dc <HalIntRestore>:
     1dc:	30051073          	csrw	mstatus,a0
     1e0:	8082                	ret
     1e2:	0001                	nop

000001e4 <HalStartToRun>:
     1e4:	20010297          	auipc	t0,0x20010
     1e8:	e1c28293          	addi	t0,t0,-484 # 20010000 <_eusrstack>
     1ec:	e0028293          	addi	t0,t0,-512
     1f0:	34029073          	csrw	mscratch,t0
     1f4:	8ac18293          	addi	t0,gp,-1876 # 2000015c <g_losTask>
     1f8:	0002a303          	lw	t1,0(t0)
     1fc:	00032103          	lw	sp,0(t1)
     200:	4282                	lw	t0,0(sp)
     202:	34129073          	csrw	mepc,t0
     206:	52d6                	lw	t0,116(sp)
     208:	30029073          	csrw	mstatus,t0
     20c:	4092                	lw	ra,4(sp)
     20e:	42a2                	lw	t0,8(sp)
     210:	4332                	lw	t1,12(sp)
     212:	43c2                	lw	t2,16(sp)
     214:	4452                	lw	s0,20(sp)
     216:	44e2                	lw	s1,24(sp)
     218:	4572                	lw	a0,28(sp)
     21a:	5582                	lw	a1,32(sp)
     21c:	5612                	lw	a2,36(sp)
     21e:	56a2                	lw	a3,40(sp)
     220:	5732                	lw	a4,44(sp)
     222:	57c2                	lw	a5,48(sp)
     224:	5852                	lw	a6,52(sp)
     226:	58e2                	lw	a7,56(sp)
     228:	5972                	lw	s2,60(sp)
     22a:	4986                	lw	s3,64(sp)
     22c:	4a16                	lw	s4,68(sp)
     22e:	4aa6                	lw	s5,72(sp)
     230:	4b36                	lw	s6,76(sp)
     232:	4bc6                	lw	s7,80(sp)
     234:	4c56                	lw	s8,84(sp)
     236:	4ce6                	lw	s9,88(sp)
     238:	4d76                	lw	s10,92(sp)
     23a:	5d86                	lw	s11,96(sp)
     23c:	5e16                	lw	t3,100(sp)
     23e:	5ea6                	lw	t4,104(sp)
     240:	5f36                	lw	t5,108(sp)
     242:	5fc6                	lw	t6,112(sp)
     244:	07810113          	addi	sp,sp,120
     248:	30200073          	mret
	...

0000024e <__riscv_save_12>:
     24e:	7139                	addi	sp,sp,-64
     250:	4301                	li	t1,0
     252:	c66e                	sw	s11,12(sp)
     254:	a019                	j	25a <__riscv_save_10+0x4>

00000256 <__riscv_save_10>:
     256:	7139                	addi	sp,sp,-64
     258:	5341                	li	t1,-16
     25a:	c86a                	sw	s10,16(sp)
     25c:	ca66                	sw	s9,20(sp)
     25e:	cc62                	sw	s8,24(sp)
     260:	ce5e                	sw	s7,28(sp)
     262:	a019                	j	268 <__riscv_save_4+0x4>

00000264 <__riscv_save_4>:
     264:	7139                	addi	sp,sp,-64
     266:	5301                	li	t1,-32
     268:	d05a                	sw	s6,32(sp)
     26a:	d256                	sw	s5,36(sp)
     26c:	d452                	sw	s4,40(sp)
     26e:	d64e                	sw	s3,44(sp)
     270:	d84a                	sw	s2,48(sp)
     272:	da26                	sw	s1,52(sp)
     274:	dc22                	sw	s0,56(sp)
     276:	de06                	sw	ra,60(sp)
     278:	40610133          	sub	sp,sp,t1
     27c:	8282                	jr	t0

0000027e <__riscv_save_0>:
     27e:	1141                	addi	sp,sp,-16
     280:	c04a                	sw	s2,0(sp)
     282:	c226                	sw	s1,4(sp)
     284:	c422                	sw	s0,8(sp)
     286:	c606                	sw	ra,12(sp)
     288:	8282                	jr	t0

0000028a <__riscv_restore_12>:
     28a:	4db2                	lw	s11,12(sp)
     28c:	0141                	addi	sp,sp,16

0000028e <__riscv_restore_10>:
     28e:	4d02                	lw	s10,0(sp)
     290:	4c92                	lw	s9,4(sp)
     292:	4c22                	lw	s8,8(sp)
     294:	4bb2                	lw	s7,12(sp)
     296:	0141                	addi	sp,sp,16

00000298 <__riscv_restore_4>:
     298:	4b02                	lw	s6,0(sp)
     29a:	4a92                	lw	s5,4(sp)
     29c:	4a22                	lw	s4,8(sp)
     29e:	49b2                	lw	s3,12(sp)
     2a0:	0141                	addi	sp,sp,16

000002a2 <__riscv_restore_0>:
     2a2:	4902                	lw	s2,0(sp)
     2a4:	4492                	lw	s1,4(sp)
     2a6:	4422                	lw	s0,8(sp)
     2a8:	40b2                	lw	ra,12(sp)
     2aa:	0141                	addi	sp,sp,16
     2ac:	8082                	ret

000002ae <memset>:
     2ae:	433d                	li	t1,15
     2b0:	872a                	mv	a4,a0
     2b2:	02c37363          	bgeu	t1,a2,2d8 <memset+0x2a>
     2b6:	00f77793          	andi	a5,a4,15
     2ba:	efbd                	bnez	a5,338 <memset+0x8a>
     2bc:	e5ad                	bnez	a1,326 <memset+0x78>
     2be:	ff067693          	andi	a3,a2,-16
     2c2:	8a3d                	andi	a2,a2,15
     2c4:	96ba                	add	a3,a3,a4
     2c6:	c30c                	sw	a1,0(a4)
     2c8:	c34c                	sw	a1,4(a4)
     2ca:	c70c                	sw	a1,8(a4)
     2cc:	c74c                	sw	a1,12(a4)
     2ce:	0741                	addi	a4,a4,16
     2d0:	fed76be3          	bltu	a4,a3,2c6 <memset+0x18>
     2d4:	e211                	bnez	a2,2d8 <memset+0x2a>
     2d6:	8082                	ret
     2d8:	40c306b3          	sub	a3,t1,a2
     2dc:	068a                	slli	a3,a3,0x2
     2de:	00000297          	auipc	t0,0x0
     2e2:	9696                	add	a3,a3,t0
     2e4:	00a68067          	jr	10(a3)
     2e8:	00b70723          	sb	a1,14(a4)
     2ec:	00b706a3          	sb	a1,13(a4)
     2f0:	00b70623          	sb	a1,12(a4)
     2f4:	00b705a3          	sb	a1,11(a4)
     2f8:	00b70523          	sb	a1,10(a4)
     2fc:	00b704a3          	sb	a1,9(a4)
     300:	00b70423          	sb	a1,8(a4)
     304:	00b703a3          	sb	a1,7(a4)
     308:	00b70323          	sb	a1,6(a4)
     30c:	00b702a3          	sb	a1,5(a4)
     310:	00b70223          	sb	a1,4(a4)
     314:	00b701a3          	sb	a1,3(a4)
     318:	00b70123          	sb	a1,2(a4)
     31c:	00b700a3          	sb	a1,1(a4)
     320:	00b70023          	sb	a1,0(a4)
     324:	8082                	ret
     326:	0ff5f593          	andi	a1,a1,255
     32a:	00859693          	slli	a3,a1,0x8
     32e:	8dd5                	or	a1,a1,a3
     330:	01059693          	slli	a3,a1,0x10
     334:	8dd5                	or	a1,a1,a3
     336:	b761                	j	2be <memset+0x10>
     338:	00279693          	slli	a3,a5,0x2
     33c:	00000297          	auipc	t0,0x0
     340:	9696                	add	a3,a3,t0
     342:	8286                	mv	t0,ra
     344:	fa8680e7          	jalr	-88(a3)
     348:	8096                	mv	ra,t0
     34a:	17c1                	addi	a5,a5,-16
     34c:	8f1d                	sub	a4,a4,a5
     34e:	963e                	add	a2,a2,a5
     350:	f8c374e3          	bgeu	t1,a2,2d8 <memset+0x2a>
     354:	b7a5                	j	2bc <memset+0xe>

00000356 <NMI_Handler>:
     356:	34011173          	csrrw	sp,mscratch,sp
     35a:	392030ef          	jal	ra,36ec <HalIntEnter>
     35e:	a001                	j	35e <NMI_Handler+0x8>

00000360 <HardFault_Handler>:
     360:	34011173          	csrrw	sp,mscratch,sp
     364:	388030ef          	jal	ra,36ec <HalIntEnter>
     368:	01f040ef          	jal	ra,4b86 <__get_MCAUSE>
     36c:	85aa                	mv	a1,a0
     36e:	00007537          	lui	a0,0x7
     372:	ab450513          	addi	a0,a0,-1356 # 6ab4 <_read+0x2e>
     376:	55a050ef          	jal	ra,58d0 <iprintf>
     37a:	013040ef          	jal	ra,4b8c <__get_MTVAL>
     37e:	85aa                	mv	a1,a0
     380:	00007537          	lui	a0,0x7
     384:	ac450513          	addi	a0,a0,-1340 # 6ac4 <_read+0x3e>
     388:	548050ef          	jal	ra,58d0 <iprintf>
     38c:	7f4040ef          	jal	ra,4b80 <__get_MEPC>
     390:	85aa                	mv	a1,a0
     392:	00007537          	lui	a0,0x7
     396:	ad450513          	addi	a0,a0,-1324 # 6ad4 <_read+0x4e>
     39a:	536050ef          	jal	ra,58d0 <iprintf>
     39e:	a001                	j	39e <HardFault_Handler+0x3e>

000003a0 <RecvFrame_Init>:
     3a0:	98018793          	addi	a5,gp,-1664 # 20000230 <g_frame_data>
     3a4:	0007a023          	sw	zero,0(a5)
     3a8:	00079423          	sh	zero,8(a5)
     3ac:	8082                	ret

000003ae <recDataProcessing>:
     3ae:	ed1ff2ef          	jal	t0,27e <__riscv_save_0>
     3b2:	98018713          	addi	a4,gp,-1664 # 20000230 <g_frame_data>
     3b6:	431c                	lw	a5,0(a4)
     3b8:	4699                	li	a3,6
     3ba:	08f6ed63          	bltu	a3,a5,454 <recDataProcessing+0xa6>
     3be:	671d                	lui	a4,0x7
     3c0:	078a                	slli	a5,a5,0x2
     3c2:	a9870713          	addi	a4,a4,-1384 # 6a98 <_read+0x12>
     3c6:	97ba                	add	a5,a5,a4
     3c8:	439c                	lw	a5,0(a5)
     3ca:	98018413          	addi	s0,gp,-1664 # 20000230 <g_frame_data>
     3ce:	8782                	jr	a5
     3d0:	0a500793          	li	a5,165
     3d4:	00f51463          	bne	a0,a5,3dc <recDataProcessing+0x2e>
     3d8:	4785                	li	a5,1
     3da:	c01c                	sw	a5,0(s0)
     3dc:	b5d9                	j	2a2 <__riscv_restore_0>
     3de:	05a00793          	li	a5,90
     3e2:	04f51363          	bne	a0,a5,428 <recDataProcessing+0x7a>
     3e6:	4789                	li	a5,2
     3e8:	bfcd                	j	3da <recDataProcessing+0x2c>
     3ea:	a048                	sb	a0,4(s0)
     3ec:	478d                	li	a5,3
     3ee:	b7f5                	j	3da <recDataProcessing+0x2c>
     3f0:	b048                	sb	a0,5(s0)
     3f2:	4791                	li	a5,4
     3f4:	b7dd                	j	3da <recDataProcessing+0x2c>
     3f6:	0522                	slli	a0,a0,0x8
     3f8:	a06a                	sh	a0,6(s0)
     3fa:	4795                	li	a5,5
     3fc:	bff9                	j	3da <recDataProcessing+0x2c>
     3fe:	206e                	lhu	a1,6(s0)
     400:	3ff00713          	li	a4,1023
     404:	8dc9                	or	a1,a1,a0
     406:	fff58793          	addi	a5,a1,-1
     40a:	07c2                	slli	a5,a5,0x10
     40c:	a06e                	sh	a1,6(s0)
     40e:	83c1                	srli	a5,a5,0x10
     410:	00f76663          	bltu	a4,a5,41c <recDataProcessing+0x6e>
     414:	00041423          	sh	zero,8(s0)
     418:	4799                	li	a5,6
     41a:	b7c1                	j	3da <recDataProcessing+0x2c>
     41c:	00007537          	lui	a0,0x7
     420:	ae050513          	addi	a0,a0,-1312 # 6ae0 <_read+0x5a>
     424:	4ac050ef          	jal	ra,58d0 <iprintf>
     428:	00042023          	sw	zero,0(s0)
     42c:	bf45                	j	3dc <recDataProcessing+0x2e>
     42e:	241e                	lhu	a5,8(s0)
     430:	2076                	lhu	a3,6(s0)
     432:	fad7f5e3          	bgeu	a5,a3,3dc <recDataProcessing+0x2e>
     436:	00178713          	addi	a4,a5,1
     43a:	0742                	slli	a4,a4,0x10
     43c:	8341                	srli	a4,a4,0x10
     43e:	97a2                	add	a5,a5,s0
     440:	a41a                	sh	a4,8(s0)
     442:	a7a8                	sb	a0,10(a5)
     444:	f8d76ce3          	bltu	a4,a3,3dc <recDataProcessing+0x2e>
     448:	4585                	li	a1,1
     44a:	d8c18513          	addi	a0,gp,-628 # 2000063c <gWifiEventGroup>
     44e:	636010ef          	jal	ra,1a84 <LOS_EventWrite>
     452:	bfd9                	j	428 <recDataProcessing+0x7a>
     454:	00072023          	sw	zero,0(a4)
     458:	b751                	j	3dc <recDataProcessing+0x2e>

0000045a <UART6_IRQHandler>:
     45a:	1141                	addi	sp,sp,-16
     45c:	c622                	sw	s0,12(sp)
     45e:	40002437          	lui	s0,0x40002
     462:	52500593          	li	a1,1317
     466:	80040513          	addi	a0,s0,-2048 # 40001800 <_eusrstack+0x1fff1800>
     46a:	331000ef          	jal	ra,f9a <USART_GetITStatus>
     46e:	c91d                	beqz	a0,4a4 <UART6_IRQHandler+0x4a>
     470:	80040513          	addi	a0,s0,-2048
     474:	315000ef          	jal	ra,f88 <USART_ReceiveData>
     478:	8f01c783          	lbu	a5,-1808(gp) # 200001a0 <WIFI_RECVSTOP>
     47c:	0ff57513          	andi	a0,a0,255
     480:	cb89                	beqz	a5,492 <UART6_IRQHandler+0x38>
     482:	4705                	li	a4,1
     484:	82018413          	addi	s0,gp,-2016 # 200000d0 <_edata>
     488:	02e78263          	beq	a5,a4,4ac <UART6_IRQHandler+0x52>
     48c:	00041023          	sh	zero,0(s0)
     490:	a011                	j	494 <UART6_IRQHandler+0x3a>
     492:	3f31                	jal	3ae <recDataProcessing>
     494:	40002537          	lui	a0,0x40002
     498:	52500593          	li	a1,1317
     49c:	80050513          	addi	a0,a0,-2048 # 40001800 <_eusrstack+0x1fff1800>
     4a0:	337000ef          	jal	ra,fd6 <USART_ClearITPendingBit>
     4a4:	4432                	lw	s0,12(sp)
     4a6:	0141                	addi	sp,sp,16
     4a8:	30200073          	mret
     4ac:	201a                	lhu	a4,0(s0)
     4ae:	07e00693          	li	a3,126
     4b2:	90018793          	addi	a5,gp,-1792 # 200001b0 <WIFI_CMD>
     4b6:	02e6e263          	bltu	a3,a4,4da <UART6_IRQHandler+0x80>
     4ba:	00170693          	addi	a3,a4,1
     4be:	06c2                	slli	a3,a3,0x10
     4c0:	973e                	add	a4,a4,a5
     4c2:	82c1                	srli	a3,a3,0x10
     4c4:	a308                	sb	a0,0(a4)
     4c6:	a016                	sh	a3,0(s0)
     4c8:	4729                	li	a4,10
     4ca:	fce515e3          	bne	a0,a4,494 <UART6_IRQHandler+0x3a>
     4ce:	97b6                	add	a5,a5,a3
     4d0:	00078023          	sb	zero,0(a5)
     4d4:	69f030ef          	jal	ra,4372 <WIFI_CMD_ReturnCheck>
     4d8:	bf55                	j	48c <UART6_IRQHandler+0x32>
     4da:	06078fa3          	sb	zero,127(a5)
     4de:	4709                	li	a4,2
     4e0:	00041023          	sh	zero,0(s0)
     4e4:	8ee18723          	sb	a4,-1810(gp) # 2000019e <WIFI_CMD_FLAG>
     4e8:	b775                	j	494 <UART6_IRQHandler+0x3a>

000004ea <taskSample>:
     4ea:	d95ff2ef          	jal	t0,27e <__riscv_save_0>
     4ee:	1101                	addi	sp,sp,-32
     4f0:	4581                	li	a1,0
     4f2:	4649                	li	a2,18
     4f4:	00e10513          	addi	a0,sp,14
     4f8:	3b5d                	jal	2ae <memset>
     4fa:	000017b7          	lui	a5,0x1
     4fe:	94c78793          	addi	a5,a5,-1716 # 94c <thread_Eink_Start>
     502:	c43e                	sw	a5,8(sp)
     504:	6785                	lui	a5,0x1
     506:	80078793          	addi	a5,a5,-2048 # 800 <__stack_size>
     50a:	ca3e                	sw	a5,20(sp)
     50c:	000077b7          	lui	a5,0x7
     510:	b1c78793          	addi	a5,a5,-1252 # 6b1c <_read+0x96>
     514:	00007537          	lui	a0,0x7
     518:	cc3e                	sw	a5,24(sp)
     51a:	b2850513          	addi	a0,a0,-1240 # 6b28 <_read+0xa2>
     51e:	4799                	li	a5,6
     520:	867c                	sh	a5,12(sp)
     522:	4c8050ef          	jal	ra,59ea <puts>
     526:	002c                	addi	a1,sp,8
     528:	850a                	mv	a0,sp
     52a:	5d3020ef          	jal	ra,32fc <LOS_TaskCreate>
     52e:	c519                	beqz	a0,53c <taskSample+0x52>
     530:	00007537          	lui	a0,0x7
     534:	b4450513          	addi	a0,a0,-1212 # 6b44 <_read+0xbe>
     538:	4b2050ef          	jal	ra,59ea <puts>
     53c:	000017b7          	lui	a5,0x1
     540:	a6878793          	addi	a5,a5,-1432 # a68 <thread_WIFI_Start>
     544:	c43e                	sw	a5,8(sp)
     546:	000077b7          	lui	a5,0x7
     54a:	b6078793          	addi	a5,a5,-1184 # 6b60 <_read+0xda>
     54e:	00007537          	lui	a0,0x7
     552:	cc3e                	sw	a5,24(sp)
     554:	b6c50513          	addi	a0,a0,-1172 # 6b6c <_read+0xe6>
     558:	4795                	li	a5,5
     55a:	867c                	sh	a5,12(sp)
     55c:	48e050ef          	jal	ra,59ea <puts>
     560:	002c                	addi	a1,sp,8
     562:	0048                	addi	a0,sp,4
     564:	599020ef          	jal	ra,32fc <LOS_TaskCreate>
     568:	c519                	beqz	a0,576 <taskSample+0x8c>
     56a:	00007537          	lui	a0,0x7
     56e:	b8850513          	addi	a0,a0,-1144 # 6b88 <_read+0x102>
     572:	478050ef          	jal	ra,59ea <puts>
     576:	6105                	addi	sp,sp,32
     578:	b32d                	j	2a2 <__riscv_restore_0>

0000057a <main>:
     57a:	d05ff2ef          	jal	t0,27e <__riscv_save_0>
     57e:	4509                	li	a0,2
     580:	70e000ef          	jal	ra,c8e <NVIC_PriorityGroupConfig>
     584:	22a1                	jal	6cc <SystemCoreClockUpdate>
     586:	50e040ef          	jal	ra,4a94 <Delay_Init>
     58a:	6571                	lui	a0,0x1c
     58c:	20050513          	addi	a0,a0,512 # 1c200 <_data_lma+0x145b4>
     590:	52e040ef          	jal	ra,4abe <USART_Printf_Init>
     594:	200007b7          	lui	a5,0x20000
     598:	0b07a583          	lw	a1,176(a5) # 200000b0 <SystemCoreClock>
     59c:	00007537          	lui	a0,0x7
     5a0:	afc50513          	addi	a0,a0,-1284 # 6afc <_read+0x76>
     5a4:	32c050ef          	jal	ra,58d0 <iprintf>
     5a8:	2529                	jal	bb2 <DBGMCU_GetCHIPID>
     5aa:	85aa                	mv	a1,a0
     5ac:	00007537          	lui	a0,0x7
     5b0:	b0c50513          	addi	a0,a0,-1268 # 6b0c <_read+0x86>
     5b4:	31c050ef          	jal	ra,58d0 <iprintf>
     5b8:	d8c18513          	addi	a0,gp,-628 # 2000063c <gWifiEventGroup>
     5bc:	35a010ef          	jal	ra,1916 <LOS_EventInit>
     5c0:	5ae010ef          	jal	ra,1b6e <LOS_KernelInit>
     5c4:	842a                	mv	s0,a0
     5c6:	3715                	jal	4ea <taskSample>
     5c8:	e019                	bnez	s0,5ce <main+0x54>
     5ca:	590010ef          	jal	ra,1b5a <LOS_Start>
     5ce:	0001                	nop
     5d0:	bffd                	j	5ce <main+0x54>

000005d2 <SystemInit>:
     5d2:	400217b7          	lui	a5,0x40021
     5d6:	4398                	lw	a4,0(a5)
     5d8:	f0ff06b7          	lui	a3,0xf0ff0
     5dc:	1141                	addi	sp,sp,-16
     5de:	00176713          	ori	a4,a4,1
     5e2:	c398                	sw	a4,0(a5)
     5e4:	43d8                	lw	a4,4(a5)
     5e6:	00020637          	lui	a2,0x20
     5ea:	8f75                	and	a4,a4,a3
     5ec:	c3d8                	sw	a4,4(a5)
     5ee:	4398                	lw	a4,0(a5)
     5f0:	fef706b7          	lui	a3,0xfef70
     5f4:	16fd                	addi	a3,a3,-1
     5f6:	8f75                	and	a4,a4,a3
     5f8:	c398                	sw	a4,0(a5)
     5fa:	4398                	lw	a4,0(a5)
     5fc:	fffc06b7          	lui	a3,0xfffc0
     600:	16fd                	addi	a3,a3,-1
     602:	8f75                	and	a4,a4,a3
     604:	c398                	sw	a4,0(a5)
     606:	43d8                	lw	a4,4(a5)
     608:	ff0106b7          	lui	a3,0xff010
     60c:	16fd                	addi	a3,a3,-1
     60e:	8f75                	and	a4,a4,a3
     610:	c3d8                	sw	a4,4(a5)
     612:	4398                	lw	a4,0(a5)
     614:	ec0006b7          	lui	a3,0xec000
     618:	16fd                	addi	a3,a3,-1
     61a:	8f75                	and	a4,a4,a3
     61c:	c398                	sw	a4,0(a5)
     61e:	00ff0737          	lui	a4,0xff0
     622:	c798                	sw	a4,8(a5)
     624:	0207a623          	sw	zero,44(a5) # 4002102c <_eusrstack+0x2001102c>
     628:	c402                	sw	zero,8(sp)
     62a:	c602                	sw	zero,12(sp)
     62c:	4398                	lw	a4,0(a5)
     62e:	66c1                	lui	a3,0x10
     630:	8f55                	or	a4,a4,a3
     632:	c398                	sw	a4,0(a5)
     634:	400216b7          	lui	a3,0x40021
     638:	6705                	lui	a4,0x1
     63a:	429c                	lw	a5,0(a3)
     63c:	8ff1                	and	a5,a5,a2
     63e:	c63e                	sw	a5,12(sp)
     640:	47a2                	lw	a5,8(sp)
     642:	0785                	addi	a5,a5,1
     644:	c43e                	sw	a5,8(sp)
     646:	47b2                	lw	a5,12(sp)
     648:	e781                	bnez	a5,650 <SystemInit+0x7e>
     64a:	47a2                	lw	a5,8(sp)
     64c:	fee797e3          	bne	a5,a4,63a <SystemInit+0x68>
     650:	400217b7          	lui	a5,0x40021
     654:	439c                	lw	a5,0(a5)
     656:	00e79713          	slli	a4,a5,0xe
     65a:	06075763          	bgez	a4,6c8 <SystemInit+0xf6>
     65e:	4785                	li	a5,1
     660:	c63e                	sw	a5,12(sp)
     662:	4732                	lw	a4,12(sp)
     664:	4785                	li	a5,1
     666:	04f71f63          	bne	a4,a5,6c4 <SystemInit+0xf2>
     66a:	400217b7          	lui	a5,0x40021
     66e:	43d8                	lw	a4,4(a5)
     670:	ffc106b7          	lui	a3,0xffc10
     674:	16fd                	addi	a3,a3,-1
     676:	c3d8                	sw	a4,4(a5)
     678:	43d8                	lw	a4,4(a5)
     67a:	c3d8                	sw	a4,4(a5)
     67c:	43d8                	lw	a4,4(a5)
     67e:	40076713          	ori	a4,a4,1024
     682:	c3d8                	sw	a4,4(a5)
     684:	43d8                	lw	a4,4(a5)
     686:	8f75                	and	a4,a4,a3
     688:	c3d8                	sw	a4,4(a5)
     68a:	43d8                	lw	a4,4(a5)
     68c:	002906b7          	lui	a3,0x290
     690:	8f55                	or	a4,a4,a3
     692:	c3d8                	sw	a4,4(a5)
     694:	4398                	lw	a4,0(a5)
     696:	010006b7          	lui	a3,0x1000
     69a:	8f55                	or	a4,a4,a3
     69c:	c398                	sw	a4,0(a5)
     69e:	4398                	lw	a4,0(a5)
     6a0:	00671693          	slli	a3,a4,0x6
     6a4:	fe06dde3          	bgez	a3,69e <SystemInit+0xcc>
     6a8:	43d8                	lw	a4,4(a5)
     6aa:	400216b7          	lui	a3,0x40021
     6ae:	9b71                	andi	a4,a4,-4
     6b0:	c3d8                	sw	a4,4(a5)
     6b2:	43d8                	lw	a4,4(a5)
     6b4:	00276713          	ori	a4,a4,2
     6b8:	c3d8                	sw	a4,4(a5)
     6ba:	4721                	li	a4,8
     6bc:	42dc                	lw	a5,4(a3)
     6be:	8bb1                	andi	a5,a5,12
     6c0:	fee79ee3          	bne	a5,a4,6bc <SystemInit+0xea>
     6c4:	0141                	addi	sp,sp,16
     6c6:	8082                	ret
     6c8:	c602                	sw	zero,12(sp)
     6ca:	bf61                	j	662 <SystemInit+0x90>

000006cc <SystemCoreClockUpdate>:
     6cc:	400216b7          	lui	a3,0x40021
     6d0:	42d8                	lw	a4,4(a3)
     6d2:	200007b7          	lui	a5,0x20000
     6d6:	4611                	li	a2,4
     6d8:	8b31                	andi	a4,a4,12
     6da:	0b078793          	addi	a5,a5,176 # 200000b0 <SystemCoreClock>
     6de:	00c70563          	beq	a4,a2,6e8 <SystemCoreClockUpdate+0x1c>
     6e2:	4621                	li	a2,8
     6e4:	02c70863          	beq	a4,a2,714 <SystemCoreClockUpdate+0x48>
     6e8:	007a1737          	lui	a4,0x7a1
     6ec:	20070713          	addi	a4,a4,512 # 7a1200 <_data_lma+0x7995b4>
     6f0:	c398                	sw	a4,0(a5)
     6f2:	40021737          	lui	a4,0x40021
     6f6:	4358                	lw	a4,4(a4)
     6f8:	8311                	srli	a4,a4,0x4
     6fa:	00f77693          	andi	a3,a4,15
     6fe:	20000737          	lui	a4,0x20000
     702:	00070713          	mv	a4,a4
     706:	9736                	add	a4,a4,a3
     708:	2314                	lbu	a3,0(a4)
     70a:	4398                	lw	a4,0(a5)
     70c:	00d75733          	srl	a4,a4,a3
     710:	c398                	sw	a4,0(a5)
     712:	8082                	ret
     714:	42d8                	lw	a4,4(a3)
     716:	42d4                	lw	a3,4(a3)
     718:	6641                	lui	a2,0x10
     71a:	8349                	srli	a4,a4,0x12
     71c:	8b3d                	andi	a4,a4,15
     71e:	8ef1                	and	a3,a3,a2
     720:	00270613          	addi	a2,a4,2 # 20000002 <_data_vma+0x2>
     724:	cf15                	beqz	a4,760 <SystemCoreClockUpdate+0x94>
     726:	473d                	li	a4,15
     728:	02e60f63          	beq	a2,a4,766 <SystemCoreClockUpdate+0x9a>
     72c:	4741                	li	a4,16
     72e:	02e60f63          	beq	a2,a4,76c <SystemCoreClockUpdate+0xa0>
     732:	4745                	li	a4,17
     734:	4581                	li	a1,0
     736:	00e61363          	bne	a2,a4,73c <SystemCoreClockUpdate+0x70>
     73a:	4641                	li	a2,16
     73c:	e2a1                	bnez	a3,77c <SystemCoreClockUpdate+0xb0>
     73e:	40024737          	lui	a4,0x40024
     742:	80072703          	lw	a4,-2048(a4) # 40023800 <_eusrstack+0x20013800>
     746:	8b41                	andi	a4,a4,16
     748:	c70d                	beqz	a4,772 <SystemCoreClockUpdate+0xa6>
     74a:	007a1737          	lui	a4,0x7a1
     74e:	20070713          	addi	a4,a4,512 # 7a1200 <_data_lma+0x7995b4>
     752:	02c70633          	mul	a2,a4,a2
     756:	c390                	sw	a2,0(a5)
     758:	ddc9                	beqz	a1,6f2 <SystemCoreClockUpdate+0x26>
     75a:	4398                	lw	a4,0(a5)
     75c:	8305                	srli	a4,a4,0x1
     75e:	bf49                	j	6f0 <SystemCoreClockUpdate+0x24>
     760:	4581                	li	a1,0
     762:	4649                	li	a2,18
     764:	bfe1                	j	73c <SystemCoreClockUpdate+0x70>
     766:	4585                	li	a1,1
     768:	4635                	li	a2,13
     76a:	bfc9                	j	73c <SystemCoreClockUpdate+0x70>
     76c:	4581                	li	a1,0
     76e:	463d                	li	a2,15
     770:	b7f1                	j	73c <SystemCoreClockUpdate+0x70>
     772:	003d1737          	lui	a4,0x3d1
     776:	90070713          	addi	a4,a4,-1792 # 3d0900 <_data_lma+0x3c8cb4>
     77a:	bfe1                	j	752 <SystemCoreClockUpdate+0x86>
     77c:	40021537          	lui	a0,0x40021
     780:	5558                	lw	a4,44(a0)
     782:	00f71693          	slli	a3,a4,0xf
     786:	5558                	lw	a4,44(a0)
     788:	0406df63          	bgez	a3,7e6 <SystemCoreClockUpdate+0x11a>
     78c:	8311                	srli	a4,a4,0x4
     78e:	8b3d                	andi	a4,a4,15
     790:	00170693          	addi	a3,a4,1
     794:	007a1737          	lui	a4,0x7a1
     798:	20070713          	addi	a4,a4,512 # 7a1200 <_data_lma+0x7995b4>
     79c:	02d75733          	divu	a4,a4,a3
     7a0:	c398                	sw	a4,0(a5)
     7a2:	5554                	lw	a3,44(a0)
     7a4:	82a1                	srli	a3,a3,0x8
     7a6:	8abd                	andi	a3,a3,15
     7a8:	e28d                	bnez	a3,7ca <SystemCoreClockUpdate+0xfe>
     7aa:	4695                	li	a3,5
     7ac:	02d70733          	mul	a4,a4,a3
     7b0:	8305                	srli	a4,a4,0x1
     7b2:	c398                	sw	a4,0(a5)
     7b4:	40021737          	lui	a4,0x40021
     7b8:	5758                	lw	a4,44(a4)
     7ba:	4394                	lw	a3,0(a5)
     7bc:	8b3d                	andi	a4,a4,15
     7be:	0705                	addi	a4,a4,1
     7c0:	02e6d733          	divu	a4,a3,a4
     7c4:	c398                	sw	a4,0(a5)
     7c6:	4398                	lw	a4,0(a5)
     7c8:	b769                	j	752 <SystemCoreClockUpdate+0x86>
     7ca:	4505                	li	a0,1
     7cc:	00a69463          	bne	a3,a0,7d4 <SystemCoreClockUpdate+0x108>
     7d0:	46e5                	li	a3,25
     7d2:	bfe9                	j	7ac <SystemCoreClockUpdate+0xe0>
     7d4:	453d                	li	a0,15
     7d6:	00a69663          	bne	a3,a0,7e2 <SystemCoreClockUpdate+0x116>
     7da:	46d1                	li	a3,20
     7dc:	02e68733          	mul	a4,a3,a4
     7e0:	bfc9                	j	7b2 <SystemCoreClockUpdate+0xe6>
     7e2:	0689                	addi	a3,a3,2
     7e4:	bfe5                	j	7dc <SystemCoreClockUpdate+0x110>
     7e6:	8b3d                	andi	a4,a4,15
     7e8:	00170693          	addi	a3,a4,1 # 40021001 <_eusrstack+0x20011001>
     7ec:	007a1737          	lui	a4,0x7a1
     7f0:	20070713          	addi	a4,a4,512 # 7a1200 <_data_lma+0x7995b4>
     7f4:	02d75733          	divu	a4,a4,a3
     7f8:	b7f1                	j	7c4 <SystemCoreClockUpdate+0xf8>

000007fa <Button_Scan>:
     7fa:	a85ff2ef          	jal	t0,27e <__riscv_save_0>
     7fe:	842a                	mv	s0,a0
     800:	214e                	lhu	a1,4(a0)
     802:	4108                	lw	a0,0(a0)
     804:	29a5                	jal	c7c <GPIO_ReadInputDataBit>
     806:	4418                	lw	a4,8(s0)
     808:	4785                	li	a5,1
     80a:	00f70d63          	beq	a4,a5,824 <__stack_size+0x24>
     80e:	c711                	beqz	a4,81a <__stack_size+0x1a>
     810:	4689                	li	a3,2
     812:	02d70a63          	beq	a4,a3,846 <__stack_size+0x46>
     816:	4501                	li	a0,0
     818:	a029                	j	822 <__stack_size+0x22>
     81a:	fd75                	bnez	a0,816 <__stack_size+0x16>
     81c:	00040623          	sb	zero,12(s0)
     820:	c41c                	sw	a5,8(s0)
     822:	b441                	j	2a2 <__riscv_restore_0>
     824:	ed11                	bnez	a0,840 <__stack_size+0x40>
     826:	245c                	lbu	a5,12(s0)
     828:	0785                	addi	a5,a5,1
     82a:	0ff7f793          	andi	a5,a5,255
     82e:	a45c                	sb	a5,12(s0)
     830:	fef773e3          	bgeu	a4,a5,816 <__stack_size+0x16>
     834:	4789                	li	a5,2
     836:	c41c                	sw	a5,8(s0)
     838:	00040623          	sb	zero,12(s0)
     83c:	4505                	li	a0,1
     83e:	b7d5                	j	822 <__stack_size+0x22>
     840:	00042423          	sw	zero,8(s0)
     844:	bfc9                	j	816 <__stack_size+0x16>
     846:	00f51b63          	bne	a0,a5,85c <__stack_size+0x5c>
     84a:	245c                	lbu	a5,12(s0)
     84c:	0785                	addi	a5,a5,1
     84e:	0ff7f793          	andi	a5,a5,255
     852:	a45c                	sb	a5,12(s0)
     854:	fcf571e3          	bgeu	a0,a5,816 <__stack_size+0x16>
     858:	00042423          	sw	zero,8(s0)
     85c:	00040623          	sb	zero,12(s0)
     860:	bf5d                	j	816 <__stack_size+0x16>

00000862 <Button_Init>:
     862:	a1dff2ef          	jal	t0,27e <__riscv_save_0>
     866:	1141                	addi	sp,sp,-16
     868:	4585                	li	a1,1
     86a:	04000513          	li	a0,64
     86e:	2bf5                	jal	e6a <RCC_APB2PeriphClockCmd>
     870:	03000793          	li	a5,48
     874:	40012537          	lui	a0,0x40012
     878:	827c                	sh	a5,4(sp)
     87a:	004c                	addi	a1,sp,4
     87c:	04800793          	li	a5,72
     880:	80050513          	addi	a0,a0,-2048 # 40011800 <_eusrstack+0x20001800>
     884:	c63e                	sw	a5,12(sp)
     886:	2e1d                	jal	bbc <GPIO_Init>
     888:	0141                	addi	sp,sp,16
     88a:	bc21                	j	2a2 <__riscv_restore_0>

0000088c <Display_First>:
     88c:	9f3ff2ef          	jal	t0,27e <__riscv_save_0>
     890:	4705                	li	a4,1
     892:	10e00693          	li	a3,270
     896:	0fa00613          	li	a2,250
     89a:	08000593          	li	a1,128
     89e:	842a                	mv	s0,a0
     8a0:	31d030ef          	jal	ra,43bc <Paint_NewImage>
     8a4:	4511                	li	a0,4
     8a6:	36f030ef          	jal	ra,4414 <Paint_SetScale>
     8aa:	8522                	mv	a0,s0
     8ac:	35f030ef          	jal	ra,440a <Paint_SelectImage>
     8b0:	4505                	li	a0,1
     8b2:	539030ef          	jal	ra,45ea <Paint_Clear>
     8b6:	4801                	li	a6,0
     8b8:	4789                	li	a5,2
     8ba:	4701                	li	a4,0
     8bc:	07800693          	li	a3,120
     8c0:	0f800613          	li	a2,248
     8c4:	4589                	li	a1,2
     8c6:	4509                	li	a0,2
     8c8:	7c9030ef          	jal	ra,4890 <Paint_DrawRectangle>
     8cc:	4801                	li	a6,0
     8ce:	4785                	li	a5,1
     8d0:	4709                	li	a4,2
     8d2:	07500693          	li	a3,117
     8d6:	0f500613          	li	a2,245
     8da:	4595                	li	a1,5
     8dc:	4515                	li	a0,5
     8de:	7b3030ef          	jal	ra,4890 <Paint_DrawRectangle>
     8e2:	4805                	li	a6,1
     8e4:	4785                	li	a5,1
     8e6:	470d                	li	a4,3
     8e8:	07200693          	li	a3,114
     8ec:	02300613          	li	a2,35
     8f0:	45a1                	li	a1,8
     8f2:	4521                	li	a0,8
     8f4:	79d030ef          	jal	ra,4890 <Paint_DrawRectangle>
     8f8:	200006b7          	lui	a3,0x20000
     8fc:	00007637          	lui	a2,0x7
     900:	4785                	li	a5,1
     902:	4701                	li	a4,0
     904:	04068693          	addi	a3,a3,64 # 20000040 <Font24CN>
     908:	ba460613          	addi	a2,a2,-1116 # 6ba4 <_read+0x11e>
     90c:	45bd                	li	a1,15
     90e:	02d00513          	li	a0,45
     912:	00e040ef          	jal	ra,4920 <Paint_DrawString_CN>
     916:	4801                	li	a6,0
     918:	4785                	li	a5,1
     91a:	4701                	li	a4,0
     91c:	03a00693          	li	a3,58
     920:	0f000613          	li	a2,240
     924:	03a00593          	li	a1,58
     928:	02d00513          	li	a0,45
     92c:	687030ef          	jal	ra,47b2 <Paint_DrawLine>
     930:	4801                	li	a6,0
     932:	4789                	li	a5,2
     934:	4709                	li	a4,2
     936:	06900693          	li	a3,105
     93a:	0f000613          	li	a2,240
     93e:	06900593          	li	a1,105
     942:	02d00513          	li	a0,45
     946:	66d030ef          	jal	ra,47b2 <Paint_DrawLine>
     94a:	baa1                	j	2a2 <__riscv_restore_0>

0000094c <thread_Eink_Start>:
     94c:	933ff2ef          	jal	t0,27e <__riscv_save_0>
     950:	00007537          	lui	a0,0x7
     954:	bb850513          	addi	a0,a0,-1096 # 6bb8 <_read+0x132>
     958:	092050ef          	jal	ra,59ea <puts>
     95c:	492030ef          	jal	ra,3dee <EPD_SPI_Init>
     960:	326030ef          	jal	ra,3c86 <EPD_Init>
     964:	3dfd                	jal	862 <Button_Init>
     966:	00007537          	lui	a0,0x7
     96a:	bd050513          	addi	a0,a0,-1072 # 6bd0 <_read+0x14a>
     96e:	07c050ef          	jal	ra,59ea <puts>
     972:	6509                	lui	a0,0x2
     974:	f4050513          	addi	a0,a0,-192 # 1f40 <OsQueueOperate+0x182>
     978:	4bb040ef          	jal	ra,5632 <malloc>
     97c:	842a                	mv	s0,a0
     97e:	3739                	jal	88c <Display_First>
     980:	00007537          	lui	a0,0x7
     984:	be450513          	addi	a0,a0,-1052 # 6be4 <_read+0x15e>
     988:	062050ef          	jal	ra,59ea <puts>
     98c:	8522                	mv	a0,s0
     98e:	3a8030ef          	jal	ra,3d36 <EPD_DisplayImage>
     992:	00007537          	lui	a0,0x7
     996:	bfc50513          	addi	a0,a0,-1028 # 6bfc <_read+0x176>
     99a:	050050ef          	jal	ra,59ea <puts>
     99e:	36a030ef          	jal	ra,3d08 <EPD_Sleep>
     9a2:	8522                	mv	a0,s0
     9a4:	499040ef          	jal	ra,563c <free>
     9a8:	20000437          	lui	s0,0x20000
     9ac:	200004b7          	lui	s1,0x20000
     9b0:	01040513          	addi	a0,s0,16 # 20000010 <button1>
     9b4:	3599                	jal	7fa <Button_Scan>
     9b6:	02048513          	addi	a0,s1,32 # 20000020 <button2>
     9ba:	3581                	jal	7fa <Button_Scan>
     9bc:	c519                	beqz	a0,9ca <thread_Eink_Start+0x7e>
     9be:	30a030ef          	jal	ra,3cc8 <EPD_Init_Fast>
     9c2:	362030ef          	jal	ra,3d24 <EPD_Update>
     9c6:	342030ef          	jal	ra,3d08 <EPD_Sleep>
     9ca:	4529                	li	a0,10
     9cc:	2e5020ef          	jal	ra,34b0 <LOS_TaskDelay>
     9d0:	b7c5                	j	9b0 <thread_Eink_Start+0x64>

000009d2 <ProcessImageData>:
     9d2:	893ff2ef          	jal	t0,264 <__riscv_save_4>
     9d6:	84aa                	mv	s1,a0
     9d8:	8932                	mv	s2,a2
     9da:	862a                	mv	a2,a0
     9dc:	00007537          	lui	a0,0x7
     9e0:	c3050513          	addi	a0,a0,-976 # 6c30 <_read+0x1aa>
     9e4:	842e                	mv	s0,a1
     9e6:	89b6                	mv	s3,a3
     9e8:	6e9040ef          	jal	ra,58d0 <iprintf>
     9ec:	4785                	li	a5,1
     9ee:	00f41a63          	bne	s0,a5,a02 <ProcessImageData+0x30>
     9f2:	00007537          	lui	a0,0x7
     9f6:	c5850513          	addi	a0,a0,-936 # 6c58 <_read+0x1d2>
     9fa:	7f1040ef          	jal	ra,59ea <puts>
     9fe:	2ca030ef          	jal	ra,3cc8 <EPD_Init_Fast>
     a02:	8622                	mv	a2,s0
     a04:	85ce                	mv	a1,s3
     a06:	854a                	mv	a0,s2
     a08:	38c030ef          	jal	ra,3d94 <EPD_DisplayImage_Paragraph>
     a0c:	00941c63          	bne	s0,s1,a24 <ProcessImageData+0x52>
     a10:	00007537          	lui	a0,0x7
     a14:	c7850513          	addi	a0,a0,-904 # 6c78 <_read+0x1f2>
     a18:	7d3040ef          	jal	ra,59ea <puts>
     a1c:	308030ef          	jal	ra,3d24 <EPD_Update>
     a20:	2e8030ef          	jal	ra,3d08 <EPD_Sleep>
     a24:	875ff06f          	j	298 <__riscv_restore_4>

00000a28 <ProcessFrame>:
     a28:	857ff2ef          	jal	t0,27e <__riscv_save_0>
     a2c:	214c                	lbu	a1,4(a0)
     a2e:	0d100793          	li	a5,209
     a32:	02f59463          	bne	a1,a5,a5a <ProcessFrame+0x32>
     a36:	3158                	lbu	a4,5(a0)
     a38:	4785                	li	a5,1
     a3a:	00f71e63          	bne	a4,a5,a56 <ProcessFrame+0x2e>
     a3e:	2176                	lhu	a3,6(a0)
     a40:	4789                	li	a5,2
     a42:	00d7fa63          	bgeu	a5,a3,a56 <ProcessFrame+0x2e>
     a46:	16f9                	addi	a3,a3,-2
     a48:	00c50613          	addi	a2,a0,12
     a4c:	352c                	lbu	a1,11(a0)
     a4e:	2528                	lbu	a0,10(a0)
     a50:	06c2                	slli	a3,a3,0x10
     a52:	82c1                	srli	a3,a3,0x10
     a54:	3fbd                	jal	9d2 <ProcessImageData>
     a56:	84dff06f          	j	2a2 <__riscv_restore_0>
     a5a:	00007537          	lui	a0,0x7
     a5e:	c1450513          	addi	a0,a0,-1004 # 6c14 <_read+0x18e>
     a62:	66f040ef          	jal	ra,58d0 <iprintf>
     a66:	bfc5                	j	a56 <ProcessFrame+0x2e>

00000a68 <thread_WIFI_Start>:
     a68:	817ff2ef          	jal	t0,27e <__riscv_save_0>
     a6c:	00007537          	lui	a0,0x7
     a70:	c9c50513          	addi	a0,a0,-868 # 6c9c <_read+0x216>
     a74:	777040ef          	jal	ra,59ea <puts>
     a78:	7d000513          	li	a0,2000
     a7c:	235020ef          	jal	ra,34b0 <LOS_TaskDelay>
     a80:	921ff0ef          	jal	ra,3a0 <RecvFrame_Init>
     a84:	4505                	li	a0,1
     a86:	5b6030ef          	jal	ra,403c <WIFI_Init>
     a8a:	00007537          	lui	a0,0x7
     a8e:	cb450513          	addi	a0,a0,-844 # 6cb4 <_read+0x22e>
     a92:	759040ef          	jal	ra,59ea <puts>
     a96:	000075b7          	lui	a1,0x7
     a9a:	00007537          	lui	a0,0x7
     a9e:	cc858593          	addi	a1,a1,-824 # 6cc8 <_read+0x242>
     aa2:	cd850513          	addi	a0,a0,-808 # 6cd8 <_read+0x252>
     aa6:	756030ef          	jal	ra,41fc <WIFI_LinkSSID>
     aaa:	e521                	bnez	a0,af2 <thread_WIFI_Start+0x8a>
     aac:	00007537          	lui	a0,0x7
     ab0:	ce050513          	addi	a0,a0,-800 # 6ce0 <_read+0x25a>
     ab4:	737040ef          	jal	ra,59ea <puts>
     ab8:	000075b7          	lui	a1,0x7
     abc:	00007537          	lui	a0,0x7
     ac0:	d1c58593          	addi	a1,a1,-740 # 6d1c <_read+0x296>
     ac4:	d2450513          	addi	a0,a0,-732 # 6d24 <_read+0x29e>
     ac8:	041030ef          	jal	ra,4308 <WIFI_TCPConnect>
     acc:	4505                	li	a0,1
     ace:	6ce030ef          	jal	ra,419c <WIFI_SetTxMode>
     ad2:	20000437          	lui	s0,0x20000
     ad6:	56fd                	li	a3,-1
     ad8:	4615                	li	a2,5
     ada:	4585                	li	a1,1
     adc:	d8c18513          	addi	a0,gp,-628 # 2000063c <gWifiEventGroup>
     ae0:	6a9000ef          	jal	ra,1988 <LOS_EventRead>
     ae4:	4785                	li	a5,1
     ae6:	fef518e3          	bne	a0,a5,ad6 <thread_WIFI_Start+0x6e>
     aea:	23040513          	addi	a0,s0,560 # 20000230 <g_frame_data>
     aee:	3f2d                	jal	a28 <ProcessFrame>
     af0:	b7dd                	j	ad6 <thread_WIFI_Start+0x6e>
     af2:	00007537          	lui	a0,0x7
     af6:	d0050513          	addi	a0,a0,-768 # 6d00 <_read+0x27a>
     afa:	bf6d                	j	ab4 <thread_WIFI_Start+0x4c>

00000afc <USER_UART_SendString>:
     afc:	f82ff2ef          	jal	t0,27e <__riscv_save_0>
     b00:	84aa                	mv	s1,a0
     b02:	842e                	mv	s0,a1
     b04:	200c                	lbu	a1,0(s0)
     b06:	e199                	bnez	a1,b0c <USER_UART_SendString+0x10>
     b08:	f9aff06f          	j	2a2 <__riscv_restore_0>
     b0c:	8526                	mv	a0,s1
     b0e:	0405                	addi	s0,s0,1
     b10:	2985                	jal	f80 <USART_SendData>
     b12:	08000593          	li	a1,128
     b16:	8526                	mv	a0,s1
     b18:	29a5                	jal	f90 <USART_GetFlagStatus>
     b1a:	dd65                	beqz	a0,b12 <USER_UART_SendString+0x16>
     b1c:	b7e5                	j	b04 <USER_UART_SendString+0x8>

00000b1e <ADC1_2_IRQHandler>:
     b1e:	a001                	j	b1e <ADC1_2_IRQHandler>

00000b20 <handle_reset>:
     b20:	34129073          	csrw	mepc,t0
     b24:	20000197          	auipc	gp,0x20000
     b28:	d8c18193          	addi	gp,gp,-628 # 200008b0 <__global_pointer$>
     b2c:	2000f117          	auipc	sp,0x2000f
     b30:	4d410113          	addi	sp,sp,1236 # 20010000 <_eusrstack>
     b34:	00007517          	auipc	a0,0x7
     b38:	11850513          	addi	a0,a0,280 # 7c4c <_data_lma>
     b3c:	1ffff597          	auipc	a1,0x1ffff
     b40:	4c458593          	addi	a1,a1,1220 # 20000000 <_data_vma>
     b44:	82018613          	addi	a2,gp,-2016 # 200000d0 <_edata>
     b48:	00c5fa63          	bgeu	a1,a2,b5c <handle_reset+0x3c>
     b4c:	00052283          	lw	t0,0(a0)
     b50:	0055a023          	sw	t0,0(a1)
     b54:	0511                	addi	a0,a0,4
     b56:	0591                	addi	a1,a1,4
     b58:	fec5eae3          	bltu	a1,a2,b4c <handle_reset+0x2c>
     b5c:	82018513          	addi	a0,gp,-2016 # 200000d0 <_edata>
     b60:	20008597          	auipc	a1,0x20008
     b64:	c4458593          	addi	a1,a1,-956 # 200087a4 <_ebss>
     b68:	00b57763          	bgeu	a0,a1,b76 <handle_reset+0x56>
     b6c:	00052023          	sw	zero,0(a0)
     b70:	0511                	addi	a0,a0,4
     b72:	feb56de3          	bltu	a0,a1,b6c <handle_reset+0x4c>
     b76:	42fd                	li	t0,31
     b78:	bc029073          	csrw	0xbc0,t0
     b7c:	42fd                	li	t0,31
     b7e:	80429073          	csrw	0x804,t0
     b82:	000082b7          	lui	t0,0x8
     b86:	80028293          	addi	t0,t0,-2048 # 7800 <Font24CN_Table+0x49c>
     b8a:	30029073          	csrw	mstatus,t0
     b8e:	fffff297          	auipc	t0,0xfffff
     b92:	47628293          	addi	t0,t0,1142 # 4 <_einit>
     b96:	0032e293          	ori	t0,t0,3
     b9a:	30529073          	csrw	mtvec,t0
     b9e:	a35ff0ef          	jal	ra,5d2 <SystemInit>
     ba2:	00000297          	auipc	t0,0x0
     ba6:	9d828293          	addi	t0,t0,-1576 # 57a <main>
     baa:	34129073          	csrw	mepc,t0
     bae:	30200073          	mret

00000bb2 <DBGMCU_GetCHIPID>:
     bb2:	1ffff7b7          	lui	a5,0x1ffff
     bb6:	7047a503          	lw	a0,1796(a5) # 1ffff704 <_data_lma+0x1fff7ab8>
     bba:	8082                	ret

00000bbc <GPIO_Init>:
     bbc:	459c                	lw	a5,8(a1)
     bbe:	0107f713          	andi	a4,a5,16
     bc2:	00f7f813          	andi	a6,a5,15
     bc6:	c701                	beqz	a4,bce <GPIO_Init+0x12>
     bc8:	41d8                	lw	a4,4(a1)
     bca:	00e86833          	or	a6,a6,a4
     bce:	218e                	lhu	a1,0(a1)
     bd0:	0ff5f713          	andi	a4,a1,255
     bd4:	c339                	beqz	a4,c1a <GPIO_Init+0x5e>
     bd6:	4118                	lw	a4,0(a0)
     bd8:	4681                	li	a3,0
     bda:	4e85                	li	t4,1
     bdc:	4f3d                	li	t5,15
     bde:	02800f93          	li	t6,40
     be2:	04800293          	li	t0,72
     be6:	4e21                	li	t3,8
     be8:	00de9633          	sll	a2,t4,a3
     bec:	00c5f8b3          	and	a7,a1,a2
     bf0:	03161163          	bne	a2,a7,c12 <GPIO_Init+0x56>
     bf4:	00269893          	slli	a7,a3,0x2
     bf8:	011f1333          	sll	t1,t5,a7
     bfc:	fff34313          	not	t1,t1
     c00:	00e37733          	and	a4,t1,a4
     c04:	011818b3          	sll	a7,a6,a7
     c08:	00e8e733          	or	a4,a7,a4
     c0c:	05f79f63          	bne	a5,t6,c6a <GPIO_Init+0xae>
     c10:	c950                	sw	a2,20(a0)
     c12:	0685                	addi	a3,a3,1
     c14:	fdc69ae3          	bne	a3,t3,be8 <GPIO_Init+0x2c>
     c18:	c118                	sw	a4,0(a0)
     c1a:	0ff00713          	li	a4,255
     c1e:	04b77563          	bgeu	a4,a1,c68 <GPIO_Init+0xac>
     c22:	4154                	lw	a3,4(a0)
     c24:	4621                	li	a2,8
     c26:	4e85                	li	t4,1
     c28:	4f3d                	li	t5,15
     c2a:	02800f93          	li	t6,40
     c2e:	04800293          	li	t0,72
     c32:	4e41                	li	t3,16
     c34:	00ce98b3          	sll	a7,t4,a2
     c38:	0115f733          	and	a4,a1,a7
     c3c:	02e89263          	bne	a7,a4,c60 <GPIO_Init+0xa4>
     c40:	00261713          	slli	a4,a2,0x2
     c44:	1701                	addi	a4,a4,-32
     c46:	00ef1333          	sll	t1,t5,a4
     c4a:	fff34313          	not	t1,t1
     c4e:	00d376b3          	and	a3,t1,a3
     c52:	00e81733          	sll	a4,a6,a4
     c56:	8ed9                	or	a3,a3,a4
     c58:	01f79d63          	bne	a5,t6,c72 <GPIO_Init+0xb6>
     c5c:	01152a23          	sw	a7,20(a0)
     c60:	0605                	addi	a2,a2,1
     c62:	fdc619e3          	bne	a2,t3,c34 <GPIO_Init+0x78>
     c66:	c154                	sw	a3,4(a0)
     c68:	8082                	ret
     c6a:	fa5794e3          	bne	a5,t0,c12 <GPIO_Init+0x56>
     c6e:	c910                	sw	a2,16(a0)
     c70:	b74d                	j	c12 <GPIO_Init+0x56>
     c72:	fe5797e3          	bne	a5,t0,c60 <GPIO_Init+0xa4>
     c76:	01152823          	sw	a7,16(a0)
     c7a:	b7dd                	j	c60 <GPIO_Init+0xa4>

00000c7c <GPIO_ReadInputDataBit>:
     c7c:	4508                	lw	a0,8(a0)
     c7e:	8d6d                	and	a0,a0,a1
     c80:	00a03533          	snez	a0,a0
     c84:	8082                	ret

00000c86 <GPIO_SetBits>:
     c86:	c90c                	sw	a1,16(a0)
     c88:	8082                	ret

00000c8a <GPIO_ResetBits>:
     c8a:	c94c                	sw	a1,20(a0)
     c8c:	8082                	ret

00000c8e <NVIC_PriorityGroupConfig>:
     c8e:	82a1a223          	sw	a0,-2012(gp) # 200000d4 <NVIC_Priority_Group>
     c92:	8082                	ret

00000c94 <NVIC_Init>:
     c94:	8241a703          	lw	a4,-2012(gp) # 200000d4 <NVIC_Priority_Group>
     c98:	4789                	li	a5,2
     c9a:	2110                	lbu	a2,0(a0)
     c9c:	02f71163          	bne	a4,a5,cbe <NVIC_Init+0x2a>
     ca0:	3114                	lbu	a3,1(a0)
     ca2:	478d                	li	a5,3
     ca4:	00d7ed63          	bltu	a5,a3,cbe <NVIC_Init+0x2a>
     ca8:	213c                	lbu	a5,2(a0)
     caa:	069a                	slli	a3,a3,0x6
     cac:	e000e737          	lui	a4,0xe000e
     cb0:	0796                	slli	a5,a5,0x5
     cb2:	8fd5                	or	a5,a5,a3
     cb4:	0ff7f793          	andi	a5,a5,255
     cb8:	9732                	add	a4,a4,a2
     cba:	40f70023          	sb	a5,1024(a4) # e000e400 <_eusrstack+0xbfffe400>
     cbe:	4154                	lw	a3,4(a0)
     cc0:	4705                	li	a4,1
     cc2:	00565793          	srli	a5,a2,0x5
     cc6:	00c71733          	sll	a4,a4,a2
     cca:	ca89                	beqz	a3,cdc <NVIC_Init+0x48>
     ccc:	04078793          	addi	a5,a5,64
     cd0:	078a                	slli	a5,a5,0x2
     cd2:	e000e6b7          	lui	a3,0xe000e
     cd6:	97b6                	add	a5,a5,a3
     cd8:	c398                	sw	a4,0(a5)
     cda:	8082                	ret
     cdc:	06078793          	addi	a5,a5,96
     ce0:	e000e6b7          	lui	a3,0xe000e
     ce4:	078a                	slli	a5,a5,0x2
     ce6:	97b6                	add	a5,a5,a3
     ce8:	c398                	sw	a4,0(a5)
     cea:	0000100f          	fence.i
     cee:	8082                	ret

00000cf0 <RCC_GetClocksFreq>:
     cf0:	40021737          	lui	a4,0x40021
     cf4:	435c                	lw	a5,4(a4)
     cf6:	4691                	li	a3,4
     cf8:	8bb1                	andi	a5,a5,12
     cfa:	00d78563          	beq	a5,a3,d04 <RCC_GetClocksFreq+0x14>
     cfe:	46a1                	li	a3,8
     d00:	06d78463          	beq	a5,a3,d68 <RCC_GetClocksFreq+0x78>
     d04:	007a17b7          	lui	a5,0x7a1
     d08:	20078793          	addi	a5,a5,512 # 7a1200 <_data_lma+0x7995b4>
     d0c:	c11c                	sw	a5,0(a0)
     d0e:	40021637          	lui	a2,0x40021
     d12:	425c                	lw	a5,4(a2)
     d14:	20000737          	lui	a4,0x20000
     d18:	03070713          	addi	a4,a4,48 # 20000030 <APBAHBPrescTable>
     d1c:	8391                	srli	a5,a5,0x4
     d1e:	8bbd                	andi	a5,a5,15
     d20:	97ba                	add	a5,a5,a4
     d22:	2394                	lbu	a3,0(a5)
     d24:	411c                	lw	a5,0(a0)
     d26:	00d7d7b3          	srl	a5,a5,a3
     d2a:	c15c                	sw	a5,4(a0)
     d2c:	4254                	lw	a3,4(a2)
     d2e:	82a1                	srli	a3,a3,0x8
     d30:	8a9d                	andi	a3,a3,7
     d32:	96ba                	add	a3,a3,a4
     d34:	2294                	lbu	a3,0(a3)
     d36:	00d7d6b3          	srl	a3,a5,a3
     d3a:	c514                	sw	a3,8(a0)
     d3c:	4254                	lw	a3,4(a2)
     d3e:	82ad                	srli	a3,a3,0xb
     d40:	8a9d                	andi	a3,a3,7
     d42:	9736                	add	a4,a4,a3
     d44:	2318                	lbu	a4,0(a4)
     d46:	00e7d7b3          	srl	a5,a5,a4
     d4a:	c55c                	sw	a5,12(a0)
     d4c:	4258                	lw	a4,4(a2)
     d4e:	8339                	srli	a4,a4,0xe
     d50:	00377693          	andi	a3,a4,3
     d54:	20000737          	lui	a4,0x20000
     d58:	0b470713          	addi	a4,a4,180 # 200000b4 <ADCPrescTable>
     d5c:	9736                	add	a4,a4,a3
     d5e:	2318                	lbu	a4,0(a4)
     d60:	02e7d7b3          	divu	a5,a5,a4
     d64:	c91c                	sw	a5,16(a0)
     d66:	8082                	ret
     d68:	435c                	lw	a5,4(a4)
     d6a:	4358                	lw	a4,4(a4)
     d6c:	66c1                	lui	a3,0x10
     d6e:	83c9                	srli	a5,a5,0x12
     d70:	8f75                	and	a4,a4,a3
     d72:	1ffff6b7          	lui	a3,0x1ffff
     d76:	70c6a683          	lw	a3,1804(a3) # 1ffff70c <_data_lma+0x1fff7ac0>
     d7a:	8bbd                	andi	a5,a5,15
     d7c:	0789                	addi	a5,a5,2
     d7e:	01169613          	slli	a2,a3,0x11
     d82:	00064863          	bltz	a2,d92 <RCC_GetClocksFreq+0xa2>
     d86:	46c5                	li	a3,17
     d88:	4601                	li	a2,0
     d8a:	02d79263          	bne	a5,a3,dae <RCC_GetClocksFreq+0xbe>
     d8e:	47c9                	li	a5,18
     d90:	a839                	j	dae <RCC_GetClocksFreq+0xbe>
     d92:	4689                	li	a3,2
     d94:	02d78f63          	beq	a5,a3,dd2 <RCC_GetClocksFreq+0xe2>
     d98:	46bd                	li	a3,15
     d9a:	02d78e63          	beq	a5,a3,dd6 <RCC_GetClocksFreq+0xe6>
     d9e:	46c1                	li	a3,16
     da0:	02d78e63          	beq	a5,a3,ddc <RCC_GetClocksFreq+0xec>
     da4:	46c5                	li	a3,17
     da6:	4601                	li	a2,0
     da8:	00d79363          	bne	a5,a3,dae <RCC_GetClocksFreq+0xbe>
     dac:	47c1                	li	a5,16
     dae:	ef1d                	bnez	a4,dec <RCC_GetClocksFreq+0xfc>
     db0:	40024737          	lui	a4,0x40024
     db4:	80072703          	lw	a4,-2048(a4) # 40023800 <_eusrstack+0x20013800>
     db8:	8b41                	andi	a4,a4,16
     dba:	c705                	beqz	a4,de2 <RCC_GetClocksFreq+0xf2>
     dbc:	007a1737          	lui	a4,0x7a1
     dc0:	20070713          	addi	a4,a4,512 # 7a1200 <_data_lma+0x7995b4>
     dc4:	02f707b3          	mul	a5,a4,a5
     dc8:	c11c                	sw	a5,0(a0)
     dca:	d231                	beqz	a2,d0e <RCC_GetClocksFreq+0x1e>
     dcc:	411c                	lw	a5,0(a0)
     dce:	8385                	srli	a5,a5,0x1
     dd0:	bf35                	j	d0c <RCC_GetClocksFreq+0x1c>
     dd2:	4601                	li	a2,0
     dd4:	bf6d                	j	d8e <RCC_GetClocksFreq+0x9e>
     dd6:	4605                	li	a2,1
     dd8:	47b5                	li	a5,13
     dda:	bfd1                	j	dae <RCC_GetClocksFreq+0xbe>
     ddc:	4601                	li	a2,0
     dde:	47bd                	li	a5,15
     de0:	b7f9                	j	dae <RCC_GetClocksFreq+0xbe>
     de2:	003d1737          	lui	a4,0x3d1
     de6:	90070713          	addi	a4,a4,-1792 # 3d0900 <_data_lma+0x3c8cb4>
     dea:	bfe9                	j	dc4 <RCC_GetClocksFreq+0xd4>
     dec:	400215b7          	lui	a1,0x40021
     df0:	55d8                	lw	a4,44(a1)
     df2:	00f71693          	slli	a3,a4,0xf
     df6:	55d8                	lw	a4,44(a1)
     df8:	0406df63          	bgez	a3,e56 <RCC_GetClocksFreq+0x166>
     dfc:	8311                	srli	a4,a4,0x4
     dfe:	8b3d                	andi	a4,a4,15
     e00:	00170693          	addi	a3,a4,1
     e04:	007a1737          	lui	a4,0x7a1
     e08:	20070713          	addi	a4,a4,512 # 7a1200 <_data_lma+0x7995b4>
     e0c:	02d75733          	divu	a4,a4,a3
     e10:	c118                	sw	a4,0(a0)
     e12:	55d4                	lw	a3,44(a1)
     e14:	82a1                	srli	a3,a3,0x8
     e16:	8abd                	andi	a3,a3,15
     e18:	e28d                	bnez	a3,e3a <RCC_GetClocksFreq+0x14a>
     e1a:	4695                	li	a3,5
     e1c:	02d70733          	mul	a4,a4,a3
     e20:	8305                	srli	a4,a4,0x1
     e22:	c118                	sw	a4,0(a0)
     e24:	40021737          	lui	a4,0x40021
     e28:	5758                	lw	a4,44(a4)
     e2a:	4114                	lw	a3,0(a0)
     e2c:	8b3d                	andi	a4,a4,15
     e2e:	0705                	addi	a4,a4,1
     e30:	02e6d733          	divu	a4,a3,a4
     e34:	c118                	sw	a4,0(a0)
     e36:	4118                	lw	a4,0(a0)
     e38:	b771                	j	dc4 <RCC_GetClocksFreq+0xd4>
     e3a:	4585                	li	a1,1
     e3c:	00b69463          	bne	a3,a1,e44 <RCC_GetClocksFreq+0x154>
     e40:	46e5                	li	a3,25
     e42:	bfe9                	j	e1c <RCC_GetClocksFreq+0x12c>
     e44:	45bd                	li	a1,15
     e46:	00b69663          	bne	a3,a1,e52 <RCC_GetClocksFreq+0x162>
     e4a:	46d1                	li	a3,20
     e4c:	02e68733          	mul	a4,a3,a4
     e50:	bfc9                	j	e22 <RCC_GetClocksFreq+0x132>
     e52:	0689                	addi	a3,a3,2
     e54:	bfe5                	j	e4c <RCC_GetClocksFreq+0x15c>
     e56:	8b3d                	andi	a4,a4,15
     e58:	00170693          	addi	a3,a4,1 # 40021001 <_eusrstack+0x20011001>
     e5c:	007a1737          	lui	a4,0x7a1
     e60:	20070713          	addi	a4,a4,512 # 7a1200 <_data_lma+0x7995b4>
     e64:	02d75733          	divu	a4,a4,a3
     e68:	b7f1                	j	e34 <RCC_GetClocksFreq+0x144>

00000e6a <RCC_APB2PeriphClockCmd>:
     e6a:	c599                	beqz	a1,e78 <RCC_APB2PeriphClockCmd+0xe>
     e6c:	40021737          	lui	a4,0x40021
     e70:	4f1c                	lw	a5,24(a4)
     e72:	8d5d                	or	a0,a0,a5
     e74:	cf08                	sw	a0,24(a4)
     e76:	8082                	ret
     e78:	400217b7          	lui	a5,0x40021
     e7c:	4f98                	lw	a4,24(a5)
     e7e:	fff54513          	not	a0,a0
     e82:	8d79                	and	a0,a0,a4
     e84:	cf88                	sw	a0,24(a5)
     e86:	8082                	ret

00000e88 <RCC_APB1PeriphClockCmd>:
     e88:	c599                	beqz	a1,e96 <RCC_APB1PeriphClockCmd+0xe>
     e8a:	40021737          	lui	a4,0x40021
     e8e:	4f5c                	lw	a5,28(a4)
     e90:	8d5d                	or	a0,a0,a5
     e92:	cf48                	sw	a0,28(a4)
     e94:	8082                	ret
     e96:	400217b7          	lui	a5,0x40021
     e9a:	4fd8                	lw	a4,28(a5)
     e9c:	fff54513          	not	a0,a0
     ea0:	8d79                	and	a0,a0,a4
     ea2:	cfc8                	sw	a0,28(a5)
     ea4:	8082                	ret

00000ea6 <USART_Init>:
     ea6:	bd8ff2ef          	jal	t0,27e <__riscv_save_0>
     eaa:	2916                	lhu	a3,16(a0)
     eac:	77f5                	lui	a5,0xffffd
     eae:	17fd                	addi	a5,a5,-1
     eb0:	8ff5                	and	a5,a5,a3
     eb2:	21f6                	lhu	a3,6(a1)
     eb4:	25da                	lhu	a4,12(a1)
     eb6:	7179                	addi	sp,sp,-48
     eb8:	8fd5                	or	a5,a5,a3
     eba:	a91e                	sh	a5,16(a0)
     ebc:	2556                	lhu	a3,12(a0)
     ebe:	77fd                	lui	a5,0xfffff
     ec0:	9f378793          	addi	a5,a5,-1549 # ffffe9f3 <_eusrstack+0xdffee9f3>
     ec4:	8ff5                	and	a5,a5,a3
     ec6:	21d6                	lhu	a3,4(a1)
     ec8:	842a                	mv	s0,a0
     eca:	c62e                	sw	a1,12(sp)
     ecc:	8fd5                	or	a5,a5,a3
     ece:	2596                	lhu	a3,8(a1)
     ed0:	8fd5                	or	a5,a5,a3
     ed2:	25b6                	lhu	a3,10(a1)
     ed4:	8fd5                	or	a5,a5,a3
     ed6:	a55e                	sh	a5,12(a0)
     ed8:	295e                	lhu	a5,20(a0)
     eda:	07c2                	slli	a5,a5,0x10
     edc:	83c1                	srli	a5,a5,0x10
     ede:	cff7f793          	andi	a5,a5,-769
     ee2:	8fd9                	or	a5,a5,a4
     ee4:	a95e                	sh	a5,20(a0)
     ee6:	0868                	addi	a0,sp,28
     ee8:	3521                	jal	cf0 <RCC_GetClocksFreq>
     eea:	400147b7          	lui	a5,0x40014
     eee:	80078793          	addi	a5,a5,-2048 # 40013800 <_eusrstack+0x20003800>
     ef2:	45b2                	lw	a1,12(sp)
     ef4:	02f41e63          	bne	s0,a5,f30 <USART_Init+0x8a>
     ef8:	57a2                	lw	a5,40(sp)
     efa:	4765                	li	a4,25
     efc:	02e787b3          	mul	a5,a5,a4
     f00:	4198                	lw	a4,0(a1)
     f02:	06400693          	li	a3,100
     f06:	070a                	slli	a4,a4,0x2
     f08:	02e7d7b3          	divu	a5,a5,a4
     f0c:	02d7d733          	divu	a4,a5,a3
     f10:	02d7f7b3          	remu	a5,a5,a3
     f14:	0712                	slli	a4,a4,0x4
     f16:	0792                	slli	a5,a5,0x4
     f18:	03278793          	addi	a5,a5,50
     f1c:	02d7d7b3          	divu	a5,a5,a3
     f20:	8bbd                	andi	a5,a5,15
     f22:	8fd9                	or	a5,a5,a4
     f24:	07c2                	slli	a5,a5,0x10
     f26:	83c1                	srli	a5,a5,0x10
     f28:	a41e                	sh	a5,8(s0)
     f2a:	6145                	addi	sp,sp,48
     f2c:	b76ff06f          	j	2a2 <__riscv_restore_0>
     f30:	5792                	lw	a5,36(sp)
     f32:	b7e1                	j	efa <USART_Init+0x54>

00000f34 <USART_Cmd>:
     f34:	c591                	beqz	a1,f40 <USART_Cmd+0xc>
     f36:	255e                	lhu	a5,12(a0)
     f38:	6709                	lui	a4,0x2
     f3a:	8fd9                	or	a5,a5,a4
     f3c:	a55e                	sh	a5,12(a0)
     f3e:	8082                	ret
     f40:	255a                	lhu	a4,12(a0)
     f42:	77f9                	lui	a5,0xffffe
     f44:	17fd                	addi	a5,a5,-1
     f46:	8ff9                	and	a5,a5,a4
     f48:	bfd5                	j	f3c <USART_Cmd+0x8>

00000f4a <USART_ITConfig>:
     f4a:	0ff5f713          	andi	a4,a1,255
     f4e:	4785                	li	a5,1
     f50:	8315                	srli	a4,a4,0x5
     f52:	00b795b3          	sll	a1,a5,a1
     f56:	00f71963          	bne	a4,a5,f68 <USART_ITConfig+0x1e>
     f5a:	00c50793          	addi	a5,a0,12
     f5e:	4398                	lw	a4,0(a5)
     f60:	ce01                	beqz	a2,f78 <USART_ITConfig+0x2e>
     f62:	8dd9                	or	a1,a1,a4
     f64:	c38c                	sw	a1,0(a5)
     f66:	8082                	ret
     f68:	4689                	li	a3,2
     f6a:	01450793          	addi	a5,a0,20
     f6e:	fed718e3          	bne	a4,a3,f5e <USART_ITConfig+0x14>
     f72:	01050793          	addi	a5,a0,16
     f76:	b7e5                	j	f5e <USART_ITConfig+0x14>
     f78:	fff5c593          	not	a1,a1
     f7c:	8df9                	and	a1,a1,a4
     f7e:	b7dd                	j	f64 <USART_ITConfig+0x1a>

00000f80 <USART_SendData>:
     f80:	1ff5f593          	andi	a1,a1,511
     f84:	a14e                	sh	a1,4(a0)
     f86:	8082                	ret

00000f88 <USART_ReceiveData>:
     f88:	214a                	lhu	a0,4(a0)
     f8a:	1ff57513          	andi	a0,a0,511
     f8e:	8082                	ret

00000f90 <USART_GetFlagStatus>:
     f90:	210a                	lhu	a0,0(a0)
     f92:	8d6d                	and	a0,a0,a1
     f94:	00a03533          	snez	a0,a0
     f98:	8082                	ret

00000f9a <USART_GetITStatus>:
     f9a:	0ff5f713          	andi	a4,a1,255
     f9e:	4685                	li	a3,1
     fa0:	8315                	srli	a4,a4,0x5
     fa2:	00b697b3          	sll	a5,a3,a1
     fa6:	02d71163          	bne	a4,a3,fc8 <USART_GetITStatus+0x2e>
     faa:	255a                	lhu	a4,12(a0)
     fac:	8ff9                	and	a5,a5,a4
     fae:	211a                	lhu	a4,0(a0)
     fb0:	4501                	li	a0,0
     fb2:	0742                	slli	a4,a4,0x10
     fb4:	8341                	srli	a4,a4,0x10
     fb6:	cb81                	beqz	a5,fc6 <USART_GetITStatus+0x2c>
     fb8:	4505                	li	a0,1
     fba:	81a1                	srli	a1,a1,0x8
     fbc:	00b515b3          	sll	a1,a0,a1
     fc0:	8f6d                	and	a4,a4,a1
     fc2:	00e03533          	snez	a0,a4
     fc6:	8082                	ret
     fc8:	4689                	li	a3,2
     fca:	00d71463          	bne	a4,a3,fd2 <USART_GetITStatus+0x38>
     fce:	291a                	lhu	a4,16(a0)
     fd0:	bff1                	j	fac <USART_GetITStatus+0x12>
     fd2:	295a                	lhu	a4,20(a0)
     fd4:	bfe1                	j	fac <USART_GetITStatus+0x12>

00000fd6 <USART_ClearITPendingBit>:
     fd6:	81a1                	srli	a1,a1,0x8
     fd8:	4785                	li	a5,1
     fda:	00b797b3          	sll	a5,a5,a1
     fde:	fff7c793          	not	a5,a5
     fe2:	07c2                	slli	a5,a5,0x10
     fe4:	83c1                	srli	a5,a5,0x10
     fe6:	a11e                	sh	a5,0(a0)
     fe8:	8082                	ret

00000fea <OsDoExcHook>:
     fea:	a94ff2ef          	jal	t0,27e <__riscv_save_0>
     fee:	84aa                	mv	s1,a0
     ff0:	9d0ff0ef          	jal	ra,1c0 <HalIntLock>
     ff4:	8281a783          	lw	a5,-2008(gp) # 200000d8 <g_excHook>
     ff8:	842a                	mv	s0,a0
     ffa:	c399                	beqz	a5,1000 <OsDoExcHook+0x16>
     ffc:	8526                	mv	a0,s1
     ffe:	9782                	jalr	a5
    1000:	8522                	mv	a0,s0
    1002:	9daff0ef          	jal	ra,1dc <HalIntRestore>
    1006:	a9cff06f          	j	2a2 <__riscv_restore_0>

0000100a <OsLogLevelCheck>:
    100a:	a74ff2ef          	jal	t0,27e <__riscv_save_0>
    100e:	4789                	li	a5,2
    1010:	4405                	li	s0,1
    1012:	00a7c763          	blt	a5,a0,1020 <OsLogLevelCheck+0x16>
    1016:	1579                	addi	a0,a0,-2
    1018:	478d                	li	a5,3
    101a:	00a7f663          	bgeu	a5,a0,1026 <OsLogLevelCheck+0x1c>
    101e:	4401                	li	s0,0
    1020:	8522                	mv	a0,s0
    1022:	a80ff06f          	j	2a2 <__riscv_restore_0>
    1026:	4505                	li	a0,1
    1028:	37cd                	jal	100a <OsLogLevelCheck>
    102a:	842a                	mv	s0,a0
    102c:	f96d                	bnez	a0,101e <OsLogLevelCheck+0x14>
    102e:	000075b7          	lui	a1,0x7
    1032:	00007537          	lui	a0,0x7
    1036:	d3458593          	addi	a1,a1,-716 # 6d34 <_read+0x2ae>
    103a:	d3850513          	addi	a0,a0,-712 # 6d38 <_read+0x2b2>
    103e:	093040ef          	jal	ra,58d0 <iprintf>
    1042:	bff9                	j	1020 <OsLogLevelCheck+0x16>

00001044 <SecMemcpyError>:
    1044:	04b05d63          	blez	a1,109e <SecMemcpyError+0x5a>
    1048:	87aa                	mv	a5,a0
    104a:	4859                	li	a6,22
    104c:	c939                	beqz	a0,10a2 <SecMemcpyError+0x5e>
    104e:	a30ff2ef          	jal	t0,27e <__riscv_save_0>
    1052:	8732                	mv	a4,a2
    1054:	862e                	mv	a2,a1
    1056:	eb09                	bnez	a4,1068 <SecMemcpyError+0x24>
    1058:	4581                	li	a1,0
    105a:	a54ff0ef          	jal	ra,2ae <memset>
    105e:	09600813          	li	a6,150
    1062:	8542                	mv	a0,a6
    1064:	a3eff06f          	j	2a2 <__riscv_restore_0>
    1068:	00d5f863          	bgeu	a1,a3,1078 <SecMemcpyError+0x34>
    106c:	4581                	li	a1,0
    106e:	a40ff0ef          	jal	ra,2ae <memset>
    1072:	0a200813          	li	a6,162
    1076:	b7f5                	j	1062 <SecMemcpyError+0x1e>
    1078:	00a77663          	bgeu	a4,a0,1084 <SecMemcpyError+0x40>
    107c:	00d705b3          	add	a1,a4,a3
    1080:	00b56863          	bltu	a0,a1,1090 <SecMemcpyError+0x4c>
    1084:	4801                	li	a6,0
    1086:	fce7fee3          	bgeu	a5,a4,1062 <SecMemcpyError+0x1e>
    108a:	96be                	add	a3,a3,a5
    108c:	fcd77be3          	bgeu	a4,a3,1062 <SecMemcpyError+0x1e>
    1090:	4581                	li	a1,0
    1092:	853e                	mv	a0,a5
    1094:	a1aff0ef          	jal	ra,2ae <memset>
    1098:	0b600813          	li	a6,182
    109c:	b7d9                	j	1062 <SecMemcpyError+0x1e>
    109e:	02200813          	li	a6,34
    10a2:	8542                	mv	a0,a6
    10a4:	8082                	ret

000010a6 <memcpy_s>:
    10a6:	9d8ff2ef          	jal	t0,27e <__riscv_save_0>
    10aa:	87b2                	mv	a5,a2
    10ac:	02d5ea63          	bltu	a1,a3,10e0 <memcpy_s+0x3a>
    10b0:	c905                	beqz	a0,10e0 <memcpy_s+0x3a>
    10b2:	c61d                	beqz	a2,10e0 <memcpy_s+0x3a>
    10b4:	0205c663          	bltz	a1,10e0 <memcpy_s+0x3a>
    10b8:	c685                	beqz	a3,10e0 <memcpy_s+0x3a>
    10ba:	00a67663          	bgeu	a2,a0,10c6 <memcpy_s+0x20>
    10be:	00d60733          	add	a4,a2,a3
    10c2:	00e57863          	bgeu	a0,a4,10d2 <memcpy_s+0x2c>
    10c6:	00f57d63          	bgeu	a0,a5,10e0 <memcpy_s+0x3a>
    10ca:	00d50733          	add	a4,a0,a3
    10ce:	00e7e963          	bltu	a5,a4,10e0 <memcpy_s+0x3a>
    10d2:	8636                	mv	a2,a3
    10d4:	85be                	mv	a1,a5
    10d6:	588040ef          	jal	ra,565e <memcpy>
    10da:	4501                	li	a0,0
    10dc:	9c6ff06f          	j	2a2 <__riscv_restore_0>
    10e0:	863e                	mv	a2,a5
    10e2:	378d                	jal	1044 <SecMemcpyError>
    10e4:	bfe5                	j	10dc <memcpy_s+0x36>

000010e6 <memset_s>:
    10e6:	87ae                	mv	a5,a1
    10e8:	0205cc63          	bltz	a1,1120 <memset_s+0x3a>
    10ec:	c505                	beqz	a0,1114 <memset_s+0x2e>
    10ee:	990ff2ef          	jal	t0,27e <__riscv_save_0>
    10f2:	85b2                	mv	a1,a2
    10f4:	1141                	addi	sp,sp,-16
    10f6:	8636                	mv	a2,a3
    10f8:	02d7e763          	bltu	a5,a3,1126 <memset_s+0x40>
    10fc:	000007b7          	lui	a5,0x0
    1100:	2ae78793          	addi	a5,a5,686 # 2ae <memset>
    1104:	c63e                	sw	a5,12(sp)
    1106:	47b2                	lw	a5,12(sp)
    1108:	9782                	jalr	a5
    110a:	4701                	li	a4,0
    110c:	853a                	mv	a0,a4
    110e:	0141                	addi	sp,sp,16
    1110:	992ff06f          	j	2a2 <__riscv_restore_0>
    1114:	02200713          	li	a4,34
    1118:	c191                	beqz	a1,111c <memset_s+0x36>
    111a:	4759                	li	a4,22
    111c:	853a                	mv	a0,a4
    111e:	8082                	ret
    1120:	02200713          	li	a4,34
    1124:	bfe5                	j	111c <memset_s+0x36>
    1126:	02200713          	li	a4,34
    112a:	d3ed                	beqz	a5,110c <memset_s+0x26>
    112c:	863e                	mv	a2,a5
    112e:	980ff0ef          	jal	ra,2ae <memset>
    1132:	0a200713          	li	a4,162
    1136:	bfd9                	j	110c <memset_s+0x26>

00001138 <OsMemMergeNode>:
    1138:	411c                	lw	a5,0(a0)
    113a:	4154                	lw	a3,4(a0)
    113c:	43d8                	lw	a4,4(a5)
    113e:	9736                	add	a4,a4,a3
    1140:	c3d8                	sw	a4,4(a5)
    1142:	4158                	lw	a4,4(a0)
    1144:	953a                	add	a0,a0,a4
    1146:	c11c                	sw	a5,0(a0)
    1148:	8082                	ret

0000114a <OsMemAddrValidCheck>:
    114a:	3ac50713          	addi	a4,a0,940
    114e:	415c                	lw	a5,4(a0)
    1150:	00e5e663          	bltu	a1,a4,115c <OsMemAddrValidCheck+0x12>
    1154:	953e                	add	a0,a0,a5
    1156:	00a5b533          	sltu	a0,a1,a0
    115a:	8082                	ret
    115c:	4501                	li	a0,0
    115e:	8082                	ret

00001160 <OsGetRealPtr>:
    1160:	ffc5a683          	lw	a3,-4(a1)
    1164:	00169793          	slli	a5,a3,0x1
    1168:	0607d063          	bgez	a5,11c8 <OsGetRealPtr+0x68>
    116c:	912ff2ef          	jal	t0,27e <__riscv_save_0>
    1170:	1141                	addi	sp,sp,-16
    1172:	0206d863          	bgez	a3,11a2 <OsGetRealPtr+0x42>
    1176:	4509                	li	a0,2
    1178:	c636                	sw	a3,12(sp)
    117a:	3d41                	jal	100a <OsLogLevelCheck>
    117c:	46b2                	lw	a3,12(sp)
    117e:	c511                	beqz	a0,118a <OsGetRealPtr+0x2a>
    1180:	4581                	li	a1,0
    1182:	852e                	mv	a0,a1
    1184:	0141                	addi	sp,sp,16
    1186:	91cff06f          	j	2a2 <__riscv_restore_0>
    118a:	4ee00613          	li	a2,1262
    118e:	659d                	lui	a1,0x7
    1190:	00007537          	lui	a0,0x7
    1194:	0b458593          	addi	a1,a1,180 # 70b4 <__FUNCTION__.6930>
    1198:	de850513          	addi	a0,a0,-536 # 6de8 <_read+0x362>
    119c:	734040ef          	jal	ra,58d0 <iprintf>
    11a0:	b7c5                	j	1180 <OsGetRealPtr+0x20>
    11a2:	c0000437          	lui	s0,0xc0000
    11a6:	147d                	addi	s0,s0,-1
    11a8:	8c75                	and	s0,s0,a3
    11aa:	8a8d                	andi	a3,a3,3
    11ac:	e699                	bnez	a3,11ba <OsGetRealPtr+0x5a>
    11ae:	40a58533          	sub	a0,a1,a0
    11b2:	1561                	addi	a0,a0,-8
    11b4:	8d81                	sub	a1,a1,s0
    11b6:	fc8576e3          	bgeu	a0,s0,1182 <OsGetRealPtr+0x22>
    11ba:	4509                	li	a0,2
    11bc:	35b9                	jal	100a <OsLogLevelCheck>
    11be:	f169                	bnez	a0,1180 <OsGetRealPtr+0x20>
    11c0:	86a2                	mv	a3,s0
    11c2:	4f600613          	li	a2,1270
    11c6:	b7e1                	j	118e <OsGetRealPtr+0x2e>
    11c8:	852e                	mv	a0,a1
    11ca:	8082                	ret

000011cc <OsMemListDelete>:
    11cc:	00259713          	slli	a4,a1,0x2
    11d0:	972a                	add	a4,a4,a0
    11d2:	5b14                	lw	a3,48(a4)
    11d4:	465c                	lw	a5,12(a2)
    11d6:	02c69463          	bne	a3,a2,11fe <OsMemListDelete+0x32>
    11da:	db1c                	sw	a5,48(a4)
    11dc:	ef91                	bnez	a5,11f8 <OsMemListDelete+0x2c>
    11de:	0055d793          	srli	a5,a1,0x5
    11e2:	078a                	slli	a5,a5,0x2
    11e4:	953e                	add	a0,a0,a5
    11e6:	4785                	li	a5,1
    11e8:	00b797b3          	sll	a5,a5,a1
    11ec:	494c                	lw	a1,20(a0)
    11ee:	fff7c793          	not	a5,a5
    11f2:	8fed                	and	a5,a5,a1
    11f4:	c95c                	sw	a5,20(a0)
    11f6:	8082                	ret
    11f8:	0007a423          	sw	zero,8(a5)
    11fc:	8082                	ret
    11fe:	4618                	lw	a4,8(a2)
    1200:	c75c                	sw	a5,12(a4)
    1202:	c391                	beqz	a5,1206 <OsMemListDelete+0x3a>
    1204:	c798                	sw	a4,8(a5)
    1206:	8082                	ret

00001208 <OsMemIsNodeValid>:
    1208:	02b56363          	bltu	a0,a1,122e <OsMemIsNodeValid+0x26>
    120c:	87aa                	mv	a5,a0
    120e:	4501                	li	a0,0
    1210:	02f66163          	bltu	a2,a5,1232 <OsMemIsNodeValid+0x2a>
    1214:	43d8                	lw	a4,4(a5)
    1216:	4505                	li	a0,1
    1218:	00074d63          	bltz	a4,1232 <OsMemIsNodeValid+0x2a>
    121c:	862ff2ef          	jal	t0,27e <__riscv_save_0>
    1220:	438c                	lw	a1,0(a5)
    1222:	8536                	mv	a0,a3
    1224:	371d                	jal	114a <OsMemAddrValidCheck>
    1226:	00a03533          	snez	a0,a0
    122a:	878ff06f          	j	2a2 <__riscv_restore_0>
    122e:	4501                	li	a0,0
    1230:	8082                	ret
    1232:	8082                	ret

00001234 <OsMemCheckUsedNode>:
    1234:	830ff2ef          	jal	t0,264 <__riscv_save_4>
    1238:	4140                	lw	s0,4(a0)
    123a:	89ae                	mv	s3,a1
    123c:	3ac50b13          	addi	s6,a0,940
    1240:	1461                	addi	s0,s0,-8
    1242:	942a                	add	s0,s0,a0
    1244:	86aa                	mv	a3,a0
    1246:	892a                	mv	s2,a0
    1248:	8622                	mv	a2,s0
    124a:	85da                	mv	a1,s6
    124c:	854e                	mv	a0,s3
    124e:	3f6d                	jal	1208 <OsMemIsNodeValid>
    1250:	4a05                	li	s4,1
    1252:	c921                	beqz	a0,12a2 <OsMemCheckUsedNode+0x6e>
    1254:	0049a483          	lw	s1,4(s3)
    1258:	4a05                	li	s4,1
    125a:	0404d463          	bgez	s1,12a2 <OsMemCheckUsedNode+0x6e>
    125e:	40000ab7          	lui	s5,0x40000
    1262:	1afd                	addi	s5,s5,-1
    1264:	0154f4b3          	and	s1,s1,s5
    1268:	94ce                	add	s1,s1,s3
    126a:	86ca                	mv	a3,s2
    126c:	8622                	mv	a2,s0
    126e:	85da                	mv	a1,s6
    1270:	8526                	mv	a0,s1
    1272:	3f59                	jal	1208 <OsMemIsNodeValid>
    1274:	c51d                	beqz	a0,12a2 <OsMemCheckUsedNode+0x6e>
    1276:	4084                	lw	s1,0(s1)
    1278:	03349563          	bne	s1,s3,12a2 <OsMemCheckUsedNode+0x6e>
    127c:	029b0663          	beq	s6,s1,12a8 <OsMemCheckUsedNode+0x74>
    1280:	0004a983          	lw	s3,0(s1)
    1284:	86ca                	mv	a3,s2
    1286:	8622                	mv	a2,s0
    1288:	85da                	mv	a1,s6
    128a:	854e                	mv	a0,s3
    128c:	3fb5                	jal	1208 <OsMemIsNodeValid>
    128e:	c911                	beqz	a0,12a2 <OsMemCheckUsedNode+0x6e>
    1290:	0049a783          	lw	a5,4(s3)
    1294:	0157fab3          	and	s5,a5,s5
    1298:	99d6                	add	s3,s3,s5
    129a:	413484b3          	sub	s1,s1,s3
    129e:	00903a33          	snez	s4,s1
    12a2:	8552                	mv	a0,s4
    12a4:	ff5fe06f          	j	298 <__riscv_restore_4>
    12a8:	4a01                	li	s4,0
    12aa:	bfe5                	j	12a2 <OsMemCheckUsedNode+0x6e>

000012ac <OsMemSlGet>:
    12ac:	fd3fe2ef          	jal	t0,27e <__riscv_save_0>
    12b0:	47f9                	li	a5,30
    12b2:	1141                	addi	sp,sp,-16
    12b4:	00b7f663          	bgeu	a5,a1,12c0 <OsMemSlGet+0x14>
    12b8:	07f00793          	li	a5,127
    12bc:	02a7e463          	bltu	a5,a0,12e4 <OsMemSlGet+0x38>
    12c0:	c42a                	sw	a0,8(sp)
    12c2:	4509                	li	a0,2
    12c4:	c62e                	sw	a1,12(sp)
    12c6:	3391                	jal	100a <OsLogLevelCheck>
    12c8:	4401                	li	s0,0
    12ca:	4622                	lw	a2,8(sp)
    12cc:	45b2                	lw	a1,12(sp)
    12ce:	e519                	bnez	a0,12dc <OsMemSlGet+0x30>
    12d0:	00007537          	lui	a0,0x7
    12d4:	04c50513          	addi	a0,a0,76 # 704c <_read+0x5c6>
    12d8:	5f8040ef          	jal	ra,58d0 <iprintf>
    12dc:	8522                	mv	a0,s0
    12de:	0141                	addi	sp,sp,16
    12e0:	fc3fe06f          	j	2a2 <__riscv_restore_0>
    12e4:	050e                	slli	a0,a0,0x3
    12e6:	15a1                	addi	a1,a1,-24
    12e8:	00b55533          	srl	a0,a0,a1
    12ec:	ff850413          	addi	s0,a0,-8
    12f0:	b7f5                	j	12dc <OsMemSlGet+0x30>

000012f2 <OsMemFreeListIndexGet>:
    12f2:	f8dfe2ef          	jal	t0,27e <__riscv_save_0>
    12f6:	07f00793          	li	a5,127
    12fa:	84aa                	mv	s1,a0
    12fc:	02a7e163          	bltu	a5,a0,131e <OsMemFreeListIndexGet+0x2c>
    1300:	8109                	srli	a0,a0,0x2
    1302:	157d                	addi	a0,a0,-1
    1304:	47f9                	li	a5,30
    1306:	00a7fa63          	bgeu	a5,a0,131a <OsMemFreeListIndexGet+0x28>
    130a:	547d                	li	s0,-1
    130c:	85a2                	mv	a1,s0
    130e:	8526                	mv	a0,s1
    1310:	3f71                	jal	12ac <OsMemSlGet>
    1312:	1405                	addi	s0,s0,-31
    1314:	040e                	slli	s0,s0,0x3
    1316:	057d                	addi	a0,a0,31
    1318:	9522                	add	a0,a0,s0
    131a:	f89fe06f          	j	2a2 <__riscv_restore_0>
    131e:	075030ef          	jal	ra,4b92 <__clzsi2>
    1322:	447d                	li	s0,31
    1324:	8c09                	sub	s0,s0,a0
    1326:	0442                	slli	s0,s0,0x10
    1328:	8041                	srli	s0,s0,0x10
    132a:	0461                	addi	s0,s0,24
    132c:	b7c5                	j	130c <OsMemFreeListIndexGet+0x1a>

0000132e <OsMemFreeNodeAdd>:
    132e:	f51fe2ef          	jal	t0,27e <__riscv_save_0>
    1332:	842a                	mv	s0,a0
    1334:	41c8                	lw	a0,4(a1)
    1336:	1141                	addi	sp,sp,-16
    1338:	c62e                	sw	a1,12(sp)
    133a:	3f65                	jal	12f2 <OsMemFreeListIndexGet>
    133c:	0de00793          	li	a5,222
    1340:	45b2                	lw	a1,12(sp)
    1342:	00a7f963          	bgeu	a5,a0,1354 <OsMemFreeNodeAdd+0x26>
    1346:	85aa                	mv	a1,a0
    1348:	00007537          	lui	a0,0x7
    134c:	01c50513          	addi	a0,a0,28 # 701c <_read+0x596>
    1350:	7dc000ef          	jal	ra,1b2c <LOS_Panic>
    1354:	00251793          	slli	a5,a0,0x2
    1358:	97a2                	add	a5,a5,s0
    135a:	5b98                	lw	a4,48(a5)
    135c:	c311                	beqz	a4,1360 <OsMemFreeNodeAdd+0x32>
    135e:	c70c                	sw	a1,8(a4)
    1360:	0005a423          	sw	zero,8(a1)
    1364:	c5d8                	sw	a4,12(a1)
    1366:	db8c                	sw	a1,48(a5)
    1368:	00555793          	srli	a5,a0,0x5
    136c:	078a                	slli	a5,a5,0x2
    136e:	943e                	add	s0,s0,a5
    1370:	4785                	li	a5,1
    1372:	00a797b3          	sll	a5,a5,a0
    1376:	4848                	lw	a0,20(s0)
    1378:	8d5d                	or	a0,a0,a5
    137a:	c848                	sw	a0,20(s0)
    137c:	0141                	addi	sp,sp,16
    137e:	f25fe06f          	j	2a2 <__riscv_restore_0>

00001382 <OsMemFreeNodeDelete>:
    1382:	efdfe2ef          	jal	t0,27e <__riscv_save_0>
    1386:	842a                	mv	s0,a0
    1388:	41c8                	lw	a0,4(a1)
    138a:	1141                	addi	sp,sp,-16
    138c:	c62e                	sw	a1,12(sp)
    138e:	3795                	jal	12f2 <OsMemFreeListIndexGet>
    1390:	4632                	lw	a2,12(sp)
    1392:	85aa                	mv	a1,a0
    1394:	8522                	mv	a0,s0
    1396:	3d1d                	jal	11cc <OsMemListDelete>
    1398:	0141                	addi	sp,sp,16
    139a:	f09fe06f          	j	2a2 <__riscv_restore_0>

0000139e <OsMemSplitNode>:
    139e:	ee1fe2ef          	jal	t0,27e <__riscv_save_0>
    13a2:	41dc                	lw	a5,4(a1)
    13a4:	00c584b3          	add	s1,a1,a2
    13a8:	c08c                	sw	a1,0(s1)
    13aa:	8f91                	sub	a5,a5,a2
    13ac:	c0dc                	sw	a5,4(s1)
    13ae:	c1d0                	sw	a2,4(a1)
    13b0:	40c0                	lw	s0,4(s1)
    13b2:	892a                	mv	s2,a0
    13b4:	040a                	slli	s0,s0,0x2
    13b6:	8009                	srli	s0,s0,0x2
    13b8:	9426                	add	s0,s0,s1
    13ba:	405c                	lw	a5,4(s0)
    13bc:	c004                	sw	s1,0(s0)
    13be:	0007c663          	bltz	a5,13ca <OsMemSplitNode+0x2c>
    13c2:	85a2                	mv	a1,s0
    13c4:	3f7d                	jal	1382 <OsMemFreeNodeDelete>
    13c6:	8522                	mv	a0,s0
    13c8:	3b85                	jal	1138 <OsMemMergeNode>
    13ca:	85a6                	mv	a1,s1
    13cc:	854a                	mv	a0,s2
    13ce:	3785                	jal	132e <OsMemFreeNodeAdd>
    13d0:	ed3fe06f          	j	2a2 <__riscv_restore_0>

000013d4 <OsMemFree>:
    13d4:	e91fe2ef          	jal	t0,264 <__riscv_save_4>
    13d8:	892a                	mv	s2,a0
    13da:	84ae                	mv	s1,a1
    13dc:	3da1                	jal	1234 <OsMemCheckUsedNode>
    13de:	89aa                	mv	s3,a0
    13e0:	cd09                	beqz	a0,13fa <OsMemFree+0x26>
    13e2:	4509                	li	a0,2
    13e4:	311d                	jal	100a <OsLogLevelCheck>
    13e6:	e519                	bnez	a0,13f4 <OsMemFree+0x20>
    13e8:	00007537          	lui	a0,0x7
    13ec:	00450513          	addi	a0,a0,4 # 7004 <_read+0x57e>
    13f0:	5fa040ef          	jal	ra,59ea <puts>
    13f4:	854e                	mv	a0,s3
    13f6:	ea3fe06f          	j	298 <__riscv_restore_4>
    13fa:	40dc                	lw	a5,4(s1)
    13fc:	01092703          	lw	a4,16(s2)
    1400:	4080                	lw	s0,0(s1)
    1402:	078a                	slli	a5,a5,0x2
    1404:	8389                	srli	a5,a5,0x2
    1406:	8f1d                	sub	a4,a4,a5
    1408:	00e92823          	sw	a4,16(s2)
    140c:	c0dc                	sw	a5,4(s1)
    140e:	c811                	beqz	s0,1422 <OsMemFree+0x4e>
    1410:	405c                	lw	a5,4(s0)
    1412:	0007c863          	bltz	a5,1422 <OsMemFree+0x4e>
    1416:	85a2                	mv	a1,s0
    1418:	854a                	mv	a0,s2
    141a:	37a5                	jal	1382 <OsMemFreeNodeDelete>
    141c:	8526                	mv	a0,s1
    141e:	3b29                	jal	1138 <OsMemMergeNode>
    1420:	84a2                	mv	s1,s0
    1422:	40c0                	lw	s0,4(s1)
    1424:	040a                	slli	s0,s0,0x2
    1426:	8009                	srli	s0,s0,0x2
    1428:	9426                	add	s0,s0,s1
    142a:	c809                	beqz	s0,143c <OsMemFree+0x68>
    142c:	405c                	lw	a5,4(s0)
    142e:	0007c763          	bltz	a5,143c <OsMemFree+0x68>
    1432:	854a                	mv	a0,s2
    1434:	85a2                	mv	a1,s0
    1436:	37b1                	jal	1382 <OsMemFreeNodeDelete>
    1438:	8522                	mv	a0,s0
    143a:	39fd                	jal	1138 <OsMemMergeNode>
    143c:	85a6                	mv	a1,s1
    143e:	854a                	mv	a0,s2
    1440:	35fd                	jal	132e <OsMemFreeNodeAdd>
    1442:	bf4d                	j	13f4 <OsMemFree+0x20>

00001444 <LOS_MemInit>:
    1444:	e119                	bnez	a0,144a <LOS_MemInit+0x6>
    1446:	557d                	li	a0,-1
    1448:	8082                	ret
    144a:	e1bfe2ef          	jal	t0,264 <__riscv_save_4>
    144e:	3b400913          	li	s2,948
    1452:	02b97463          	bgeu	s2,a1,147a <LOS_MemInit+0x36>
    1456:	00b567b3          	or	a5,a0,a1
    145a:	8b8d                	andi	a5,a5,3
    145c:	842a                	mv	s0,a0
    145e:	84ae                	mv	s1,a1
    1460:	c385                	beqz	a5,1480 <LOS_MemInit+0x3c>
    1462:	4509                	li	a0,2
    1464:	365d                	jal	100a <OsLogLevelCheck>
    1466:	e911                	bnez	a0,147a <LOS_MemInit+0x36>
    1468:	00007537          	lui	a0,0x7
    146c:	4691                	li	a3,4
    146e:	8626                	mv	a2,s1
    1470:	85a2                	mv	a1,s0
    1472:	d8850513          	addi	a0,a0,-632 # 6d88 <_read+0x302>
    1476:	45a040ef          	jal	ra,58d0 <iprintf>
    147a:	557d                	li	a0,-1
    147c:	e1dfe06f          	j	298 <__riscv_restore_4>
    1480:	3ac00693          	li	a3,940
    1484:	4601                	li	a2,0
    1486:	3ac00593          	li	a1,940
    148a:	39b1                	jal	10e6 <memset_s>
    148c:	441c                	lw	a5,8(s0)
    148e:	c044                	sw	s1,4(s0)
    1490:	3ac40993          	addi	s3,s0,940 # c00003ac <_eusrstack+0x9fff03ac>
    1494:	9bf1                	andi	a5,a5,-4
    1496:	c41c                	sw	a5,8(s0)
    1498:	c4c48793          	addi	a5,s1,-948
    149c:	14e1                	addi	s1,s1,-8
    149e:	94a2                	add	s1,s1,s0
    14a0:	3af42823          	sw	a5,944(s0)
    14a4:	8522                	mv	a0,s0
    14a6:	c000                	sw	s0,0(s0)
    14a8:	3a942623          	sw	s1,940(s0)
    14ac:	85ce                	mv	a1,s3
    14ae:	3541                	jal	132e <OsMemFreeNodeAdd>
    14b0:	800007b7          	lui	a5,0x80000
    14b4:	0134a023          	sw	s3,0(s1)
    14b8:	c0dc                	sw	a5,4(s1)
    14ba:	01242823          	sw	s2,16(s0)
    14be:	01242623          	sw	s2,12(s0)
    14c2:	4501                	li	a0,0
    14c4:	bf65                	j	147c <LOS_MemInit+0x38>

000014c6 <LOS_MemFree>:
    14c6:	db9fe2ef          	jal	t0,27e <__riscv_save_0>
    14ca:	1141                	addi	sp,sp,-16
    14cc:	4485                	li	s1,1
    14ce:	cd15                	beqz	a0,150a <LOS_MemFree+0x44>
    14d0:	cd8d                	beqz	a1,150a <LOS_MemFree+0x44>
    14d2:	00b567b3          	or	a5,a0,a1
    14d6:	8b8d                	andi	a5,a5,3
    14d8:	eb8d                	bnez	a5,150a <LOS_MemFree+0x44>
    14da:	451c                	lw	a5,8(a0)
    14dc:	842a                	mv	s0,a0
    14de:	8b89                	andi	a5,a5,2
    14e0:	e791                	bnez	a5,14ec <LOS_MemFree+0x26>
    14e2:	c62e                	sw	a1,12(sp)
    14e4:	cddfe0ef          	jal	ra,1c0 <HalIntLock>
    14e8:	45b2                	lw	a1,12(sp)
    14ea:	892a                	mv	s2,a0
    14ec:	8522                	mv	a0,s0
    14ee:	398d                	jal	1160 <OsGetRealPtr>
    14f0:	4485                	li	s1,1
    14f2:	c511                	beqz	a0,14fe <LOS_MemFree+0x38>
    14f4:	ff850593          	addi	a1,a0,-8
    14f8:	8522                	mv	a0,s0
    14fa:	3de9                	jal	13d4 <OsMemFree>
    14fc:	84aa                	mv	s1,a0
    14fe:	441c                	lw	a5,8(s0)
    1500:	8b89                	andi	a5,a5,2
    1502:	e781                	bnez	a5,150a <LOS_MemFree+0x44>
    1504:	854a                	mv	a0,s2
    1506:	cd7fe0ef          	jal	ra,1dc <HalIntRestore>
    150a:	8526                	mv	a0,s1
    150c:	0141                	addi	sp,sp,16
    150e:	d95fe06f          	j	2a2 <__riscv_restore_0>

00001512 <LOS_MemInfoGet>:
    1512:	d6dfe2ef          	jal	t0,27e <__riscv_save_0>
    1516:	e185                	bnez	a1,1536 <LOS_MemInfoGet+0x24>
    1518:	4509                	li	a0,2
    151a:	af1ff0ef          	jal	ra,100a <OsLogLevelCheck>
    151e:	c509                	beqz	a0,1528 <LOS_MemInfoGet+0x16>
    1520:	4405                	li	s0,1
    1522:	8522                	mv	a0,s0
    1524:	d7ffe06f          	j	2a2 <__riscv_restore_0>
    1528:	00007537          	lui	a0,0x7
    152c:	d4050513          	addi	a0,a0,-704 # 6d40 <_read+0x2ba>
    1530:	4ba040ef          	jal	ra,59ea <puts>
    1534:	b7f5                	j	1520 <LOS_MemInfoGet+0xe>
    1536:	84aa                	mv	s1,a0
    1538:	c501                	beqz	a0,1540 <LOS_MemInfoGet+0x2e>
    153a:	411c                	lw	a5,0(a0)
    153c:	02a78063          	beq	a5,a0,155c <LOS_MemInfoGet+0x4a>
    1540:	4509                	li	a0,2
    1542:	ac9ff0ef          	jal	ra,100a <OsLogLevelCheck>
    1546:	fd69                	bnez	a0,1520 <LOS_MemInfoGet+0xe>
    1548:	00007537          	lui	a0,0x7
    154c:	75f00613          	li	a2,1887
    1550:	85a6                	mv	a1,s1
    1552:	d6450513          	addi	a0,a0,-668 # 6d64 <_read+0x2de>
    1556:	37a040ef          	jal	ra,58d0 <iprintf>
    155a:	b7d9                	j	1520 <LOS_MemInfoGet+0xe>
    155c:	842e                	mv	s0,a1
    155e:	46e1                	li	a3,24
    1560:	4601                	li	a2,0
    1562:	45e1                	li	a1,24
    1564:	8522                	mv	a0,s0
    1566:	3641                	jal	10e6 <memset_s>
    1568:	449c                	lw	a5,8(s1)
    156a:	8b89                	andi	a5,a5,2
    156c:	e781                	bnez	a5,1574 <LOS_MemInfoGet+0x62>
    156e:	c53fe0ef          	jal	ra,1c0 <HalIntLock>
    1572:	892a                	mv	s2,a0
    1574:	40dc                	lw	a5,4(s1)
    1576:	40000637          	lui	a2,0x40000
    157a:	3ac48713          	addi	a4,s1,940
    157e:	17e1                	addi	a5,a5,-8
    1580:	97a6                	add	a5,a5,s1
    1582:	167d                	addi	a2,a2,-1
    1584:	00f76b63          	bltu	a4,a5,159a <LOS_MemInfoGet+0x88>
    1588:	44dc                	lw	a5,12(s1)
    158a:	c85c                	sw	a5,20(s0)
    158c:	4480                	lw	s0,8(s1)
    158e:	8809                	andi	s0,s0,2
    1590:	ec21                	bnez	s0,15e8 <LOS_MemInfoGet+0xd6>
    1592:	854a                	mv	a0,s2
    1594:	c49fe0ef          	jal	ra,1dc <HalIntRestore>
    1598:	b769                	j	1522 <LOS_MemInfoGet+0x10>
    159a:	4354                	lw	a3,4(a4)
    159c:	00c6f5b3          	and	a1,a3,a2
    15a0:	0206cf63          	bltz	a3,15de <LOS_MemInfoGet+0xcc>
    15a4:	86ae                	mv	a3,a1
    15a6:	4885                	li	a7,1
    15a8:	4301                	li	t1,0
    15aa:	4501                	li	a0,0
    15ac:	00042803          	lw	a6,0(s0)
    15b0:	982a                	add	a6,a6,a0
    15b2:	01042023          	sw	a6,0(s0)
    15b6:	00442803          	lw	a6,4(s0)
    15ba:	9836                	add	a6,a6,a3
    15bc:	01042223          	sw	a6,4(s0)
    15c0:	00842803          	lw	a6,8(s0)
    15c4:	00d87363          	bgeu	a6,a3,15ca <LOS_MemInfoGet+0xb8>
    15c8:	8836                	mv	a6,a3
    15ca:	4448                	lw	a0,12(s0)
    15cc:	4814                	lw	a3,16(s0)
    15ce:	01042423          	sw	a6,8(s0)
    15d2:	951a                	add	a0,a0,t1
    15d4:	96c6                	add	a3,a3,a7
    15d6:	c448                	sw	a0,12(s0)
    15d8:	c814                	sw	a3,16(s0)
    15da:	972e                	add	a4,a4,a1
    15dc:	b765                	j	1584 <LOS_MemInfoGet+0x72>
    15de:	852e                	mv	a0,a1
    15e0:	4881                	li	a7,0
    15e2:	4305                	li	t1,1
    15e4:	4681                	li	a3,0
    15e6:	b7d9                	j	15ac <LOS_MemInfoGet+0x9a>
    15e8:	4401                	li	s0,0
    15ea:	bf25                	j	1522 <LOS_MemInfoGet+0x10>

000015ec <OsMemAlloc>:
    15ec:	c79fe2ef          	jal	t0,264 <__riscv_save_4>
    15f0:	05ad                	addi	a1,a1,11
    15f2:	ffc5f913          	andi	s2,a1,-4
    15f6:	07f00793          	li	a5,127
    15fa:	7179                	addi	sp,sp,-48
    15fc:	84aa                	mv	s1,a0
    15fe:	89b2                	mv	s3,a2
    1600:	1127e963          	bltu	a5,s2,1712 <OsMemAlloc+0x126>
    1604:	00295413          	srli	s0,s2,0x2
    1608:	147d                	addi	s0,s0,-1
    160a:	47f9                	li	a5,30
    160c:	0df00a13          	li	s4,223
    1610:	0087fd63          	bgeu	a5,s0,162a <OsMemAlloc+0x3e>
    1614:	547d                	li	s0,-1
    1616:	85a2                	mv	a1,s0
    1618:	854a                	mv	a0,s2
    161a:	1405                	addi	s0,s0,-31
    161c:	3941                	jal	12ac <OsMemSlGet>
    161e:	040e                	slli	s0,s0,0x3
    1620:	942a                	add	s0,s0,a0
    1622:	01f40a13          	addi	s4,s0,31
    1626:	02040413          	addi	s0,s0,32
    162a:	00545793          	srli	a5,s0,0x5
    162e:	0791                	addi	a5,a5,4
    1630:	078a                	slli	a5,a5,0x2
    1632:	97a6                	add	a5,a5,s1
    1634:	43c8                	lw	a0,4(a5)
    1636:	4785                	li	a5,1
    1638:	008797b3          	sll	a5,a5,s0
    163c:	40f007b3          	neg	a5,a5
    1640:	8fe9                	and	a5,a5,a0
    1642:	c38d                	beqz	a5,1664 <OsMemAlloc+0x78>
    1644:	40f00533          	neg	a0,a5
    1648:	8d7d                	and	a0,a0,a5
    164a:	548030ef          	jal	ra,4b92 <__clzsi2>
    164e:	45fd                	li	a1,31
    1650:	8d89                	sub	a1,a1,a0
    1652:	05c2                	slli	a1,a1,0x10
    1654:	81c1                	srli	a1,a1,0x10
    1656:	fe047513          	andi	a0,s0,-32
    165a:	95aa                	add	a1,a1,a0
    165c:	0df00793          	li	a5,223
    1660:	0ef59463          	bne	a1,a5,1748 <OsMemAlloc+0x15c>
    1664:	00140593          	addi	a1,s0,1
    1668:	02040413          	addi	s0,s0,32
    166c:	4781                	li	a5,0
    166e:	0085f363          	bgeu	a1,s0,1674 <OsMemAlloc+0x88>
    1672:	47fd                	li	a5,31
    1674:	95be                	add	a1,a1,a5
    1676:	fe05f413          	andi	s0,a1,-32
    167a:	0de00713          	li	a4,222
    167e:	0a877363          	bgeu	a4,s0,1724 <OsMemAlloc+0x138>
    1682:	0df00793          	li	a5,223
    1686:	00fa0963          	beq	s4,a5,1698 <OsMemAlloc+0xac>
    168a:	00ca0793          	addi	a5,s4,12
    168e:	078a                	slli	a5,a5,0x2
    1690:	97a6                	add	a5,a5,s1
    1692:	4380                	lw	s0,0(a5)
    1694:	10041063          	bnez	s0,1794 <OsMemAlloc+0x1a8>
    1698:	4509                	li	a0,2
    169a:	971ff0ef          	jal	ra,100a <OsLogLevelCheck>
    169e:	e519                	bnez	a0,16ac <OsMemAlloc+0xc0>
    16a0:	00007537          	lui	a0,0x7
    16a4:	e0450513          	addi	a0,a0,-508 # 6e04 <_read+0x37e>
    16a8:	342040ef          	jal	ra,59ea <puts>
    16ac:	449c                	lw	a5,8(s1)
    16ae:	8b89                	andi	a5,a5,2
    16b0:	e781                	bnez	a5,16b8 <OsMemAlloc+0xcc>
    16b2:	854e                	mv	a0,s3
    16b4:	b29fe0ef          	jal	ra,1dc <HalIntRestore>
    16b8:	4661                	li	a2,24
    16ba:	4581                	li	a1,0
    16bc:	0828                	addi	a0,sp,24
    16be:	bf1fe0ef          	jal	ra,2ae <memset>
    16c2:	082c                	addi	a1,sp,24
    16c4:	8526                	mv	a0,s1
    16c6:	35b1                	jal	1512 <LOS_MemInfoGet>
    16c8:	4785                	li	a5,1
    16ca:	0cf51c63          	bne	a0,a5,17a2 <OsMemAlloc+0x1b6>
    16ce:	449c                	lw	a5,8(s1)
    16d0:	8b89                	andi	a5,a5,2
    16d2:	e399                	bnez	a5,16d8 <OsMemAlloc+0xec>
    16d4:	aedfe0ef          	jal	ra,1c0 <HalIntLock>
    16d8:	4509                	li	a0,2
    16da:	931ff0ef          	jal	ra,100a <OsLogLevelCheck>
    16de:	e919                	bnez	a0,16f4 <OsMemAlloc+0x108>
    16e0:	659d                	lui	a1,0x7
    16e2:	00007537          	lui	a0,0x7
    16e6:	864a                	mv	a2,s2
    16e8:	0a858593          	addi	a1,a1,168 # 70a8 <__FUNCTION__.6873>
    16ec:	fc850513          	addi	a0,a0,-56 # 6fc8 <_read+0x542>
    16f0:	1e0040ef          	jal	ra,58d0 <iprintf>
    16f4:	4509                	li	a0,2
    16f6:	915ff0ef          	jal	ra,100a <OsLogLevelCheck>
    16fa:	4401                	li	s0,0
    16fc:	e519                	bnez	a0,170a <OsMemAlloc+0x11e>
    16fe:	00007537          	lui	a0,0x7
    1702:	e0450513          	addi	a0,a0,-508 # 6e04 <_read+0x37e>
    1706:	2e4040ef          	jal	ra,59ea <puts>
    170a:	8522                	mv	a0,s0
    170c:	6145                	addi	sp,sp,48
    170e:	b8bfe06f          	j	298 <__riscv_restore_4>
    1712:	854a                	mv	a0,s2
    1714:	47e030ef          	jal	ra,4b92 <__clzsi2>
    1718:	447d                	li	s0,31
    171a:	8c09                	sub	s0,s0,a0
    171c:	0442                	slli	s0,s0,0x10
    171e:	8041                	srli	s0,s0,0x10
    1720:	0461                	addi	s0,s0,24
    1722:	bdd5                	j	1616 <OsMemAlloc+0x2a>
    1724:	00545793          	srli	a5,s0,0x5
    1728:	0791                	addi	a5,a5,4
    172a:	078a                	slli	a5,a5,0x2
    172c:	97a6                	add	a5,a5,s1
    172e:	43dc                	lw	a5,4(a5)
    1730:	cfb9                	beqz	a5,178e <OsMemAlloc+0x1a2>
    1732:	40f00533          	neg	a0,a5
    1736:	8d7d                	and	a0,a0,a5
    1738:	45a030ef          	jal	ra,4b92 <__clzsi2>
    173c:	47fd                	li	a5,31
    173e:	40a785b3          	sub	a1,a5,a0
    1742:	05c2                	slli	a1,a1,0x10
    1744:	81c1                	srli	a1,a1,0x10
    1746:	95a2                	add	a1,a1,s0
    1748:	00c58793          	addi	a5,a1,12
    174c:	078a                	slli	a5,a5,0x2
    174e:	97a6                	add	a5,a5,s1
    1750:	4380                	lw	s0,0(a5)
    1752:	d039                	beqz	s0,1698 <OsMemAlloc+0xac>
    1754:	8622                	mv	a2,s0
    1756:	8526                	mv	a0,s1
    1758:	a75ff0ef          	jal	ra,11cc <OsMemListDelete>
    175c:	4058                	lw	a4,4(s0)
    175e:	01090793          	addi	a5,s2,16
    1762:	00f76663          	bltu	a4,a5,176e <OsMemAlloc+0x182>
    1766:	864a                	mv	a2,s2
    1768:	85a2                	mv	a1,s0
    176a:	8526                	mv	a0,s1
    176c:	390d                	jal	139e <OsMemSplitNode>
    176e:	405c                	lw	a5,4(s0)
    1770:	80000737          	lui	a4,0x80000
    1774:	8f5d                	or	a4,a4,a5
    1776:	c058                	sw	a4,4(s0)
    1778:	4898                	lw	a4,16(s1)
    177a:	078a                	slli	a5,a5,0x2
    177c:	8389                	srli	a5,a5,0x2
    177e:	97ba                	add	a5,a5,a4
    1780:	44d8                	lw	a4,12(s1)
    1782:	c89c                	sw	a5,16(s1)
    1784:	00f77363          	bgeu	a4,a5,178a <OsMemAlloc+0x19e>
    1788:	c4dc                	sw	a5,12(s1)
    178a:	0421                	addi	s0,s0,8
    178c:	bfbd                	j	170a <OsMemAlloc+0x11e>
    178e:	02040413          	addi	s0,s0,32
    1792:	b5f5                	j	167e <OsMemAlloc+0x92>
    1794:	405c                	lw	a5,4(s0)
    1796:	0127f463          	bgeu	a5,s2,179e <OsMemAlloc+0x1b2>
    179a:	4440                	lw	s0,12(s0)
    179c:	bde5                	j	1694 <OsMemAlloc+0xa8>
    179e:	85d2                	mv	a1,s4
    17a0:	bf55                	j	1754 <OsMemAlloc+0x168>
    17a2:	4505                	li	a0,1
    17a4:	867ff0ef          	jal	ra,100a <OsLogLevelCheck>
    17a8:	e519                	bnez	a0,17b6 <OsMemAlloc+0x1ca>
    17aa:	00007537          	lui	a0,0x7
    17ae:	e7050513          	addi	a0,a0,-400 # 6e70 <_read+0x3ea>
    17b2:	238040ef          	jal	ra,59ea <puts>
    17b6:	4505                	li	a0,1
    17b8:	853ff0ef          	jal	ra,100a <OsLogLevelCheck>
    17bc:	e519                	bnez	a0,17ca <OsMemAlloc+0x1de>
    17be:	00007537          	lui	a0,0x7
    17c2:	ef450513          	addi	a0,a0,-268 # 6ef4 <_read+0x46e>
    17c6:	224040ef          	jal	ra,59ea <puts>
    17ca:	4505                	li	a0,1
    17cc:	83fff0ef          	jal	ra,100a <OsLogLevelCheck>
    17d0:	ee051fe3          	bnez	a0,16ce <OsMemAlloc+0xe2>
    17d4:	57b2                	lw	a5,44(sp)
    17d6:	58a2                	lw	a7,40(sp)
    17d8:	5812                	lw	a6,36(sp)
    17da:	c03e                	sw	a5,0(sp)
    17dc:	4772                	lw	a4,28(sp)
    17de:	5782                	lw	a5,32(sp)
    17e0:	46e2                	lw	a3,24(sp)
    17e2:	40d0                	lw	a2,4(s1)
    17e4:	408c                	lw	a1,0(s1)
    17e6:	00007537          	lui	a0,0x7
    17ea:	f7850513          	addi	a0,a0,-136 # 6f78 <_read+0x4f2>
    17ee:	0e2040ef          	jal	ra,58d0 <iprintf>
    17f2:	bdf1                	j	16ce <OsMemAlloc+0xe2>

000017f4 <LOS_MemAlloc>:
    17f4:	a8bfe2ef          	jal	t0,27e <__riscv_save_0>
    17f8:	1141                	addi	sp,sp,-16
    17fa:	4481                	li	s1,0
    17fc:	c129                	beqz	a0,183e <LOS_MemAlloc+0x4a>
    17fe:	c1a1                	beqz	a1,183e <LOS_MemAlloc+0x4a>
    1800:	47a1                	li	a5,8
    1802:	00f5f363          	bgeu	a1,a5,1808 <LOS_MemAlloc+0x14>
    1806:	45a1                	li	a1,8
    1808:	451c                	lw	a5,8(a0)
    180a:	842a                	mv	s0,a0
    180c:	4901                	li	s2,0
    180e:	8b89                	andi	a5,a5,2
    1810:	e791                	bnez	a5,181c <LOS_MemAlloc+0x28>
    1812:	c62e                	sw	a1,12(sp)
    1814:	9adfe0ef          	jal	ra,1c0 <HalIntLock>
    1818:	45b2                	lw	a1,12(sp)
    181a:	892a                	mv	s2,a0
    181c:	4481                	li	s1,0
    181e:	0005ca63          	bltz	a1,1832 <LOS_MemAlloc+0x3e>
    1822:	00159793          	slli	a5,a1,0x1
    1826:	0007c663          	bltz	a5,1832 <LOS_MemAlloc+0x3e>
    182a:	864a                	mv	a2,s2
    182c:	8522                	mv	a0,s0
    182e:	3b7d                	jal	15ec <OsMemAlloc>
    1830:	84aa                	mv	s1,a0
    1832:	441c                	lw	a5,8(s0)
    1834:	8b89                	andi	a5,a5,2
    1836:	e781                	bnez	a5,183e <LOS_MemAlloc+0x4a>
    1838:	854a                	mv	a0,s2
    183a:	9a3fe0ef          	jal	ra,1dc <HalIntRestore>
    183e:	8526                	mv	a0,s1
    1840:	0141                	addi	sp,sp,16
    1842:	a61fe06f          	j	2a2 <__riscv_restore_0>

00001846 <LOS_MemAllocAlign>:
    1846:	a1ffe2ef          	jal	t0,264 <__riscv_save_4>
    184a:	1141                	addi	sp,sp,-16
    184c:	4401                	li	s0,0
    184e:	c151                	beqz	a0,18d2 <LOS_MemAllocAlign+0x8c>
    1850:	c1c9                	beqz	a1,18d2 <LOS_MemAllocAlign+0x8c>
    1852:	c241                	beqz	a2,18d2 <LOS_MemAllocAlign+0x8c>
    1854:	fff60993          	addi	s3,a2,-1 # 3fffffff <_eusrstack+0x1ffeffff>
    1858:	0039e793          	ori	a5,s3,3
    185c:	8ff1                	and	a5,a5,a2
    185e:	ebb5                	bnez	a5,18d2 <LOS_MemAllocAlign+0x8c>
    1860:	47a1                	li	a5,8
    1862:	00f5f363          	bgeu	a1,a5,1868 <LOS_MemAllocAlign+0x22>
    1866:	45a1                	li	a1,8
    1868:	ffc60793          	addi	a5,a2,-4
    186c:	fff5c713          	not	a4,a1
    1870:	4401                	li	s0,0
    1872:	06f76063          	bltu	a4,a5,18d2 <LOS_MemAllocAlign+0x8c>
    1876:	95be                	add	a1,a1,a5
    1878:	0405cd63          	bltz	a1,18d2 <LOS_MemAllocAlign+0x8c>
    187c:	400004b7          	lui	s1,0x40000
    1880:	8ced                	and	s1,s1,a1
    1882:	e8a1                	bnez	s1,18d2 <LOS_MemAllocAlign+0x8c>
    1884:	451c                	lw	a5,8(a0)
    1886:	8432                	mv	s0,a2
    1888:	892a                	mv	s2,a0
    188a:	8b89                	andi	a5,a5,2
    188c:	e791                	bnez	a5,1898 <LOS_MemAllocAlign+0x52>
    188e:	c62e                	sw	a1,12(sp)
    1890:	931fe0ef          	jal	ra,1c0 <HalIntLock>
    1894:	45b2                	lw	a1,12(sp)
    1896:	84aa                	mv	s1,a0
    1898:	8626                	mv	a2,s1
    189a:	854a                	mv	a0,s2
    189c:	3b81                	jal	15ec <OsMemAlloc>
    189e:	99aa                	add	s3,s3,a0
    18a0:	40800433          	neg	s0,s0
    18a4:	0089f433          	and	s0,s3,s0
    18a8:	00850e63          	beq	a0,s0,18c4 <LOS_MemAllocAlign+0x7e>
    18ac:	ffc52703          	lw	a4,-4(a0)
    18b0:	400006b7          	lui	a3,0x40000
    18b4:	40a407b3          	sub	a5,s0,a0
    18b8:	8f55                	or	a4,a4,a3
    18ba:	fee52e23          	sw	a4,-4(a0)
    18be:	8fd5                	or	a5,a5,a3
    18c0:	fef42e23          	sw	a5,-4(s0)
    18c4:	00892783          	lw	a5,8(s2)
    18c8:	8b89                	andi	a5,a5,2
    18ca:	e781                	bnez	a5,18d2 <LOS_MemAllocAlign+0x8c>
    18cc:	8526                	mv	a0,s1
    18ce:	90ffe0ef          	jal	ra,1dc <HalIntRestore>
    18d2:	8522                	mv	a0,s0
    18d4:	0141                	addi	sp,sp,16
    18d6:	9c3fe06f          	j	298 <__riscv_restore_4>

000018da <OsMemSystemInit>:
    18da:	9a5fe2ef          	jal	t0,27e <__riscv_save_0>
    18de:	20000537          	lui	a0,0x20000
    18e2:	64850793          	addi	a5,a0,1608 # 20000648 <g_memStart>
    18e6:	82c18413          	addi	s0,gp,-2004 # 200000dc <m_aucSysMem0>
    18ea:	65a1                	lui	a1,0x8
    18ec:	64850513          	addi	a0,a0,1608
    18f0:	c01c                	sw	a5,0(s0)
    18f2:	b53ff0ef          	jal	ra,1444 <LOS_MemInit>
    18f6:	84aa                	mv	s1,a0
    18f8:	4511                	li	a0,4
    18fa:	f10ff0ef          	jal	ra,100a <OsLogLevelCheck>
    18fe:	e909                	bnez	a0,1910 <OsMemSystemInit+0x36>
    1900:	400c                	lw	a1,0(s0)
    1902:	00007537          	lui	a0,0x7
    1906:	6621                	lui	a2,0x8
    1908:	07c50513          	addi	a0,a0,124 # 707c <_read+0x5f6>
    190c:	7c5030ef          	jal	ra,58d0 <iprintf>
    1910:	8526                	mv	a0,s1
    1912:	991fe06f          	j	2a2 <__riscv_restore_0>

00001916 <LOS_EventInit>:
    1916:	c909                	beqz	a0,1928 <LOS_EventInit+0x12>
    1918:	00450793          	addi	a5,a0,4
    191c:	00052023          	sw	zero,0(a0)
    1920:	c51c                	sw	a5,8(a0)
    1922:	c15c                	sw	a5,4(a0)
    1924:	4501                	li	a0,0
    1926:	8082                	ret
    1928:	02002537          	lui	a0,0x2002
    192c:	c0650513          	addi	a0,a0,-1018 # 2001c06 <_data_lma+0x1ff9fba>
    1930:	8082                	ret

00001932 <LOS_EventPoll>:
    1932:	933fe2ef          	jal	t0,264 <__riscv_save_4>
    1936:	c521                	beqz	a0,197e <LOS_EventPoll+0x4c>
    1938:	8932                	mv	s2,a2
    193a:	00297413          	andi	s0,s2,2
    193e:	89ae                	mv	s3,a1
    1940:	84aa                	mv	s1,a0
    1942:	87ffe0ef          	jal	ra,1c0 <HalIntLock>
    1946:	c811                	beqz	s0,195a <LOS_EventPoll+0x28>
    1948:	4080                	lw	s0,0(s1)
    194a:	0089f433          	and	s0,s3,s0
    194e:	ec11                	bnez	s0,196a <LOS_EventPoll+0x38>
    1950:	88dfe0ef          	jal	ra,1dc <HalIntRestore>
    1954:	8522                	mv	a0,s0
    1956:	943fe06f          	j	298 <__riscv_restore_4>
    195a:	fe098be3          	beqz	s3,1950 <LOS_EventPoll+0x1e>
    195e:	409c                	lw	a5,0(s1)
    1960:	00f9f7b3          	and	a5,s3,a5
    1964:	ff3796e3          	bne	a5,s3,1950 <LOS_EventPoll+0x1e>
    1968:	843e                	mv	s0,a5
    196a:	00197913          	andi	s2,s2,1
    196e:	fe0901e3          	beqz	s2,1950 <LOS_EventPoll+0x1e>
    1972:	4098                	lw	a4,0(s1)
    1974:	fff44793          	not	a5,s0
    1978:	8ff9                	and	a5,a5,a4
    197a:	c09c                	sw	a5,0(s1)
    197c:	bfd1                	j	1950 <LOS_EventPoll+0x1e>
    197e:	02002437          	lui	s0,0x2002
    1982:	c0640413          	addi	s0,s0,-1018 # 2001c06 <_data_lma+0x1ff9fba>
    1986:	b7f9                	j	1954 <LOS_EventPoll+0x22>

00001988 <LOS_EventRead>:
    1988:	8ddfe2ef          	jal	t0,264 <__riscv_save_4>
    198c:	cd55                	beqz	a0,1a48 <LOS_EventRead+0xc0>
    198e:	451c                	lw	a5,8(a0)
    1990:	c3e9                	beqz	a5,1a52 <LOS_EventRead+0xca>
    1992:	415c                	lw	a5,4(a0)
    1994:	cfdd                	beqz	a5,1a52 <LOS_EventRead+0xca>
    1996:	0c058363          	beqz	a1,1a5c <LOS_EventRead+0xd4>
    199a:	00659793          	slli	a5,a1,0x6
    199e:	0c07c463          	bltz	a5,1a66 <LOS_EventRead+0xde>
    19a2:	00667793          	andi	a5,a2,6
    19a6:	4719                	li	a4,6
    19a8:	0ce78463          	beq	a5,a4,1a70 <LOS_EventRead+0xe8>
    19ac:	ff867713          	andi	a4,a2,-8
    19b0:	e361                	bnez	a4,1a70 <LOS_EventRead+0xe8>
    19b2:	cfdd                	beqz	a5,1a70 <LOS_EventRead+0xe8>
    19b4:	8ab6                	mv	s5,a3
    19b6:	8a32                	mv	s4,a2
    19b8:	892e                	mv	s2,a1
    19ba:	84aa                	mv	s1,a0
    19bc:	53d010ef          	jal	ra,36f8 <HalIsIntActive>
    19c0:	ed4d                	bnez	a0,1a7a <LOS_EventRead+0xf2>
    19c2:	ffefe0ef          	jal	ra,1c0 <HalIntLock>
    19c6:	89aa                	mv	s3,a0
    19c8:	8652                	mv	a2,s4
    19ca:	85ca                	mv	a1,s2
    19cc:	8526                	mv	a0,s1
    19ce:	3795                	jal	1932 <LOS_EventPoll>
    19d0:	842a                	mv	s0,a0
    19d2:	e119                	bnez	a0,19d8 <LOS_EventRead+0x50>
    19d4:	000a9663          	bnez	s5,19e0 <LOS_EventRead+0x58>
    19d8:	854e                	mv	a0,s3
    19da:	803fe0ef          	jal	ra,1dc <HalIntRestore>
    19de:	a819                	j	19f4 <LOS_EventRead+0x6c>
    19e0:	8b41d783          	lhu	a5,-1868(gp) # 20000164 <g_losTaskLock>
    19e4:	cb99                	beqz	a5,19fa <LOS_EventRead+0x72>
    19e6:	854e                	mv	a0,s3
    19e8:	02002437          	lui	s0,0x2002
    19ec:	ff0fe0ef          	jal	ra,1dc <HalIntRestore>
    19f0:	c0540413          	addi	s0,s0,-1019 # 2001c05 <_data_lma+0x1ff9fb9>
    19f4:	8522                	mv	a0,s0
    19f6:	8a3fe06f          	j	298 <__riscv_restore_4>
    19fa:	8ac1a403          	lw	s0,-1876(gp) # 2000015c <g_losTask>
    19fe:	85d6                	mv	a1,s5
    1a00:	00448513          	addi	a0,s1,4 # 40000004 <_eusrstack+0x1fff0004>
    1a04:	07242223          	sw	s2,100(s0)
    1a08:	07442423          	sw	s4,104(s0)
    1a0c:	347000ef          	jal	ra,2552 <OsSchedTaskWait>
    1a10:	854e                	mv	a0,s3
    1a12:	fcafe0ef          	jal	ra,1dc <HalIntRestore>
    1a16:	6df000ef          	jal	ra,28f4 <LOS_Schedule>
    1a1a:	fa6fe0ef          	jal	ra,1c0 <HalIntLock>
    1a1e:	205e                	lhu	a5,4(s0)
    1a20:	89aa                	mv	s3,a0
    1a22:	0407f713          	andi	a4,a5,64
    1a26:	cb19                	beqz	a4,1a3c <LOS_EventRead+0xb4>
    1a28:	fbf7f793          	andi	a5,a5,-65
    1a2c:	a05e                	sh	a5,4(s0)
    1a2e:	02002437          	lui	s0,0x2002
    1a32:	faafe0ef          	jal	ra,1dc <HalIntRestore>
    1a36:	c0140413          	addi	s0,s0,-1023 # 2001c01 <_data_lma+0x1ff9fb5>
    1a3a:	bf6d                	j	19f4 <LOS_EventRead+0x6c>
    1a3c:	8652                	mv	a2,s4
    1a3e:	85ca                	mv	a1,s2
    1a40:	8526                	mv	a0,s1
    1a42:	3dc5                	jal	1932 <LOS_EventPoll>
    1a44:	842a                	mv	s0,a0
    1a46:	bf49                	j	19d8 <LOS_EventRead+0x50>
    1a48:	02002437          	lui	s0,0x2002
    1a4c:	c0640413          	addi	s0,s0,-1018 # 2001c06 <_data_lma+0x1ff9fba>
    1a50:	b755                	j	19f4 <LOS_EventRead+0x6c>
    1a52:	02002437          	lui	s0,0x2002
    1a56:	c0740413          	addi	s0,s0,-1017 # 2001c07 <_data_lma+0x1ff9fbb>
    1a5a:	bf69                	j	19f4 <LOS_EventRead+0x6c>
    1a5c:	02002437          	lui	s0,0x2002
    1a60:	c0240413          	addi	s0,s0,-1022 # 2001c02 <_data_lma+0x1ff9fb6>
    1a64:	bf41                	j	19f4 <LOS_EventRead+0x6c>
    1a66:	02002437          	lui	s0,0x2002
    1a6a:	c0040413          	addi	s0,s0,-1024 # 2001c00 <_data_lma+0x1ff9fb4>
    1a6e:	b759                	j	19f4 <LOS_EventRead+0x6c>
    1a70:	02002437          	lui	s0,0x2002
    1a74:	c0440413          	addi	s0,s0,-1020 # 2001c04 <_data_lma+0x1ff9fb8>
    1a78:	bfb5                	j	19f4 <LOS_EventRead+0x6c>
    1a7a:	02002437          	lui	s0,0x2002
    1a7e:	c0340413          	addi	s0,s0,-1021 # 2001c03 <_data_lma+0x1ff9fb7>
    1a82:	bf8d                	j	19f4 <LOS_EventRead+0x6c>

00001a84 <LOS_EventWrite>:
    1a84:	fe0fe2ef          	jal	t0,264 <__riscv_save_4>
    1a88:	c159                	beqz	a0,1b0e <LOS_EventWrite+0x8a>
    1a8a:	451c                	lw	a5,8(a0)
    1a8c:	c7d1                	beqz	a5,1b18 <LOS_EventWrite+0x94>
    1a8e:	415c                	lw	a5,4(a0)
    1a90:	c7c1                	beqz	a5,1b18 <LOS_EventWrite+0x94>
    1a92:	02000437          	lui	s0,0x2000
    1a96:	8c6d                	and	s0,s0,a1
    1a98:	e449                	bnez	s0,1b22 <LOS_EventWrite+0x9e>
    1a9a:	84aa                	mv	s1,a0
    1a9c:	892e                	mv	s2,a1
    1a9e:	f22fe0ef          	jal	ra,1c0 <HalIntLock>
    1aa2:	409c                	lw	a5,0(s1)
    1aa4:	8a2a                	mv	s4,a0
    1aa6:	4488                	lw	a0,8(s1)
    1aa8:	0127e7b3          	or	a5,a5,s2
    1aac:	c09c                	sw	a5,0(s1)
    1aae:	00448a93          	addi	s5,s1,4
    1ab2:	04aa8a63          	beq	s5,a0,1b06 <LOS_EventWrite+0x82>
    1ab6:	fb850513          	addi	a0,a0,-72
    1aba:	4681                	li	a3,0
    1abc:	04850793          	addi	a5,a0,72
    1ac0:	00fa9b63          	bne	s5,a5,1ad6 <LOS_EventWrite+0x52>
    1ac4:	c2a9                	beqz	a3,1b06 <LOS_EventWrite+0x82>
    1ac6:	8552                	mv	a0,s4
    1ac8:	f14fe0ef          	jal	ra,1dc <HalIntRestore>
    1acc:	629000ef          	jal	ra,28f4 <LOS_Schedule>
    1ad0:	8522                	mv	a0,s0
    1ad2:	fc6fe06f          	j	298 <__riscv_restore_4>
    1ad6:	553c                	lw	a5,104(a0)
    1ad8:	04c52983          	lw	s3,76(a0)
    1adc:	0027f713          	andi	a4,a5,2
    1ae0:	fb898993          	addi	s3,s3,-72
    1ae4:	c709                	beqz	a4,1aee <LOS_EventWrite+0x6a>
    1ae6:	5178                	lw	a4,100(a0)
    1ae8:	00e97733          	and	a4,s2,a4
    1aec:	eb01                	bnez	a4,1afc <LOS_EventWrite+0x78>
    1aee:	8b91                	andi	a5,a5,4
    1af0:	cb89                	beqz	a5,1b02 <LOS_EventWrite+0x7e>
    1af2:	5178                	lw	a4,100(a0)
    1af4:	409c                	lw	a5,0(s1)
    1af6:	8ff9                	and	a5,a5,a4
    1af8:	00f71563          	bne	a4,a5,1b02 <LOS_EventWrite+0x7e>
    1afc:	283000ef          	jal	ra,257e <OsSchedTaskWake>
    1b00:	4685                	li	a3,1
    1b02:	854e                	mv	a0,s3
    1b04:	bf65                	j	1abc <LOS_EventWrite+0x38>
    1b06:	8552                	mv	a0,s4
    1b08:	ed4fe0ef          	jal	ra,1dc <HalIntRestore>
    1b0c:	b7d1                	j	1ad0 <LOS_EventWrite+0x4c>
    1b0e:	02002437          	lui	s0,0x2002
    1b12:	c0640413          	addi	s0,s0,-1018 # 2001c06 <_data_lma+0x1ff9fba>
    1b16:	bf6d                	j	1ad0 <LOS_EventWrite+0x4c>
    1b18:	02002437          	lui	s0,0x2002
    1b1c:	c0740413          	addi	s0,s0,-1017 # 2001c07 <_data_lma+0x1ff9fbb>
    1b20:	bf45                	j	1ad0 <LOS_EventWrite+0x4c>
    1b22:	02002437          	lui	s0,0x2002
    1b26:	c0040413          	addi	s0,s0,-1024 # 2001c00 <_data_lma+0x1ff9fb4>
    1b2a:	b75d                	j	1ad0 <LOS_EventWrite+0x4c>

00001b2c <LOS_Panic>:
    1b2c:	7139                	addi	sp,sp,-64
    1b2e:	cc22                	sw	s0,24(sp)
    1b30:	da3e                	sw	a5,52(sp)
    1b32:	842a                	mv	s0,a0
    1b34:	105c                	addi	a5,sp,36
    1b36:	4509                	li	a0,2
    1b38:	ce06                	sw	ra,28(sp)
    1b3a:	d22e                	sw	a1,36(sp)
    1b3c:	d432                	sw	a2,40(sp)
    1b3e:	d636                	sw	a3,44(sp)
    1b40:	d83a                	sw	a4,48(sp)
    1b42:	dc42                	sw	a6,56(sp)
    1b44:	de46                	sw	a7,60(sp)
    1b46:	c63e                	sw	a5,12(sp)
    1b48:	cc2ff0ef          	jal	ra,100a <OsLogLevelCheck>
    1b4c:	e509                	bnez	a0,1b56 <LOS_Panic+0x2a>
    1b4e:	45b2                	lw	a1,12(sp)
    1b50:	8522                	mv	a0,s0
    1b52:	57f030ef          	jal	ra,58d0 <iprintf>
    1b56:	22d010ef          	jal	ra,3582 <HalSysExit>

00001b5a <LOS_Start>:
    1b5a:	f24fe2ef          	jal	t0,27e <__riscv_save_0>
    1b5e:	00003537          	lui	a0,0x3
    1b62:	55050513          	addi	a0,a0,1360 # 3550 <OsTickHandler>
    1b66:	283010ef          	jal	ra,35e8 <HalStartSchedule>
    1b6a:	f38fe06f          	j	2a2 <__riscv_restore_0>

00001b6e <LOS_KernelInit>:
    1b6e:	f10fe2ef          	jal	t0,27e <__riscv_save_0>
    1b72:	4505                	li	a0,1
    1b74:	c96ff0ef          	jal	ra,100a <OsLogLevelCheck>
    1b78:	e519                	bnez	a0,1b86 <LOS_KernelInit+0x18>
    1b7a:	00007537          	lui	a0,0x7
    1b7e:	0c450513          	addi	a0,a0,196 # 70c4 <__FUNCTION__.6930+0x10>
    1b82:	669030ef          	jal	ra,59ea <puts>
    1b86:	4735                	li	a4,13
    1b88:	8ce1a023          	sw	a4,-1856(gp) # 20000170 <g_taskMaxNum>
    1b8c:	33b9                	jal	18da <OsMemSystemInit>
    1b8e:	842a                	mv	s0,a0
    1b90:	cd19                	beqz	a0,1bae <LOS_KernelInit+0x40>
    1b92:	4509                	li	a0,2
    1b94:	c76ff0ef          	jal	ra,100a <OsLogLevelCheck>
    1b98:	e901                	bnez	a0,1ba8 <LOS_KernelInit+0x3a>
    1b9a:	00007537          	lui	a0,0x7
    1b9e:	85a2                	mv	a1,s0
    1ba0:	0dc50513          	addi	a0,a0,220 # 70dc <__FUNCTION__.6930+0x28>
    1ba4:	52d030ef          	jal	ra,58d0 <iprintf>
    1ba8:	8522                	mv	a0,s0
    1baa:	ef8fe06f          	j	2a2 <__riscv_restore_0>
    1bae:	1df010ef          	jal	ra,358c <HalArchInit>
    1bb2:	4ae010ef          	jal	ra,3060 <OsTaskInit>
    1bb6:	842a                	mv	s0,a0
    1bb8:	cd01                	beqz	a0,1bd0 <LOS_KernelInit+0x62>
    1bba:	4509                	li	a0,2
    1bbc:	c4eff0ef          	jal	ra,100a <OsLogLevelCheck>
    1bc0:	f565                	bnez	a0,1ba8 <LOS_KernelInit+0x3a>
    1bc2:	00007537          	lui	a0,0x7
    1bc6:	0f850513          	addi	a0,a0,248 # 70f8 <__FUNCTION__.6930+0x44>
    1bca:	621030ef          	jal	ra,59ea <puts>
    1bce:	bfe9                	j	1ba8 <LOS_KernelInit+0x3a>
    1bd0:	53f000ef          	jal	ra,290e <OsSemInit>
    1bd4:	842a                	mv	s0,a0
    1bd6:	f969                	bnez	a0,1ba8 <LOS_KernelInit+0x3a>
    1bd8:	28a9                	jal	1c32 <OsMuxInit>
    1bda:	842a                	mv	s0,a0
    1bdc:	f571                	bnez	a0,1ba8 <LOS_KernelInit+0x3a>
    1bde:	2065                	jal	1c86 <OsQueueInit>
    1be0:	842a                	mv	s0,a0
    1be2:	c911                	beqz	a0,1bf6 <LOS_KernelInit+0x88>
    1be4:	4509                	li	a0,2
    1be6:	c24ff0ef          	jal	ra,100a <OsLogLevelCheck>
    1bea:	fd5d                	bnez	a0,1ba8 <LOS_KernelInit+0x3a>
    1bec:	00007537          	lui	a0,0x7
    1bf0:	10c50513          	addi	a0,a0,268 # 710c <__FUNCTION__.6930+0x58>
    1bf4:	bfd9                	j	1bca <LOS_KernelInit+0x5c>
    1bf6:	31e010ef          	jal	ra,2f14 <OsSwtmrInit>
    1bfa:	842a                	mv	s0,a0
    1bfc:	c911                	beqz	a0,1c10 <LOS_KernelInit+0xa2>
    1bfe:	4509                	li	a0,2
    1c00:	c0aff0ef          	jal	ra,100a <OsLogLevelCheck>
    1c04:	f155                	bnez	a0,1ba8 <LOS_KernelInit+0x3a>
    1c06:	00007537          	lui	a0,0x7
    1c0a:	12050513          	addi	a0,a0,288 # 7120 <__FUNCTION__.6930+0x6c>
    1c0e:	bf75                	j	1bca <LOS_KernelInit+0x5c>
    1c10:	68e010ef          	jal	ra,329e <OsIdleTaskCreate>
    1c14:	842a                	mv	s0,a0
    1c16:	f949                	bnez	a0,1ba8 <LOS_KernelInit+0x3a>
    1c18:	7df010ef          	jal	ra,3bf6 <OsPmInit>
    1c1c:	842a                	mv	s0,a0
    1c1e:	d549                	beqz	a0,1ba8 <LOS_KernelInit+0x3a>
    1c20:	4509                	li	a0,2
    1c22:	be8ff0ef          	jal	ra,100a <OsLogLevelCheck>
    1c26:	f149                	bnez	a0,1ba8 <LOS_KernelInit+0x3a>
    1c28:	00007537          	lui	a0,0x7
    1c2c:	13450513          	addi	a0,a0,308 # 7134 <__FUNCTION__.6930+0x80>
    1c30:	bf69                	j	1bca <LOS_KernelInit+0x5c>

00001c32 <OsMuxInit>:
    1c32:	e4cfe2ef          	jal	t0,27e <__riscv_save_0>
    1c36:	83418793          	addi	a5,gp,-1996 # 200000e4 <g_unusedMuxList>
    1c3a:	c3dc                	sw	a5,4(a5)
    1c3c:	c39c                	sw	a5,0(a5)
    1c3e:	82c1a503          	lw	a0,-2004(gp) # 200000dc <m_aucSysMem0>
    1c42:	0f000593          	li	a1,240
    1c46:	bafff0ef          	jal	ra,17f4 <LOS_MemAlloc>
    1c4a:	82a1a823          	sw	a0,-2000(gp) # 200000e0 <g_allMux>
    1c4e:	c51d                	beqz	a0,1c7c <OsMuxInit+0x4a>
    1c50:	83418413          	addi	s0,gp,-1996 # 200000e4 <g_unusedMuxList>
    1c54:	0521                	addi	a0,a0,8
    1c56:	4781                	li	a5,0
    1c58:	4629                	li	a2,10
    1c5a:	fe050c23          	sb	zero,-8(a0)
    1c5e:	4018                	lw	a4,0(s0)
    1c60:	fef52e23          	sw	a5,-4(a0)
    1c64:	0785                	addi	a5,a5,1
    1c66:	4354                	lw	a3,4(a4)
    1c68:	c118                	sw	a4,0(a0)
    1c6a:	c154                	sw	a3,4(a0)
    1c6c:	c288                	sw	a0,0(a3)
    1c6e:	c348                	sw	a0,4(a4)
    1c70:	0561                	addi	a0,a0,24
    1c72:	fec794e3          	bne	a5,a2,1c5a <OsMuxInit+0x28>
    1c76:	4501                	li	a0,0
    1c78:	e2afe06f          	j	2a2 <__riscv_restore_0>
    1c7c:	02002537          	lui	a0,0x2002
    1c80:	d0050513          	addi	a0,a0,-768 # 2001d00 <_data_lma+0x1ffa0b4>
    1c84:	bfd5                	j	1c78 <OsMuxInit+0x46>

00001c86 <OsQueueInit>:
    1c86:	df8fe2ef          	jal	t0,27e <__riscv_save_0>
    1c8a:	82c1a503          	lw	a0,-2004(gp) # 200000dc <m_aucSysMem0>
    1c8e:	10800593          	li	a1,264
    1c92:	b63ff0ef          	jal	ra,17f4 <LOS_MemAlloc>
    1c96:	83c18413          	addi	s0,gp,-1988 # 200000ec <g_allQueue>
    1c9a:	c008                	sw	a0,0(s0)
    1c9c:	c521                	beqz	a0,1ce4 <OsQueueInit+0x5e>
    1c9e:	10800693          	li	a3,264
    1ca2:	4601                	li	a2,0
    1ca4:	10800593          	li	a1,264
    1ca8:	c3eff0ef          	jal	ra,10e6 <memset_s>
    1cac:	84018793          	addi	a5,gp,-1984 # 200000f0 <g_freeQueueList>
    1cb0:	c3dc                	sw	a5,4(a5)
    1cb2:	c39c                	sw	a5,0(a5)
    1cb4:	401c                	lw	a5,0(s0)
    1cb6:	4701                	li	a4,0
    1cb8:	84018693          	addi	a3,gp,-1984 # 200000f0 <g_freeQueueList>
    1cbc:	07f1                	addi	a5,a5,28
    1cbe:	4519                	li	a0,6
    1cc0:	4290                	lw	a2,0(a3)
    1cc2:	fee79723          	sh	a4,-18(a5) # 7fffffee <_eusrstack+0x5ffeffee>
    1cc6:	0705                	addi	a4,a4,1
    1cc8:	424c                	lw	a1,4(a2)
    1cca:	c390                	sw	a2,0(a5)
    1ccc:	0742                	slli	a4,a4,0x10
    1cce:	c3cc                	sw	a1,4(a5)
    1cd0:	c19c                	sw	a5,0(a1)
    1cd2:	c25c                	sw	a5,4(a2)
    1cd4:	8341                	srli	a4,a4,0x10
    1cd6:	02c78793          	addi	a5,a5,44
    1cda:	fea713e3          	bne	a4,a0,1cc0 <OsQueueInit+0x3a>
    1cde:	4501                	li	a0,0
    1ce0:	dc2fe06f          	j	2a2 <__riscv_restore_0>
    1ce4:	02000537          	lui	a0,0x2000
    1ce8:	60150513          	addi	a0,a0,1537 # 2000601 <_data_lma+0x1ff89b5>
    1cec:	bfd5                	j	1ce0 <OsQueueInit+0x5a>

00001cee <LOS_QueueCreate>:
    1cee:	c645                	beqz	a2,1d96 <LOS_QueueCreate+0xa8>
    1cf0:	67c1                	lui	a5,0x10
    1cf2:	17ed                	addi	a5,a5,-5
    1cf4:	0ae7e663          	bltu	a5,a4,1da0 <LOS_QueueCreate+0xb2>
    1cf8:	c9cd                	beqz	a1,1daa <LOS_QueueCreate+0xbc>
    1cfa:	cb45                	beqz	a4,1daa <LOS_QueueCreate+0xbc>
    1cfc:	d68fe2ef          	jal	t0,264 <__riscv_save_4>
    1d00:	0711                	addi	a4,a4,4
    1d02:	01071493          	slli	s1,a4,0x10
    1d06:	80c1                	srli	s1,s1,0x10
    1d08:	892e                	mv	s2,a1
    1d0a:	029585b3          	mul	a1,a1,s1
    1d0e:	82c1a503          	lw	a0,-2004(gp) # 200000dc <m_aucSysMem0>
    1d12:	89b2                	mv	s3,a2
    1d14:	ae1ff0ef          	jal	ra,17f4 <LOS_MemAlloc>
    1d18:	8a2a                	mv	s4,a0
    1d1a:	cd49                	beqz	a0,1db4 <LOS_QueueCreate+0xc6>
    1d1c:	ca4fe0ef          	jal	ra,1c0 <HalIntLock>
    1d20:	84018793          	addi	a5,gp,-1984 # 200000f0 <g_freeQueueList>
    1d24:	43c0                	lw	s0,4(a5)
    1d26:	00f41f63          	bne	s0,a5,1d44 <LOS_QueueCreate+0x56>
    1d2a:	cb2fe0ef          	jal	ra,1dc <HalIntRestore>
    1d2e:	82c1a503          	lw	a0,-2004(gp) # 200000dc <m_aucSysMem0>
    1d32:	85d2                	mv	a1,s4
    1d34:	f92ff0ef          	jal	ra,14c6 <LOS_MemFree>
    1d38:	02000537          	lui	a0,0x2000
    1d3c:	60450513          	addi	a0,a0,1540 # 2000604 <_data_lma+0x1ff89b8>
    1d40:	d58fe06f          	j	298 <__riscv_restore_4>
    1d44:	401c                	lw	a5,0(s0)
    1d46:	4058                	lw	a4,4(s0)
    1d48:	c31c                	sw	a5,0(a4)
    1d4a:	c3d8                	sw	a4,4(a5)
    1d4c:	4785                	li	a5,1
    1d4e:	fef41423          	sh	a5,-24(s0)
    1d52:	ff840793          	addi	a5,s0,-8
    1d56:	fef42e23          	sw	a5,-4(s0)
    1d5a:	fef42c23          	sw	a5,-8(s0)
    1d5e:	00840793          	addi	a5,s0,8
    1d62:	c45c                	sw	a5,12(s0)
    1d64:	c41c                	sw	a5,8(s0)
    1d66:	ff241523          	sh	s2,-22(s0)
    1d6a:	fe941623          	sh	s1,-20(s0)
    1d6e:	ff442223          	sw	s4,-28(s0)
    1d72:	fe041a23          	sh	zero,-12(s0)
    1d76:	ff241b23          	sh	s2,-10(s0)
    1d7a:	fe041823          	sh	zero,-16(s0)
    1d7e:	fe041923          	sh	zero,-14(s0)
    1d82:	c040                	sw	s0,4(s0)
    1d84:	c000                	sw	s0,0(s0)
    1d86:	c56fe0ef          	jal	ra,1dc <HalIntRestore>
    1d8a:	fee45783          	lhu	a5,-18(s0)
    1d8e:	4501                	li	a0,0
    1d90:	00f9a023          	sw	a5,0(s3)
    1d94:	b775                	j	1d40 <LOS_QueueCreate+0x52>
    1d96:	02000537          	lui	a0,0x2000
    1d9a:	60c50513          	addi	a0,a0,1548 # 200060c <_data_lma+0x1ff89c0>
    1d9e:	8082                	ret
    1da0:	02000537          	lui	a0,0x2000
    1da4:	60350513          	addi	a0,a0,1539 # 2000603 <_data_lma+0x1ff89b7>
    1da8:	8082                	ret
    1daa:	02000537          	lui	a0,0x2000
    1dae:	60d50513          	addi	a0,a0,1549 # 200060d <_data_lma+0x1ff89c1>
    1db2:	8082                	ret
    1db4:	02000537          	lui	a0,0x2000
    1db8:	60250513          	addi	a0,a0,1538 # 2000602 <_data_lma+0x1ff89b6>
    1dbc:	b751                	j	1d40 <LOS_QueueCreate+0x52>

00001dbe <OsQueueOperate>:
    1dbe:	ca6fe2ef          	jal	t0,264 <__riscv_save_4>
    1dc2:	1141                	addi	sp,sp,-16
    1dc4:	842a                	mv	s0,a0
    1dc6:	892e                	mv	s2,a1
    1dc8:	8ab2                	mv	s5,a2
    1dca:	89b6                	mv	s3,a3
    1dcc:	c63a                	sw	a4,12(sp)
    1dce:	0015fa13          	andi	s4,a1,1
    1dd2:	beefe0ef          	jal	ra,1c0 <HalIntLock>
    1dd6:	02c00793          	li	a5,44
    1dda:	02f40433          	mul	s0,s0,a5
    1dde:	83c1a783          	lw	a5,-1988(gp) # 200000ec <g_allQueue>
    1de2:	84aa                	mv	s1,a0
    1de4:	943e                	add	s0,s0,a5
    1de6:	205e                	lhu	a5,4(s0)
    1de8:	1c078363          	beqz	a5,1fae <OsQueueOperate+0x1f0>
    1dec:	241e                	lhu	a5,8(s0)
    1dee:	0009a683          	lw	a3,0(s3)
    1df2:	4732                	lw	a4,12(sp)
    1df4:	17f1                	addi	a5,a5,-4
    1df6:	000a1963          	bnez	s4,1e08 <OsQueueOperate+0x4a>
    1dfa:	00f6f963          	bgeu	a3,a5,1e0c <OsQueueOperate+0x4e>
    1dfe:	02000437          	lui	s0,0x2000
    1e02:	61f40413          	addi	s0,s0,1567 # 200061f <_data_lma+0x1ff89d3>
    1e06:	a839                	j	1e24 <OsQueueOperate+0x66>
    1e08:	1ad7e863          	bltu	a5,a3,1fb8 <OsQueueOperate+0x1fa>
    1e0c:	001a1793          	slli	a5,s4,0x1
    1e10:	97a2                	add	a5,a5,s0
    1e12:	2b96                	lhu	a3,16(a5)
    1e14:	e2a5                	bnez	a3,1e74 <OsQueueOperate+0xb6>
    1e16:	eb19                	bnez	a4,1e2c <OsQueueOperate+0x6e>
    1e18:	02000437          	lui	s0,0x2000
    1e1c:	1a0a0363          	beqz	s4,1fc2 <OsQueueOperate+0x204>
    1e20:	61640413          	addi	s0,s0,1558 # 2000616 <_data_lma+0x1ff89ca>
    1e24:	8526                	mv	a0,s1
    1e26:	bb6fe0ef          	jal	ra,1dc <HalIntRestore>
    1e2a:	a055                	j	1ece <OsQueueOperate+0x110>
    1e2c:	8b41d783          	lhu	a5,-1868(gp) # 20000164 <g_losTaskLock>
    1e30:	18079c63          	bnez	a5,1fc8 <OsQueueOperate+0x20a>
    1e34:	002a0513          	addi	a0,s4,2
    1e38:	050e                	slli	a0,a0,0x3
    1e3a:	0511                	addi	a0,a0,4
    1e3c:	85ba                	mv	a1,a4
    1e3e:	9522                	add	a0,a0,s0
    1e40:	8ac1ab03          	lw	s6,-1876(gp) # 2000015c <g_losTask>
    1e44:	70e000ef          	jal	ra,2552 <OsSchedTaskWait>
    1e48:	8526                	mv	a0,s1
    1e4a:	b92fe0ef          	jal	ra,1dc <HalIntRestore>
    1e4e:	2a7000ef          	jal	ra,28f4 <LOS_Schedule>
    1e52:	b6efe0ef          	jal	ra,1c0 <HalIntLock>
    1e56:	004b5783          	lhu	a5,4(s6)
    1e5a:	84aa                	mv	s1,a0
    1e5c:	0407f713          	andi	a4,a5,64
    1e60:	cf01                	beqz	a4,1e78 <OsQueueOperate+0xba>
    1e62:	fbf7f793          	andi	a5,a5,-65
    1e66:	02000437          	lui	s0,0x2000
    1e6a:	00fb1223          	sh	a5,4(s6)
    1e6e:	60740413          	addi	s0,s0,1543 # 2000607 <_data_lma+0x1ff89bb>
    1e72:	bf4d                	j	1e24 <OsQueueOperate+0x66>
    1e74:	16fd                	addi	a3,a3,-1
    1e76:	ab96                	sh	a3,16(a5)
    1e78:	00397793          	andi	a5,s2,3
    1e7c:	4705                	li	a4,1
    1e7e:	08e78463          	beq	a5,a4,1f06 <OsQueueOperate+0x148>
    1e82:	cbb1                	beqz	a5,1ed6 <OsQueueOperate+0x118>
    1e84:	470d                	li	a4,3
    1e86:	08e78863          	beq	a5,a4,1f16 <OsQueueOperate+0x158>
    1e8a:	4509                	li	a0,2
    1e8c:	97eff0ef          	jal	ra,100a <OsLogLevelCheck>
    1e90:	e519                	bnez	a0,1e9e <OsQueueOperate+0xe0>
    1e92:	00007537          	lui	a0,0x7
    1e96:	14450513          	addi	a0,a0,324 # 7144 <__FUNCTION__.6930+0x90>
    1e9a:	351030ef          	jal	ra,59ea <puts>
    1e9e:	fff94913          	not	s2,s2
    1ea2:	00197913          	andi	s2,s2,1
    1ea6:	00290793          	addi	a5,s2,2
    1eaa:	078e                	slli	a5,a5,0x3
    1eac:	00f40733          	add	a4,s0,a5
    1eb0:	4708                	lw	a0,8(a4)
    1eb2:	0791                	addi	a5,a5,4
    1eb4:	97a2                	add	a5,a5,s0
    1eb6:	0ef50563          	beq	a0,a5,1fa0 <OsQueueOperate+0x1e2>
    1eba:	fb850513          	addi	a0,a0,-72
    1ebe:	6c0000ef          	jal	ra,257e <OsSchedTaskWake>
    1ec2:	8526                	mv	a0,s1
    1ec4:	b18fe0ef          	jal	ra,1dc <HalIntRestore>
    1ec8:	4401                	li	s0,0
    1eca:	22b000ef          	jal	ra,28f4 <LOS_Schedule>
    1ece:	8522                	mv	a0,s0
    1ed0:	0141                	addi	sp,sp,16
    1ed2:	bc6fe06f          	j	298 <__riscv_restore_4>
    1ed6:	244a                	lhu	a0,12(s0)
    1ed8:	207a                	lhu	a4,6(s0)
    1eda:	00150793          	addi	a5,a0,1
    1ede:	02e79263          	bne	a5,a4,1f02 <OsQueueOperate+0x144>
    1ee2:	00041623          	sh	zero,12(s0)
    1ee6:	241a                	lhu	a4,8(s0)
    1ee8:	401c                	lw	a5,0(s0)
    1eea:	02e50533          	mul	a0,a0,a4
    1eee:	953e                	add	a0,a0,a5
    1ef0:	00497793          	andi	a5,s2,4
    1ef4:	c3a1                	beqz	a5,1f34 <OsQueueOperate+0x176>
    1ef6:	020a1b63          	bnez	s4,1f2c <OsQueueOperate+0x16e>
    1efa:	411c                	lw	a5,0(a0)
    1efc:	00faa023          	sw	a5,0(s5) # 40000000 <_eusrstack+0x1fff0000>
    1f00:	bf79                	j	1e9e <OsQueueOperate+0xe0>
    1f02:	a45e                	sh	a5,12(s0)
    1f04:	b7cd                	j	1ee6 <OsQueueOperate+0x128>
    1f06:	244a                	lhu	a0,12(s0)
    1f08:	e111                	bnez	a0,1f0c <OsQueueOperate+0x14e>
    1f0a:	206a                	lhu	a0,6(s0)
    1f0c:	157d                	addi	a0,a0,-1
    1f0e:	0542                	slli	a0,a0,0x10
    1f10:	8141                	srli	a0,a0,0x10
    1f12:	a44a                	sh	a0,12(s0)
    1f14:	bfc9                	j	1ee6 <OsQueueOperate+0x128>
    1f16:	246a                	lhu	a0,14(s0)
    1f18:	207a                	lhu	a4,6(s0)
    1f1a:	00150793          	addi	a5,a0,1
    1f1e:	00e79563          	bne	a5,a4,1f28 <OsQueueOperate+0x16a>
    1f22:	00041723          	sh	zero,14(s0)
    1f26:	b7c1                	j	1ee6 <OsQueueOperate+0x128>
    1f28:	a47e                	sh	a5,14(s0)
    1f2a:	bf75                	j	1ee6 <OsQueueOperate+0x128>
    1f2c:	000aa783          	lw	a5,0(s5)
    1f30:	c11c                	sw	a5,0(a0)
    1f32:	b7b5                	j	1e9e <OsQueueOperate+0xe0>
    1f34:	ffc70793          	addi	a5,a4,-4 # 7ffffffc <_eusrstack+0x5ffefffc>
    1f38:	97aa                	add	a5,a5,a0
    1f3a:	0009a583          	lw	a1,0(s3)
    1f3e:	020a1f63          	bnez	s4,1f7c <OsQueueOperate+0x1be>
    1f42:	0007aa03          	lw	s4,0(a5) # 10000 <_data_lma+0x83b4>
    1f46:	862a                	mv	a2,a0
    1f48:	8556                	mv	a0,s5
    1f4a:	86d2                	mv	a3,s4
    1f4c:	95aff0ef          	jal	ra,10a6 <memcpy_s>
    1f50:	c11d                	beqz	a0,1f76 <OsQueueOperate+0x1b8>
    1f52:	c62a                	sw	a0,12(sp)
    1f54:	4509                	li	a0,2
    1f56:	8b4ff0ef          	jal	ra,100a <OsLogLevelCheck>
    1f5a:	46b2                	lw	a3,12(sp)
    1f5c:	0f600613          	li	a2,246
    1f60:	fd1d                	bnez	a0,1e9e <OsQueueOperate+0xe0>
    1f62:	659d                	lui	a1,0x7
    1f64:	00007537          	lui	a0,0x7
    1f68:	18858593          	addi	a1,a1,392 # 7188 <__FUNCTION__.6856>
    1f6c:	16050513          	addi	a0,a0,352 # 7160 <__FUNCTION__.6930+0xac>
    1f70:	161030ef          	jal	ra,58d0 <iprintf>
    1f74:	b72d                	j	1e9e <OsQueueOperate+0xe0>
    1f76:	0149a023          	sw	s4,0(s3)
    1f7a:	b715                	j	1e9e <OsQueueOperate+0xe0>
    1f7c:	c38c                	sw	a1,0(a5)
    1f7e:	86ae                	mv	a3,a1
    1f80:	8656                	mv	a2,s5
    1f82:	85ba                	mv	a1,a4
    1f84:	922ff0ef          	jal	ra,10a6 <memcpy_s>
    1f88:	f0050be3          	beqz	a0,1e9e <OsQueueOperate+0xe0>
    1f8c:	c62a                	sw	a0,12(sp)
    1f8e:	4509                	li	a0,2
    1f90:	87aff0ef          	jal	ra,100a <OsLogLevelCheck>
    1f94:	46b2                	lw	a3,12(sp)
    1f96:	f00514e3          	bnez	a0,1e9e <OsQueueOperate+0xe0>
    1f9a:	0ff00613          	li	a2,255
    1f9e:	b7d1                	j	1f62 <OsQueueOperate+0x1a4>
    1fa0:	0906                	slli	s2,s2,0x1
    1fa2:	944a                	add	s0,s0,s2
    1fa4:	281e                	lhu	a5,16(s0)
    1fa6:	0785                	addi	a5,a5,1
    1fa8:	a81e                	sh	a5,16(s0)
    1faa:	4401                	li	s0,0
    1fac:	bda5                	j	1e24 <OsQueueOperate+0x66>
    1fae:	02000437          	lui	s0,0x2000
    1fb2:	60a40413          	addi	s0,s0,1546 # 200060a <_data_lma+0x1ff89be>
    1fb6:	b5bd                	j	1e24 <OsQueueOperate+0x66>
    1fb8:	02000437          	lui	s0,0x2000
    1fbc:	61540413          	addi	s0,s0,1557 # 2000615 <_data_lma+0x1ff89c9>
    1fc0:	b595                	j	1e24 <OsQueueOperate+0x66>
    1fc2:	61d40413          	addi	s0,s0,1565
    1fc6:	bdb9                	j	1e24 <OsQueueOperate+0x66>
    1fc8:	02000437          	lui	s0,0x2000
    1fcc:	60640413          	addi	s0,s0,1542 # 2000606 <_data_lma+0x1ff89ba>
    1fd0:	bd91                	j	1e24 <OsQueueOperate+0x66>

00001fd2 <LOS_QueueReadCopy>:
    1fd2:	4795                	li	a5,5
    1fd4:	04a7e263          	bltu	a5,a0,2018 <LOS_QueueReadCopy+0x46>
    1fd8:	c5a9                	beqz	a1,2022 <LOS_QueueReadCopy+0x50>
    1fda:	c621                	beqz	a2,2022 <LOS_QueueReadCopy+0x50>
    1fdc:	421c                	lw	a5,0(a2)
    1fde:	c7b9                	beqz	a5,202c <LOS_QueueReadCopy+0x5a>
    1fe0:	a9efe2ef          	jal	t0,27e <__riscv_save_0>
    1fe4:	8432                	mv	s0,a2
    1fe6:	1141                	addi	sp,sp,-16
    1fe8:	8736                	mv	a4,a3
    1fea:	862e                	mv	a2,a1
    1fec:	84aa                	mv	s1,a0
    1fee:	ea89                	bnez	a3,2000 <LOS_QueueReadCopy+0x2e>
    1ff0:	86a2                	mv	a3,s0
    1ff2:	4581                	li	a1,0
    1ff4:	8526                	mv	a0,s1
    1ff6:	dc9ff0ef          	jal	ra,1dbe <OsQueueOperate>
    1ffa:	0141                	addi	sp,sp,16
    1ffc:	aa6fe06f          	j	2a2 <__riscv_restore_0>
    2000:	c636                	sw	a3,12(sp)
    2002:	c42e                	sw	a1,8(sp)
    2004:	6f4010ef          	jal	ra,36f8 <HalIsIntActive>
    2008:	4622                	lw	a2,8(sp)
    200a:	4732                	lw	a4,12(sp)
    200c:	d175                	beqz	a0,1ff0 <LOS_QueueReadCopy+0x1e>
    200e:	02000537          	lui	a0,0x2000
    2012:	61850513          	addi	a0,a0,1560 # 2000618 <_data_lma+0x1ff89cc>
    2016:	b7d5                	j	1ffa <LOS_QueueReadCopy+0x28>
    2018:	02000537          	lui	a0,0x2000
    201c:	60e50513          	addi	a0,a0,1550 # 200060e <_data_lma+0x1ff89c2>
    2020:	8082                	ret
    2022:	02000537          	lui	a0,0x2000
    2026:	60f50513          	addi	a0,a0,1551 # 200060f <_data_lma+0x1ff89c3>
    202a:	8082                	ret
    202c:	02000537          	lui	a0,0x2000
    2030:	61050513          	addi	a0,a0,1552 # 2000610 <_data_lma+0x1ff89c4>
    2034:	8082                	ret

00002036 <LOS_QueueWriteCopy>:
    2036:	a48fe2ef          	jal	t0,27e <__riscv_save_0>
    203a:	1141                	addi	sp,sp,-16
    203c:	c632                	sw	a2,12(sp)
    203e:	4795                	li	a5,5
    2040:	02a7ec63          	bltu	a5,a0,2078 <LOS_QueueWriteCopy+0x42>
    2044:	cd9d                	beqz	a1,2082 <LOS_QueueWriteCopy+0x4c>
    2046:	c239                	beqz	a2,208c <LOS_QueueWriteCopy+0x56>
    2048:	8736                	mv	a4,a3
    204a:	862e                	mv	a2,a1
    204c:	842a                	mv	s0,a0
    204e:	ea89                	bnez	a3,2060 <LOS_QueueWriteCopy+0x2a>
    2050:	0074                	addi	a3,sp,12
    2052:	458d                	li	a1,3
    2054:	8522                	mv	a0,s0
    2056:	d69ff0ef          	jal	ra,1dbe <OsQueueOperate>
    205a:	0141                	addi	sp,sp,16
    205c:	a46fe06f          	j	2a2 <__riscv_restore_0>
    2060:	c436                	sw	a3,8(sp)
    2062:	c22e                	sw	a1,4(sp)
    2064:	694010ef          	jal	ra,36f8 <HalIsIntActive>
    2068:	4612                	lw	a2,4(sp)
    206a:	4722                	lw	a4,8(sp)
    206c:	d175                	beqz	a0,2050 <LOS_QueueWriteCopy+0x1a>
    206e:	02000537          	lui	a0,0x2000
    2072:	60950513          	addi	a0,a0,1545 # 2000609 <_data_lma+0x1ff89bd>
    2076:	b7d5                	j	205a <LOS_QueueWriteCopy+0x24>
    2078:	02000537          	lui	a0,0x2000
    207c:	60e50513          	addi	a0,a0,1550 # 200060e <_data_lma+0x1ff89c2>
    2080:	bfe9                	j	205a <LOS_QueueWriteCopy+0x24>
    2082:	02000537          	lui	a0,0x2000
    2086:	61250513          	addi	a0,a0,1554 # 2000612 <_data_lma+0x1ff89c6>
    208a:	bfc1                	j	205a <LOS_QueueWriteCopy+0x24>
    208c:	02000537          	lui	a0,0x2000
    2090:	61350513          	addi	a0,a0,1555 # 2000613 <_data_lma+0x1ff89c7>
    2094:	b7d9                	j	205a <LOS_QueueWriteCopy+0x24>

00002096 <OsTimeSliceUpdate.part.1>:
    2096:	9e8fe2ef          	jal	t0,27e <__riscv_save_0>
    209a:	4505                	li	a0,1
    209c:	f4ffe0ef          	jal	ra,fea <OsDoExcHook>
    20a0:	920fe0ef          	jal	ra,1c0 <HalIntLock>
    20a4:	4509                	li	a0,2
    20a6:	f65fe0ef          	jal	ra,100a <OsLogLevelCheck>
    20aa:	e105                	bnez	a0,20ca <OsTimeSliceUpdate.part.1+0x34>
    20ac:	669d                	lui	a3,0x7
    20ae:	000075b7          	lui	a1,0x7
    20b2:	00007537          	lui	a0,0x7
    20b6:	22468693          	addi	a3,a3,548 # 7224 <__func__.5978>
    20ba:	07a00613          	li	a2,122
    20be:	1b458593          	addi	a1,a1,436 # 71b4 <__FUNCTION__.6856+0x2c>
    20c2:	1d850513          	addi	a0,a0,472 # 71d8 <__FUNCTION__.6856+0x50>
    20c6:	00b030ef          	jal	ra,58d0 <iprintf>
    20ca:	a001                	j	20ca <OsTimeSliceUpdate.part.1+0x34>

000020cc <OsSchedRealSleepTimeSet>:
    20cc:	c509                	beqz	a0,20d6 <OsSchedRealSleepTimeSet+0xa>
    20ce:	84a1a423          	sw	a0,-1976(gp) # 200000f8 <SchedRealSleepTimeSet>
    20d2:	4501                	li	a0,0
    20d4:	8082                	ret
    20d6:	4505                	li	a0,1
    20d8:	8082                	ret

000020da <OsSchedUpdateSchedTimeBase>:
    20da:	9a4fe2ef          	jal	t0,27e <__riscv_save_0>
    20de:	1141                	addi	sp,sp,-16
    20e0:	0068                	addi	a0,sp,12
    20e2:	c602                	sw	zero,12(sp)
    20e4:	6c2010ef          	jal	ra,37a6 <HalGetTickCycle>
    20e8:	85818793          	addi	a5,gp,-1960 # 20000108 <g_schedTimerBase>
    20ec:	4398                	lw	a4,0(a5)
    20ee:	46b2                	lw	a3,12(sp)
    20f0:	43d0                	lw	a2,4(a5)
    20f2:	96ba                	add	a3,a3,a4
    20f4:	00e6b733          	sltu	a4,a3,a4
    20f8:	9732                	add	a4,a4,a2
    20fa:	c394                	sw	a3,0(a5)
    20fc:	c3d8                	sw	a4,4(a5)
    20fe:	0141                	addi	sp,sp,16
    2100:	9a2fe06f          	j	2a2 <__riscv_restore_0>

00002104 <OsSchedTimerBaseReset>:
    2104:	85818713          	addi	a4,gp,-1960 # 20000108 <g_schedTimerBase>
    2108:	4358                	lw	a4,4(a4)
    210a:	85818793          	addi	a5,gp,-1960 # 20000108 <g_schedTimerBase>
    210e:	04b76263          	bltu	a4,a1,2152 <OsSchedTimerBaseReset+0x4e>
    2112:	00b71563          	bne	a4,a1,211c <OsSchedTimerBaseReset+0x18>
    2116:	4398                	lw	a4,0(a5)
    2118:	02a76d63          	bltu	a4,a0,2152 <OsSchedTimerBaseReset+0x4e>
    211c:	962fe2ef          	jal	t0,27e <__riscv_save_0>
    2120:	4505                	li	a0,1
    2122:	ec9fe0ef          	jal	ra,fea <OsDoExcHook>
    2126:	89afe0ef          	jal	ra,1c0 <HalIntLock>
    212a:	4509                	li	a0,2
    212c:	edffe0ef          	jal	ra,100a <OsLogLevelCheck>
    2130:	e105                	bnez	a0,2150 <OsSchedTimerBaseReset+0x4c>
    2132:	669d                	lui	a3,0x7
    2134:	000075b7          	lui	a1,0x7
    2138:	00007537          	lui	a0,0x7
    213c:	1f468693          	addi	a3,a3,500 # 71f4 <__func__.5962>
    2140:	05500613          	li	a2,85
    2144:	1b458593          	addi	a1,a1,436 # 71b4 <__FUNCTION__.6856+0x2c>
    2148:	1d850513          	addi	a0,a0,472 # 71d8 <__FUNCTION__.6856+0x50>
    214c:	784030ef          	jal	ra,58d0 <iprintf>
    2150:	a001                	j	2150 <OsSchedTimerBaseReset+0x4c>
    2152:	c388                	sw	a0,0(a5)
    2154:	c3cc                	sw	a1,4(a5)
    2156:	5679                	li	a2,-2
    2158:	56fd                	li	a3,-1
    215a:	80c1a423          	sw	a2,-2040(gp) # 200000b8 <g_schedResponseTime>
    215e:	80d1a623          	sw	a3,-2036(gp) # 200000bc <g_schedResponseTime+0x4>
    2162:	8082                	ret

00002164 <OsGetCurrSchedTimeCycle>:
    2164:	91afe2ef          	jal	t0,27e <__riscv_save_0>
    2168:	8cc1a783          	lw	a5,-1844(gp) # 2000017c <g_taskScheduled>
    216c:	1141                	addi	sp,sp,-16
    216e:	cfc5                	beqz	a5,2226 <OsGetCurrSchedTimeCycle+0xc2>
    2170:	c602                	sw	zero,12(sp)
    2172:	84efe0ef          	jal	ra,1c0 <HalIntLock>
    2176:	892a                	mv	s2,a0
    2178:	0068                	addi	a0,sp,12
    217a:	62c010ef          	jal	ra,37a6 <HalGetTickCycle>
    217e:	85818793          	addi	a5,gp,-1960 # 20000108 <g_schedTimerBase>
    2182:	4394                	lw	a3,0(a5)
    2184:	43dc                	lw	a5,4(a5)
    2186:	00a684b3          	add	s1,a3,a0
    218a:	00b78733          	add	a4,a5,a1
    218e:	00d4b433          	sltu	s0,s1,a3
    2192:	943a                	add	s0,s0,a4
    2194:	86818713          	addi	a4,gp,-1944 # 20000118 <oldSchedTime.5967>
    2198:	00472883          	lw	a7,4(a4)
    219c:	00072303          	lw	t1,0(a4)
    21a0:	85818813          	addi	a6,gp,-1960 # 20000108 <g_schedTimerBase>
    21a4:	86818613          	addi	a2,gp,-1944 # 20000118 <oldSchedTime.5967>
    21a8:	01146663          	bltu	s0,a7,21b4 <OsGetCurrSchedTimeCycle+0x50>
    21ac:	06889363          	bne	a7,s0,2212 <OsGetCurrSchedTimeCycle+0xae>
    21b0:	0664f163          	bgeu	s1,t1,2212 <OsGetCurrSchedTimeCycle+0xae>
    21b4:	4732                	lw	a4,12(sp)
    21b6:	96ba                	add	a3,a3,a4
    21b8:	00e6b733          	sltu	a4,a3,a4
    21bc:	97ba                	add	a5,a5,a4
    21be:	00a684b3          	add	s1,a3,a0
    21c2:	00d82023          	sw	a3,0(a6)
    21c6:	00f82223          	sw	a5,4(a6)
    21ca:	00d4b6b3          	sltu	a3,s1,a3
    21ce:	97ae                	add	a5,a5,a1
    21d0:	00f68433          	add	s0,a3,a5
    21d4:	01146663          	bltu	s0,a7,21e0 <OsGetCurrSchedTimeCycle+0x7c>
    21d8:	02889d63          	bne	a7,s0,2212 <OsGetCurrSchedTimeCycle+0xae>
    21dc:	0264fb63          	bgeu	s1,t1,2212 <OsGetCurrSchedTimeCycle+0xae>
    21e0:	4505                	li	a0,1
    21e2:	e09fe0ef          	jal	ra,fea <OsDoExcHook>
    21e6:	fdbfd0ef          	jal	ra,1c0 <HalIntLock>
    21ea:	4509                	li	a0,2
    21ec:	e1ffe0ef          	jal	ra,100a <OsLogLevelCheck>
    21f0:	e105                	bnez	a0,2210 <OsGetCurrSchedTimeCycle+0xac>
    21f2:	669d                	lui	a3,0x7
    21f4:	000075b7          	lui	a1,0x7
    21f8:	00007537          	lui	a0,0x7
    21fc:	20c68693          	addi	a3,a3,524 # 720c <__func__.5972>
    2200:	07000613          	li	a2,112
    2204:	1b458593          	addi	a1,a1,436 # 71b4 <__FUNCTION__.6856+0x2c>
    2208:	1d850513          	addi	a0,a0,472 # 71d8 <__FUNCTION__.6856+0x50>
    220c:	6c4030ef          	jal	ra,58d0 <iprintf>
    2210:	a001                	j	2210 <OsGetCurrSchedTimeCycle+0xac>
    2212:	854a                	mv	a0,s2
    2214:	c204                	sw	s1,0(a2)
    2216:	c240                	sw	s0,4(a2)
    2218:	fc5fd0ef          	jal	ra,1dc <HalIntRestore>
    221c:	8526                	mv	a0,s1
    221e:	85a2                	mv	a1,s0
    2220:	0141                	addi	sp,sp,16
    2222:	880fe06f          	j	2a2 <__riscv_restore_0>
    2226:	4481                	li	s1,0
    2228:	4401                	li	s0,0
    222a:	bfcd                	j	221c <OsGetCurrSchedTimeCycle+0xb8>

0000222c <OsSchedSetNextExpireTime>:
    222c:	82afe2ef          	jal	t0,256 <__riscv_save_10>
    2230:	1141                	addi	sp,sp,-16
    2232:	c636                	sw	a3,12(sp)
    2234:	c43a                	sw	a4,8(sp)
    2236:	892a                	mv	s2,a0
    2238:	89ae                	mv	s3,a1
    223a:	8a32                	mv	s4,a2
    223c:	8b3e                	mv	s6,a5
    223e:	10d000ef          	jal	ra,2b4a <OsGetNextExpireTime>
    2242:	4722                	lw	a4,8(sp)
    2244:	46b2                	lw	a3,12(sp)
    2246:	00b76863          	bltu	a4,a1,2256 <OsSchedSetNextExpireTime+0x2a>
    224a:	87aa                	mv	a5,a0
    224c:	862e                	mv	a2,a1
    224e:	0ae59363          	bne	a1,a4,22f4 <OsSchedSetNextExpireTime+0xc8>
    2252:	0aa6f163          	bgeu	a3,a0,22f4 <OsSchedSetNextExpireTime+0xc8>
    2256:	87b6                	mv	a5,a3
    2258:	863a                	mv	a2,a4
    225a:	4a85                	li	s5,1
    225c:	80818693          	addi	a3,gp,-2040 # 200000b8 <g_schedResponseTime>
    2260:	4298                	lw	a4,0(a3)
    2262:	42d4                	lw	a3,4(a3)
    2264:	80818493          	addi	s1,gp,-2040 # 200000b8 <g_schedResponseTime>
    2268:	00d66663          	bltu	a2,a3,2274 <OsSchedSetNextExpireTime+0x48>
    226c:	0cc69263          	bne	a3,a2,2330 <OsSchedSetNextExpireTime+0x104>
    2270:	0ce7f063          	bgeu	a5,a4,2330 <OsSchedSetNextExpireTime+0x104>
    2274:	200005b7          	lui	a1,0x20000
    2278:	0b05a803          	lw	a6,176(a1) # 200000b0 <SystemCoreClock>
    227c:	3e800513          	li	a0,1000
    2280:	8e91                	sub	a3,a3,a2
    2282:	02a85833          	divu	a6,a6,a0
    2286:	40f70533          	sub	a0,a4,a5
    228a:	00a73733          	sltu	a4,a4,a0
    228e:	8bae                	mv	s7,a1
    2290:	00e69463          	bne	a3,a4,2298 <OsSchedSetNextExpireTime+0x6c>
    2294:	09056e63          	bltu	a0,a6,2330 <OsSchedSetNextExpireTime+0x104>
    2298:	41278533          	sub	a0,a5,s2
    229c:	00a7b733          	sltu	a4,a5,a0
    22a0:	413605b3          	sub	a1,a2,s3
    22a4:	8d99                	sub	a1,a1,a4
    22a6:	842a                	mv	s0,a0
    22a8:	8c2e                	mv	s8,a1
    22aa:	e589                	bnez	a1,22b4 <OsSchedSetNextExpireTime+0x88>
    22ac:	01000737          	lui	a4,0x1000
    22b0:	04e56463          	bltu	a0,a4,22f8 <OsSchedSetNextExpireTime+0xcc>
    22b4:	8481a783          	lw	a5,-1976(gp) # 200000f8 <SchedRealSleepTimeSet>
    22b8:	c391                	beqz	a5,22bc <OsSchedSetNextExpireTime+0x90>
    22ba:	9782                	jalr	a5
    22bc:	01000437          	lui	s0,0x1000
    22c0:	147d                	addi	s0,s0,-1
    22c2:	008907b3          	add	a5,s2,s0
    22c6:	0127b633          	sltu	a2,a5,s2
    22ca:	964e                	add	a2,a2,s3
    22cc:	4c01                	li	s8,0
    22ce:	000a9363          	bnez	s5,22d4 <OsSchedSetNextExpireTime+0xa8>
    22d2:	5a7d                	li	s4,-1
    22d4:	8541a823          	sw	s4,-1968(gp) # 20000100 <g_schedResponseID>
    22d8:	c09c                	sw	a5,0(s1)
    22da:	c0d0                	sw	a2,4(s1)
    22dc:	000b0763          	beqz	s6,22ea <OsSchedSetNextExpireTime+0xbe>
    22e0:	3551                	jal	2164 <OsGetCurrSchedTimeCycle>
    22e2:	84a1ac23          	sw	a0,-1960(gp) # 20000108 <g_schedTimerBase>
    22e6:	84b1ae23          	sw	a1,-1956(gp) # 2000010c <g_schedTimerBase+0x4>
    22ea:	8522                	mv	a0,s0
    22ec:	85e2                	mv	a1,s8
    22ee:	47e010ef          	jal	ra,376c <HalSysTickReload>
    22f2:	a83d                	j	2330 <OsSchedSetNextExpireTime+0x104>
    22f4:	4a81                	li	s5,0
    22f6:	b79d                	j	225c <OsSchedSetNextExpireTime+0x30>
    22f8:	fd057be3          	bgeu	a0,a6,22ce <OsSchedSetNextExpireTime+0xa2>
    22fc:	8481a783          	lw	a5,-1976(gp) # 200000f8 <SchedRealSleepTimeSet>
    2300:	c781                	beqz	a5,2308 <OsSchedSetNextExpireTime+0xdc>
    2302:	4501                	li	a0,0
    2304:	4581                	li	a1,0
    2306:	9782                	jalr	a5
    2308:	0b0ba403          	lw	s0,176(s7)
    230c:	3e800793          	li	a5,1000
    2310:	40d8                	lw	a4,4(s1)
    2312:	02f45433          	divu	s0,s0,a5
    2316:	4c01                	li	s8,0
    2318:	008907b3          	add	a5,s2,s0
    231c:	0127b633          	sltu	a2,a5,s2
    2320:	964e                	add	a2,a2,s3
    2322:	fae666e3          	bltu	a2,a4,22ce <OsSchedSetNextExpireTime+0xa2>
    2326:	00c71563          	bne	a4,a2,2330 <OsSchedSetNextExpireTime+0x104>
    232a:	4098                	lw	a4,0(s1)
    232c:	fae7e1e3          	bltu	a5,a4,22ce <OsSchedSetNextExpireTime+0xa2>
    2330:	0141                	addi	sp,sp,16
    2332:	f5dfd06f          	j	28e <__riscv_restore_10>

00002336 <OsSchedUpdateExpireTime>:
    2336:	f49fd2ef          	jal	t0,27e <__riscv_save_0>
    233a:	8ac1a703          	lw	a4,-1876(gp) # 2000015c <g_losTask>
    233e:	87b2                	mv	a5,a2
    2340:	8a01a803          	lw	a6,-1888(gp) # 20000150 <g_idleTaskID>
    2344:	5b10                	lw	a2,48(a4)
    2346:	200006b7          	lui	a3,0x20000
    234a:	0b06a683          	lw	a3,176(a3) # 200000b0 <SystemCoreClock>
    234e:	05060163          	beq	a2,a6,2390 <OsSchedUpdateExpireTime+0x5a>
    2352:	3b9ad837          	lui	a6,0x3b9ad
    2356:	a0080813          	addi	a6,a6,-1536 # 3b9aca00 <_eusrstack+0x1b99ca00>
    235a:	02d856b3          	divu	a3,a6,a3
    235e:	6831                	lui	a6,0xc
    2360:	35080813          	addi	a6,a6,848 # c350 <_data_lma+0x4704>
    2364:	4718                	lw	a4,8(a4)
    2366:	02d85833          	divu	a6,a6,a3
    236a:	00e84863          	blt	a6,a4,237a <OsSchedUpdateExpireTime+0x44>
    236e:	01313737          	lui	a4,0x1313
    2372:	d0070713          	addi	a4,a4,-768 # 1312d00 <_data_lma+0x130b0b4>
    2376:	02d75733          	divu	a4,a4,a3
    237a:	41f75813          	srai	a6,a4,0x1f
    237e:	00a706b3          	add	a3,a4,a0
    2382:	00e6b733          	sltu	a4,a3,a4
    2386:	982e                	add	a6,a6,a1
    2388:	9742                	add	a4,a4,a6
    238a:	354d                	jal	222c <OsSchedSetNextExpireTime>
    238c:	f17fd06f          	j	2a2 <__riscv_restore_0>
    2390:	3e800713          	li	a4,1000
    2394:	02e6d6b3          	divu	a3,a3,a4
    2398:	5779                	li	a4,-2
    239a:	40d706b3          	sub	a3,a4,a3
    239e:	00d73733          	sltu	a4,a4,a3
    23a2:	fff74713          	not	a4,a4
    23a6:	b7d5                	j	238a <OsSchedUpdateExpireTime+0x54>

000023a8 <OsSchedTaskEnQueue>:
    23a8:	215a                	lhu	a4,4(a0)
    23aa:	00477793          	andi	a5,a4,4
    23ae:	cf85                	beqz	a5,23e6 <OsSchedTaskEnQueue+0x3e>
    23b0:	ecffd2ef          	jal	t0,27e <__riscv_save_0>
    23b4:	4505                	li	a0,1
    23b6:	c35fe0ef          	jal	ra,fea <OsDoExcHook>
    23ba:	e07fd0ef          	jal	ra,1c0 <HalIntLock>
    23be:	4509                	li	a0,2
    23c0:	c4bfe0ef          	jal	ra,100a <OsLogLevelCheck>
    23c4:	e105                	bnez	a0,23e4 <OsSchedTaskEnQueue+0x3c>
    23c6:	669d                	lui	a3,0x7
    23c8:	000075b7          	lui	a1,0x7
    23cc:	00007537          	lui	a0,0x7
    23d0:	23868693          	addi	a3,a3,568 # 7238 <__func__.6029>
    23d4:	11d00613          	li	a2,285
    23d8:	1b458593          	addi	a1,a1,436 # 71b4 <__FUNCTION__.6856+0x2c>
    23dc:	1d850513          	addi	a0,a0,472 # 71d8 <__FUNCTION__.6856+0x50>
    23e0:	4f0030ef          	jal	ra,58d0 <iprintf>
    23e4:	a001                	j	23e4 <OsSchedTaskEnQueue+0x3c>
    23e6:	5914                	lw	a3,48(a0)
    23e8:	8a01a783          	lw	a5,-1888(gp) # 20000150 <g_idleTaskID>
    23ec:	06f68963          	beq	a3,a5,245e <OsSchedTaskEnQueue+0xb6>
    23f0:	200007b7          	lui	a5,0x20000
    23f4:	0b07a783          	lw	a5,176(a5) # 200000b0 <SystemCoreClock>
    23f8:	3b9ad6b7          	lui	a3,0x3b9ad
    23fc:	a0068693          	addi	a3,a3,-1536 # 3b9aca00 <_eusrstack+0x1b99ca00>
    2400:	02f6d6b3          	divu	a3,a3,a5
    2404:	65b1                	lui	a1,0xc
    2406:	35058593          	addi	a1,a1,848 # c350 <_data_lma+0x4704>
    240a:	00655303          	lhu	t1,6(a0)
    240e:	20008637          	lui	a2,0x20008
    2412:	00852e83          	lw	t4,8(a0)
    2416:	64860793          	addi	a5,a2,1608 # 20008648 <g_priQueueList>
    241a:	00331e13          	slli	t3,t1,0x3
    241e:	97f2                	add	a5,a5,t3
    2420:	04850813          	addi	a6,a0,72
    2424:	0047a883          	lw	a7,4(a5)
    2428:	64860613          	addi	a2,a2,1608
    242c:	02d5d5b3          	divu	a1,a1,a3
    2430:	03d5dd63          	bge	a1,t4,246a <OsSchedTaskEnQueue+0xc2>
    2434:	00f89d63          	bne	a7,a5,244e <OsSchedTaskEnQueue+0xa6>
    2438:	84c18593          	addi	a1,gp,-1972 # 200000fc <g_queueBitmap>
    243c:	800006b7          	lui	a3,0x80000
    2440:	0066d6b3          	srl	a3,a3,t1
    2444:	0005a303          	lw	t1,0(a1)
    2448:	0066e6b3          	or	a3,a3,t1
    244c:	c194                	sw	a3,0(a1)
    244e:	05152623          	sw	a7,76(a0)
    2452:	c53c                	sw	a5,72(a0)
    2454:	0108a023          	sw	a6,0(a7)
    2458:	9672                	add	a2,a2,t3
    245a:	01062223          	sw	a6,4(a2)
    245e:	f5577713          	andi	a4,a4,-171
    2462:	00476713          	ori	a4,a4,4
    2466:	a15a                	sh	a4,4(a0)
    2468:	8082                	ret
    246a:	01313637          	lui	a2,0x1313
    246e:	d0060613          	addi	a2,a2,-768 # 1312d00 <_data_lma+0x130b0b4>
    2472:	02d656b3          	divu	a3,a2,a3
    2476:	c514                	sw	a3,8(a0)
    2478:	00f89b63          	bne	a7,a5,248e <OsSchedTaskEnQueue+0xe6>
    247c:	84c18613          	addi	a2,gp,-1972 # 200000fc <g_queueBitmap>
    2480:	420c                	lw	a1,0(a2)
    2482:	800006b7          	lui	a3,0x80000
    2486:	0066d6b3          	srl	a3,a3,t1
    248a:	8ecd                	or	a3,a3,a1
    248c:	c214                	sw	a3,0(a2)
    248e:	439c                	lw	a5,0(a5)
    2490:	43d4                	lw	a3,4(a5)
    2492:	c53c                	sw	a5,72(a0)
    2494:	c574                	sw	a3,76(a0)
    2496:	0106a023          	sw	a6,0(a3) # 80000000 <_eusrstack+0x5fff0000>
    249a:	0107a223          	sw	a6,4(a5)
    249e:	b7c1                	j	245e <OsSchedTaskEnQueue+0xb6>

000024a0 <OsSchedTaskDeQueue>:
    24a0:	2156                	lhu	a3,4(a0)
    24a2:	0046f793          	andi	a5,a3,4
    24a6:	c7b1                	beqz	a5,24f2 <OsSchedTaskDeQueue+0x52>
    24a8:	5918                	lw	a4,48(a0)
    24aa:	8a01a783          	lw	a5,-1888(gp) # 20000150 <g_idleTaskID>
    24ae:	04f70063          	beq	a4,a5,24ee <OsSchedTaskDeQueue+0x4e>
    24b2:	4578                	lw	a4,76(a0)
    24b4:	453c                	lw	a5,72(a0)
    24b6:	2172                	lhu	a2,6(a0)
    24b8:	c31c                	sw	a5,0(a4)
    24ba:	c3d8                	sw	a4,4(a5)
    24bc:	20008737          	lui	a4,0x20008
    24c0:	00361793          	slli	a5,a2,0x3
    24c4:	64870713          	addi	a4,a4,1608 # 20008648 <g_priQueueList>
    24c8:	04052623          	sw	zero,76(a0)
    24cc:	973e                	add	a4,a4,a5
    24ce:	435c                	lw	a5,4(a4)
    24d0:	04052423          	sw	zero,72(a0)
    24d4:	00e79d63          	bne	a5,a4,24ee <OsSchedTaskDeQueue+0x4e>
    24d8:	84c18713          	addi	a4,gp,-1972 # 200000fc <g_queueBitmap>
    24dc:	800007b7          	lui	a5,0x80000
    24e0:	00c7d7b3          	srl	a5,a5,a2
    24e4:	4310                	lw	a2,0(a4)
    24e6:	fff7c793          	not	a5,a5
    24ea:	8ff1                	and	a5,a5,a2
    24ec:	c31c                	sw	a5,0(a4)
    24ee:	9aed                	andi	a3,a3,-5
    24f0:	a156                	sh	a3,4(a0)
    24f2:	8082                	ret

000024f4 <OsSchedTaskExit>:
    24f4:	d8bfd2ef          	jal	t0,27e <__riscv_save_0>
    24f8:	215e                	lhu	a5,4(a0)
    24fa:	842a                	mv	s0,a0
    24fc:	0047f713          	andi	a4,a5,4
    2500:	c305                	beqz	a4,2520 <OsSchedTaskExit+0x2c>
    2502:	3f79                	jal	24a0 <OsSchedTaskDeQueue>
    2504:	205e                	lhu	a5,4(s0)
    2506:	0a07f793          	andi	a5,a5,160
    250a:	cb89                	beqz	a5,251c <OsSchedTaskExit+0x28>
    250c:	4585                	li	a1,1
    250e:	01040513          	addi	a0,s0,16 # 1000010 <_data_lma+0xff83c4>
    2512:	2b4d                	jal	2ac4 <OsDeleteSortLink>
    2514:	205e                	lhu	a5,4(s0)
    2516:	f5f7f793          	andi	a5,a5,-161
    251a:	a05e                	sh	a5,4(s0)
    251c:	d87fd06f          	j	2a2 <__riscv_restore_0>
    2520:	0087f713          	andi	a4,a5,8
    2524:	d365                	beqz	a4,2504 <OsSchedTaskExit+0x10>
    2526:	4574                	lw	a3,76(a0)
    2528:	4538                	lw	a4,72(a0)
    252a:	9bdd                	andi	a5,a5,-9
    252c:	c298                	sw	a4,0(a3)
    252e:	c354                	sw	a3,4(a4)
    2530:	04052623          	sw	zero,76(a0)
    2534:	04052423          	sw	zero,72(a0)
    2538:	a15e                	sh	a5,4(a0)
    253a:	b7e9                	j	2504 <OsSchedTaskExit+0x10>

0000253c <OsSchedYield>:
    253c:	8ac1a783          	lw	a5,-1876(gp) # 2000015c <g_losTask>
    2540:	0007a423          	sw	zero,8(a5) # 80000008 <_eusrstack+0x5fff0008>
    2544:	8082                	ret

00002546 <OsSchedDelay>:
    2546:	215e                	lhu	a5,4(a0)
    2548:	c54c                	sw	a1,12(a0)
    254a:	0207e793          	ori	a5,a5,32
    254e:	a15e                	sh	a5,4(a0)
    2550:	8082                	ret

00002552 <OsSchedTaskWait>:
    2552:	8ac1a783          	lw	a5,-1876(gp) # 2000015c <g_losTask>
    2556:	23da                	lhu	a4,4(a5)
    2558:	04878613          	addi	a2,a5,72
    255c:	00876693          	ori	a3,a4,8
    2560:	a3d6                	sh	a3,4(a5)
    2562:	4114                	lw	a3,0(a0)
    2564:	42c8                	lw	a0,4(a3)
    2566:	c7b4                	sw	a3,72(a5)
    2568:	c7e8                	sw	a0,76(a5)
    256a:	c110                	sw	a2,0(a0)
    256c:	c2d0                	sw	a2,4(a3)
    256e:	56fd                	li	a3,-1
    2570:	00d58663          	beq	a1,a3,257c <OsSchedTaskWait+0x2a>
    2574:	08876713          	ori	a4,a4,136
    2578:	a3da                	sh	a4,4(a5)
    257a:	c7cc                	sw	a1,12(a5)
    257c:	8082                	ret

0000257e <OsSchedTaskWake>:
    257e:	d01fd2ef          	jal	t0,27e <__riscv_save_0>
    2582:	4578                	lw	a4,76(a0)
    2584:	453c                	lw	a5,72(a0)
    2586:	842a                	mv	s0,a0
    2588:	c31c                	sw	a5,0(a4)
    258a:	c3d8                	sw	a4,4(a5)
    258c:	215e                	lhu	a5,4(a0)
    258e:	04052623          	sw	zero,76(a0)
    2592:	04052423          	sw	zero,72(a0)
    2596:	ff77f713          	andi	a4,a5,-9
    259a:	a15a                	sh	a4,4(a0)
    259c:	0807f793          	andi	a5,a5,128
    25a0:	cb81                	beqz	a5,25b0 <OsSchedTaskWake+0x32>
    25a2:	4585                	li	a1,1
    25a4:	0541                	addi	a0,a0,16
    25a6:	2b39                	jal	2ac4 <OsDeleteSortLink>
    25a8:	205e                	lhu	a5,4(s0)
    25aa:	f7f7f793          	andi	a5,a5,-129
    25ae:	a05e                	sh	a5,4(s0)
    25b0:	205e                	lhu	a5,4(s0)
    25b2:	8bc9                	andi	a5,a5,18
    25b4:	e781                	bnez	a5,25bc <OsSchedTaskWake+0x3e>
    25b6:	8522                	mv	a0,s0
    25b8:	df1ff0ef          	jal	ra,23a8 <OsSchedTaskEnQueue>
    25bc:	ce7fd06f          	j	2a2 <__riscv_restore_0>

000025c0 <OsSchedSetIdleTaskSchedParam>:
    25c0:	cbffd2ef          	jal	t0,27e <__riscv_save_0>
    25c4:	de5ff0ef          	jal	ra,23a8 <OsSchedTaskEnQueue>
    25c8:	cdbfd06f          	j	2a2 <__riscv_restore_0>

000025cc <OsSchedSwtmrScanRegister>:
    25cc:	c509                	beqz	a0,25d6 <OsSchedSwtmrScanRegister+0xa>
    25ce:	86a1a023          	sw	a0,-1952(gp) # 20000110 <g_swtmrScan>
    25d2:	4501                	li	a0,0
    25d4:	8082                	ret
    25d6:	4505                	li	a0,1
    25d8:	8082                	ret

000025da <OsSchedInit>:
    25da:	ca5fd2ef          	jal	t0,27e <__riscv_save_0>
    25de:	200087b7          	lui	a5,0x20008
    25e2:	64878793          	addi	a5,a5,1608 # 20008648 <g_priQueueList>
    25e6:	10078713          	addi	a4,a5,256
    25ea:	c3dc                	sw	a5,4(a5)
    25ec:	c39c                	sw	a5,0(a5)
    25ee:	07a1                	addi	a5,a5,8
    25f0:	fee79de3          	bne	a5,a4,25ea <OsSchedInit+0x10>
    25f4:	4505                	li	a0,1
    25f6:	8401a623          	sw	zero,-1972(gp) # 200000fc <g_queueBitmap>
    25fa:	2b21                	jal	2b12 <OsGetSortLinkAttribute>
    25fc:	86a1a223          	sw	a0,-1948(gp) # 20000114 <g_taskSortLinkList>
    2600:	4785                	li	a5,1
    2602:	c909                	beqz	a0,2614 <OsSchedInit+0x3a>
    2604:	26c5                	jal	29e4 <OsSortLinkInit>
    2606:	5679                	li	a2,-2
    2608:	56fd                	li	a3,-1
    260a:	80c1a423          	sw	a2,-2040(gp) # 200000b8 <g_schedResponseTime>
    260e:	80d1a623          	sw	a3,-2036(gp) # 200000bc <g_schedResponseTime+0x4>
    2612:	4781                	li	a5,0
    2614:	853e                	mv	a0,a5
    2616:	c8dfd06f          	j	2a2 <__riscv_restore_0>

0000261a <OsGetTopTask>:
    261a:	84c1a503          	lw	a0,-1972(gp) # 200000fc <g_queueBitmap>
    261e:	c105                	beqz	a0,263e <OsGetTopTask+0x24>
    2620:	c5ffd2ef          	jal	t0,27e <__riscv_save_0>
    2624:	56e020ef          	jal	ra,4b92 <__clzsi2>
    2628:	200087b7          	lui	a5,0x20008
    262c:	050e                	slli	a0,a0,0x3
    262e:	64878793          	addi	a5,a5,1608 # 20008648 <g_priQueueList>
    2632:	97aa                	add	a5,a5,a0
    2634:	43c8                	lw	a0,4(a5)
    2636:	fb850513          	addi	a0,a0,-72
    263a:	c69fd06f          	j	2a2 <__riscv_restore_0>
    263e:	8a01a783          	lw	a5,-1888(gp) # 20000150 <g_idleTaskID>
    2642:	07800513          	li	a0,120
    2646:	02f507b3          	mul	a5,a0,a5
    264a:	8bc1a503          	lw	a0,-1860(gp) # 2000016c <g_taskCBArray>
    264e:	953e                	add	a0,a0,a5
    2650:	8082                	ret

00002652 <OsSchedStart>:
    2652:	c2dfd2ef          	jal	t0,27e <__riscv_save_0>
    2656:	b6bfd0ef          	jal	ra,1c0 <HalIntLock>
    265a:	37c1                	jal	261a <OsGetTopTask>
    265c:	215e                	lhu	a5,4(a0)
    265e:	842a                	mv	s0,a0
    2660:	0107e793          	ori	a5,a5,16
    2664:	a15e                	sh	a5,4(a0)
    2666:	8ac18713          	addi	a4,gp,-1876 # 2000015c <g_losTask>
    266a:	c348                	sw	a0,4(a4)
    266c:	8aa1a623          	sw	a0,-1876(gp) # 2000015c <g_losTask>
    2670:	4705                	li	a4,1
    2672:	8ce1a623          	sw	a4,-1844(gp) # 2000017c <g_taskScheduled>
    2676:	aefff0ef          	jal	ra,2164 <OsGetCurrSchedTimeCycle>
    267a:	d008                	sw	a0,32(s0)
    267c:	d04c                	sw	a1,36(s0)
    267e:	8522                	mv	a0,s0
    2680:	e21ff0ef          	jal	ra,24a0 <OsSchedTaskDeQueue>
    2684:	5679                	li	a2,-2
    2686:	56fd                	li	a3,-1
    2688:	80c1a423          	sw	a2,-2040(gp) # 200000b8 <g_schedResponseTime>
    268c:	80d1a623          	sw	a3,-2036(gp) # 200000bc <g_schedResponseTime+0x4>
    2690:	577d                	li	a4,-1
    2692:	84e1a823          	sw	a4,-1968(gp) # 20000100 <g_schedResponseID>
    2696:	5008                	lw	a0,32(s0)
    2698:	4418                	lw	a4,8(s0)
    269a:	504c                	lw	a1,36(s0)
    269c:	4785                	li	a5,1
    269e:	00a706b3          	add	a3,a4,a0
    26a2:	41f75613          	srai	a2,a4,0x1f
    26a6:	962e                	add	a2,a2,a1
    26a8:	00e6b733          	sltu	a4,a3,a4
    26ac:	9732                	add	a4,a4,a2
    26ae:	5810                	lw	a2,48(s0)
    26b0:	b7dff0ef          	jal	ra,222c <OsSchedSetNextExpireTime>
    26b4:	4505                	li	a0,1
    26b6:	955fe0ef          	jal	ra,100a <OsLogLevelCheck>
    26ba:	e519                	bnez	a0,26c8 <OsSchedStart+0x76>
    26bc:	00007537          	lui	a0,0x7
    26c0:	1a050513          	addi	a0,a0,416 # 71a0 <__FUNCTION__.6856+0x18>
    26c4:	326030ef          	jal	ra,59ea <puts>
    26c8:	bdbfd06f          	j	2a2 <__riscv_restore_0>

000026cc <OsSchedTaskSwitch>:
    26cc:	b99fd2ef          	jal	t0,264 <__riscv_save_4>
    26d0:	8ac1a403          	lw	s0,-1876(gp) # 2000015c <g_losTask>
    26d4:	a91ff0ef          	jal	ra,2164 <OsGetCurrSchedTimeCycle>
    26d8:	5058                	lw	a4,36(s0)
    26da:	501c                	lw	a5,32(s0)
    26dc:	00e5e763          	bltu	a1,a4,26ea <OsSchedTaskSwitch+0x1e>
    26e0:	862e                	mv	a2,a1
    26e2:	00b71663          	bne	a4,a1,26ee <OsSchedTaskSwitch+0x22>
    26e6:	00f57463          	bgeu	a0,a5,26ee <OsSchedTaskSwitch+0x22>
    26ea:	9adff0ef          	jal	ra,2096 <OsTimeSliceUpdate.part.1>
    26ee:	5814                	lw	a3,48(s0)
    26f0:	8a01a703          	lw	a4,-1888(gp) # 20000150 <g_idleTaskID>
    26f4:	00e68863          	beq	a3,a4,2704 <OsSchedTaskSwitch+0x38>
    26f8:	4418                	lw	a4,8(s0)
    26fa:	40f507b3          	sub	a5,a0,a5
    26fe:	40f707b3          	sub	a5,a4,a5
    2702:	c41c                	sw	a5,8(s0)
    2704:	205e                	lhu	a5,4(s0)
    2706:	d008                	sw	a0,32(s0)
    2708:	d050                	sw	a2,36(s0)
    270a:	0a07f713          	andi	a4,a5,160
    270e:	cf25                	beqz	a4,2786 <OsSchedTaskSwitch+0xba>
    2710:	4454                	lw	a3,12(s0)
    2712:	85aa                	mv	a1,a0
    2714:	4705                	li	a4,1
    2716:	01040513          	addi	a0,s0,16
    271a:	24f5                	jal	2a06 <OsAdd2SortLink>
    271c:	effff0ef          	jal	ra,261a <OsGetTopTask>
    2720:	8ac18493          	addi	s1,gp,-1876 # 2000015c <g_losTask>
    2724:	c0c8                	sw	a0,4(s1)
    2726:	892a                	mv	s2,a0
    2728:	4481                	li	s1,0
    272a:	00a40e63          	beq	s0,a0,2746 <OsSchedTaskSwitch+0x7a>
    272e:	205e                	lhu	a5,4(s0)
    2730:	5018                	lw	a4,32(s0)
    2732:	4485                	li	s1,1
    2734:	9bbd                	andi	a5,a5,-17
    2736:	a05e                	sh	a5,4(s0)
    2738:	215e                	lhu	a5,4(a0)
    273a:	0107e793          	ori	a5,a5,16
    273e:	a15e                	sh	a5,4(a0)
    2740:	505c                	lw	a5,36(s0)
    2742:	d118                	sw	a4,32(a0)
    2744:	d15c                	sw	a5,36(a0)
    2746:	854a                	mv	a0,s2
    2748:	d59ff0ef          	jal	ra,24a0 <OsSchedTaskDeQueue>
    274c:	03092603          	lw	a2,48(s2)
    2750:	8a01a783          	lw	a5,-1888(gp) # 20000150 <g_idleTaskID>
    2754:	02f60f63          	beq	a2,a5,2792 <OsSchedTaskSwitch+0xc6>
    2758:	00892703          	lw	a4,8(s2)
    275c:	02092683          	lw	a3,32(s2)
    2760:	02492583          	lw	a1,36(s2)
    2764:	41f75793          	srai	a5,a4,0x1f
    2768:	96ba                	add	a3,a3,a4
    276a:	00e6b733          	sltu	a4,a3,a4
    276e:	97ae                	add	a5,a5,a1
    2770:	973e                	add	a4,a4,a5
    2772:	02092503          	lw	a0,32(s2)
    2776:	02492583          	lw	a1,36(s2)
    277a:	4785                	li	a5,1
    277c:	ab1ff0ef          	jal	ra,222c <OsSchedSetNextExpireTime>
    2780:	8526                	mv	a0,s1
    2782:	b17fd06f          	j	298 <__riscv_restore_4>
    2786:	8bad                	andi	a5,a5,11
    2788:	fbd1                	bnez	a5,271c <OsSchedTaskSwitch+0x50>
    278a:	8522                	mv	a0,s0
    278c:	c1dff0ef          	jal	ra,23a8 <OsSchedTaskEnQueue>
    2790:	b771                	j	271c <OsSchedTaskSwitch+0x50>
    2792:	200007b7          	lui	a5,0x20000
    2796:	0b07a683          	lw	a3,176(a5) # 200000b0 <SystemCoreClock>
    279a:	3e800793          	li	a5,1000
    279e:	5779                	li	a4,-2
    27a0:	02f6d6b3          	divu	a3,a3,a5
    27a4:	40d706b3          	sub	a3,a4,a3
    27a8:	00d73733          	sltu	a4,a4,a3
    27ac:	fff74713          	not	a4,a4
    27b0:	b7c9                	j	2772 <OsSchedTaskSwitch+0xa6>

000027b2 <LOS_SchedTickHandler>:
    27b2:	aa5fd2ef          	jal	t0,256 <__riscv_save_10>
    27b6:	8cc1a783          	lw	a5,-1844(gp) # 2000017c <g_taskScheduled>
    27ba:	eb95                	bnez	a5,27ee <LOS_SchedTickHandler+0x3c>
    27bc:	4505                	li	a0,1
    27be:	82dfe0ef          	jal	ra,fea <OsDoExcHook>
    27c2:	9fffd0ef          	jal	ra,1c0 <HalIntLock>
    27c6:	4509                	li	a0,2
    27c8:	843fe0ef          	jal	ra,100a <OsLogLevelCheck>
    27cc:	e105                	bnez	a0,27ec <LOS_SchedTickHandler+0x3a>
    27ce:	669d                	lui	a3,0x7
    27d0:	000075b7          	lui	a1,0x7
    27d4:	00007537          	lui	a0,0x7
    27d8:	24c68693          	addi	a3,a3,588 # 724c <__func__.6102>
    27dc:	21200613          	li	a2,530
    27e0:	1b458593          	addi	a1,a1,436 # 71b4 <__FUNCTION__.6856+0x2c>
    27e4:	1d850513          	addi	a0,a0,472 # 71d8 <__FUNCTION__.6856+0x50>
    27e8:	0e8030ef          	jal	ra,58d0 <iprintf>
    27ec:	a001                	j	27ec <LOS_SchedTickHandler+0x3a>
    27ee:	9d3fd0ef          	jal	ra,1c0 <HalIntLock>
    27f2:	8501a703          	lw	a4,-1968(gp) # 20000100 <g_schedResponseID>
    27f6:	57fd                	li	a5,-1
    27f8:	892a                	mv	s2,a0
    27fa:	4481                	li	s1,0
    27fc:	06f71b63          	bne	a4,a5,2872 <LOS_SchedTickHandler+0xc0>
    2800:	8601a783          	lw	a5,-1952(gp) # 20000110 <g_swtmrScan>
    2804:	c399                	beqz	a5,280a <LOS_SchedTickHandler+0x58>
    2806:	9782                	jalr	a5
    2808:	84aa                	mv	s1,a0
    280a:	8641a983          	lw	s3,-1948(gp) # 20000114 <g_taskSortLinkList>
    280e:	4b81                	li	s7,0
    2810:	86418a13          	addi	s4,gp,-1948 # 20000114 <g_taskSortLinkList>
    2814:	0049a403          	lw	s0,4(s3)
    2818:	04898b63          	beq	s3,s0,286e <LOS_SchedTickHandler+0xbc>
    281c:	949ff0ef          	jal	ra,2164 <OsGetCurrSchedTimeCycle>
    2820:	8b2a                	mv	s6,a0
    2822:	8aae                	mv	s5,a1
    2824:	445c                	lw	a5,12(s0)
    2826:	04fae463          	bltu	s5,a5,286e <LOS_SchedTickHandler+0xbc>
    282a:	01579563          	bne	a5,s5,2834 <LOS_SchedTickHandler+0x82>
    282e:	441c                	lw	a5,8(s0)
    2830:	02fb6f63          	bltu	s6,a5,286e <LOS_SchedTickHandler+0xbc>
    2834:	000a2503          	lw	a0,0(s4)
    2838:	85a2                	mv	a1,s0
    283a:	2a4d                	jal	29ec <OsDeleteNodeSortLink>
    283c:	ff445783          	lhu	a5,-12(s0)
    2840:	0287f713          	andi	a4,a5,40
    2844:	c30d                	beqz	a4,2866 <LOS_SchedTickHandler+0xb4>
    2846:	f577f713          	andi	a4,a5,-169
    284a:	0742                	slli	a4,a4,0x10
    284c:	0087f693          	andi	a3,a5,8
    2850:	8341                	srli	a4,a4,0x10
    2852:	e2a9                	bnez	a3,2894 <LOS_SchedTickHandler+0xe2>
    2854:	fee41a23          	sh	a4,-12(s0)
    2858:	8b89                	andi	a5,a5,2
    285a:	e791                	bnez	a5,2866 <LOS_SchedTickHandler+0xb4>
    285c:	ff040513          	addi	a0,s0,-16
    2860:	b49ff0ef          	jal	ra,23a8 <OsSchedTaskEnQueue>
    2864:	4b85                	li	s7,1
    2866:	0049a403          	lw	s0,4(s3)
    286a:	fa899de3          	bne	s3,s0,2824 <LOS_SchedTickHandler+0x72>
    286e:	0174e4b3          	or	s1,s1,s7
    2872:	5679                	li	a2,-2
    2874:	56fd                	li	a3,-1
    2876:	80c1a423          	sw	a2,-2040(gp) # 200000b8 <g_schedResponseTime>
    287a:	80d1a623          	sw	a3,-2036(gp) # 200000bc <g_schedResponseTime+0x4>
    287e:	cc85                	beqz	s1,28b6 <LOS_SchedTickHandler+0x104>
    2880:	8b41d783          	lhu	a5,-1868(gp) # 20000164 <g_losTaskLock>
    2884:	eb8d                	bnez	a5,28b6 <LOS_SchedTickHandler+0x104>
    2886:	587000ef          	jal	ra,360c <HalTaskSchedule>
    288a:	854a                	mv	a0,s2
    288c:	951fd0ef          	jal	ra,1dc <HalIntRestore>
    2890:	9fffd06f          	j	28e <__riscv_restore_10>
    2894:	04076713          	ori	a4,a4,64
    2898:	fee41a23          	sh	a4,-12(s0)
    289c:	5c54                	lw	a3,60(s0)
    289e:	5c18                	lw	a4,56(s0)
    28a0:	c298                	sw	a4,0(a3)
    28a2:	c354                	sw	a3,4(a4)
    28a4:	02042e23          	sw	zero,60(s0)
    28a8:	02042c23          	sw	zero,56(s0)
    28ac:	02042623          	sw	zero,44(s0)
    28b0:	02042423          	sw	zero,40(s0)
    28b4:	b755                	j	2858 <LOS_SchedTickHandler+0xa6>
    28b6:	8afff0ef          	jal	ra,2164 <OsGetCurrSchedTimeCycle>
    28ba:	8ac1a783          	lw	a5,-1876(gp) # 2000015c <g_losTask>
    28be:	53d4                	lw	a3,36(a5)
    28c0:	5398                	lw	a4,32(a5)
    28c2:	00d5e663          	bltu	a1,a3,28ce <LOS_SchedTickHandler+0x11c>
    28c6:	00b69663          	bne	a3,a1,28d2 <LOS_SchedTickHandler+0x120>
    28ca:	00e57463          	bgeu	a0,a4,28d2 <LOS_SchedTickHandler+0x120>
    28ce:	fc8ff0ef          	jal	ra,2096 <OsTimeSliceUpdate.part.1>
    28d2:	5b90                	lw	a2,48(a5)
    28d4:	8a01a683          	lw	a3,-1888(gp) # 20000150 <g_idleTaskID>
    28d8:	00d60863          	beq	a2,a3,28e8 <LOS_SchedTickHandler+0x136>
    28dc:	4794                	lw	a3,8(a5)
    28de:	40e50733          	sub	a4,a0,a4
    28e2:	40e68733          	sub	a4,a3,a4
    28e6:	c798                	sw	a4,8(a5)
    28e8:	d388                	sw	a0,32(a5)
    28ea:	d3cc                	sw	a1,36(a5)
    28ec:	4605                	li	a2,1
    28ee:	a49ff0ef          	jal	ra,2336 <OsSchedUpdateExpireTime>
    28f2:	bf61                	j	288a <LOS_SchedTickHandler+0xd8>

000028f4 <LOS_Schedule>:
    28f4:	8cc1a783          	lw	a5,-1844(gp) # 2000017c <g_taskScheduled>
    28f8:	cb91                	beqz	a5,290c <LOS_Schedule+0x18>
    28fa:	8b41d783          	lhu	a5,-1868(gp) # 20000164 <g_losTaskLock>
    28fe:	e799                	bnez	a5,290c <LOS_Schedule+0x18>
    2900:	97ffd2ef          	jal	t0,27e <__riscv_save_0>
    2904:	509000ef          	jal	ra,360c <HalTaskSchedule>
    2908:	99bfd06f          	j	2a2 <__riscv_restore_0>
    290c:	8082                	ret

0000290e <OsSemInit>:
    290e:	971fd2ef          	jal	t0,27e <__riscv_save_0>
    2912:	87418793          	addi	a5,gp,-1932 # 20000124 <g_unusedSemList>
    2916:	c3dc                	sw	a5,4(a5)
    2918:	c39c                	sw	a5,0(a5)
    291a:	82c1a503          	lw	a0,-2004(gp) # 200000dc <m_aucSysMem0>
    291e:	30000593          	li	a1,768
    2922:	ed3fe0ef          	jal	ra,17f4 <LOS_MemAlloc>
    2926:	86a1a823          	sw	a0,-1936(gp) # 20000120 <g_allSem>
    292a:	c915                	beqz	a0,295e <OsSemInit+0x50>
    292c:	87418413          	addi	s0,gp,-1932 # 20000124 <g_unusedSemList>
    2930:	0521                	addi	a0,a0,8
    2932:	4781                	li	a5,0
    2934:	03000613          	li	a2,48
    2938:	4018                	lw	a4,0(s0)
    293a:	fef51f23          	sh	a5,-2(a0)
    293e:	fe051c23          	sh	zero,-8(a0)
    2942:	4354                	lw	a3,4(a4)
    2944:	0785                	addi	a5,a5,1
    2946:	c118                	sw	a4,0(a0)
    2948:	c154                	sw	a3,4(a0)
    294a:	c288                	sw	a0,0(a3)
    294c:	07c2                	slli	a5,a5,0x10
    294e:	c348                	sw	a0,4(a4)
    2950:	83c1                	srli	a5,a5,0x10
    2952:	0541                	addi	a0,a0,16
    2954:	fec792e3          	bne	a5,a2,2938 <OsSemInit+0x2a>
    2958:	4501                	li	a0,0
    295a:	949fd06f          	j	2a2 <__riscv_restore_0>
    295e:	02000537          	lui	a0,0x2000
    2962:	70050513          	addi	a0,a0,1792 # 2000700 <_data_lma+0x1ff8ab4>
    2966:	bfd5                	j	295a <OsSemInit+0x4c>

00002968 <OsGetSortLinkNextExpireTime>:
    2968:	00452803          	lw	a6,4(a0)
    296c:	88aa                	mv	a7,a0
    296e:	03051363          	bne	a0,a6,2994 <OsGetSortLinkNextExpireTime+0x2c>
    2972:	200007b7          	lui	a5,0x20000
    2976:	0b07a503          	lw	a0,176(a5) # 200000b0 <SystemCoreClock>
    297a:	3e800793          	li	a5,1000
    297e:	02f55533          	divu	a0,a0,a5
    2982:	57f9                	li	a5,-2
    2984:	40a78533          	sub	a0,a5,a0
    2988:	00a7b7b3          	sltu	a5,a5,a0
    298c:	fff7c793          	not	a5,a5
    2990:	85be                	mv	a1,a5
    2992:	8082                	ret
    2994:	4501                	li	a0,0
    2996:	4781                	li	a5,0
    2998:	00c82703          	lw	a4,12(a6)
    299c:	00882683          	lw	a3,8(a6)
    29a0:	00e66d63          	bltu	a2,a4,29ba <OsGetSortLinkNextExpireTime+0x52>
    29a4:	00c71463          	bne	a4,a2,29ac <OsGetSortLinkNextExpireTime+0x44>
    29a8:	00d5e963          	bltu	a1,a3,29ba <OsGetSortLinkNextExpireTime+0x52>
    29ac:	00482803          	lw	a6,4(a6)
    29b0:	852e                	mv	a0,a1
    29b2:	87b2                	mv	a5,a2
    29b4:	ff0892e3          	bne	a7,a6,2998 <OsGetSortLinkNextExpireTime+0x30>
    29b8:	bfe1                	j	2990 <OsGetSortLinkNextExpireTime+0x28>
    29ba:	00f56633          	or	a2,a0,a5
    29be:	c205                	beqz	a2,29de <OsGetSortLinkNextExpireTime+0x76>
    29c0:	00e6e633          	or	a2,a3,a4
    29c4:	d671                	beqz	a2,2990 <OsGetSortLinkNextExpireTime+0x28>
    29c6:	40a68633          	sub	a2,a3,a0
    29ca:	00c6b5b3          	sltu	a1,a3,a2
    29ce:	40f70833          	sub	a6,a4,a5
    29d2:	fab81fe3          	bne	a6,a1,2990 <OsGetSortLinkNextExpireTime+0x28>
    29d6:	3e800593          	li	a1,1000
    29da:	fac5ebe3          	bltu	a1,a2,2990 <OsGetSortLinkNextExpireTime+0x28>
    29de:	8536                	mv	a0,a3
    29e0:	87ba                	mv	a5,a4
    29e2:	b77d                	j	2990 <OsGetSortLinkNextExpireTime+0x28>

000029e4 <OsSortLinkInit>:
    29e4:	c148                	sw	a0,4(a0)
    29e6:	c108                	sw	a0,0(a0)
    29e8:	4501                	li	a0,0
    29ea:	8082                	ret

000029ec <OsDeleteNodeSortLink>:
    29ec:	41d8                	lw	a4,4(a1)
    29ee:	419c                	lw	a5,0(a1)
    29f0:	c31c                	sw	a5,0(a4)
    29f2:	c3d8                	sw	a4,4(a5)
    29f4:	577d                	li	a4,-1
    29f6:	57fd                	li	a5,-1
    29f8:	0005a223          	sw	zero,4(a1)
    29fc:	0005a023          	sw	zero,0(a1)
    2a00:	c598                	sw	a4,8(a1)
    2a02:	c5dc                	sw	a5,12(a1)
    2a04:	8082                	ret

00002a06 <OsAdd2SortLink>:
    2a06:	879fd2ef          	jal	t0,27e <__riscv_save_0>
    2a0a:	4785                	li	a5,1
    2a0c:	1141                	addi	sp,sp,-16
    2a0e:	842a                	mv	s0,a0
    2a10:	00f70c63          	beq	a4,a5,2a28 <OsAdd2SortLink+0x22>
    2a14:	4789                	li	a5,2
    2a16:	06f70363          	beq	a4,a5,2a7c <OsAdd2SortLink+0x76>
    2a1a:	00007537          	lui	a0,0x7
    2a1e:	85ba                	mv	a1,a4
    2a20:	26450513          	addi	a0,a0,612 # 7264 <__func__.6102+0x18>
    2a24:	908ff0ef          	jal	ra,1b2c <LOS_Panic>
    2a28:	88418493          	addi	s1,gp,-1916 # 20000134 <g_taskSortLink>
    2a2c:	c632                	sw	a2,12(sp)
    2a2e:	c42e                	sw	a1,8(sp)
    2a30:	c236                	sw	a3,4(sp)
    2a32:	f8efd0ef          	jal	ra,1c0 <HalIntLock>
    2a36:	200007b7          	lui	a5,0x20000
    2a3a:	0b07a703          	lw	a4,176(a5) # 200000b0 <SystemCoreClock>
    2a3e:	3e800793          	li	a5,1000
    2a42:	4692                	lw	a3,4(sp)
    2a44:	02f75733          	divu	a4,a4,a5
    2a48:	45a2                	lw	a1,8(sp)
    2a4a:	4632                	lw	a2,12(sp)
    2a4c:	02d707b3          	mul	a5,a4,a3
    2a50:	02d73733          	mulhu	a4,a4,a3
    2a54:	95be                	add	a1,a1,a5
    2a56:	00f5b7b3          	sltu	a5,a1,a5
    2a5a:	c40c                	sw	a1,8(s0)
    2a5c:	9732                	add	a4,a4,a2
    2a5e:	00e78633          	add	a2,a5,a4
    2a62:	40dc                	lw	a5,4(s1)
    2a64:	c450                	sw	a2,12(s0)
    2a66:	00f49e63          	bne	s1,a5,2a82 <OsAdd2SortLink+0x7c>
    2a6a:	c044                	sw	s1,4(s0)
    2a6c:	c004                	sw	s1,0(s0)
    2a6e:	c080                	sw	s0,0(s1)
    2a70:	c0c0                	sw	s0,4(s1)
    2a72:	f6afd0ef          	jal	ra,1dc <HalIntRestore>
    2a76:	0141                	addi	sp,sp,16
    2a78:	82bfd06f          	j	2a2 <__riscv_restore_0>
    2a7c:	87c18493          	addi	s1,gp,-1924 # 2000012c <g_swtmrSortLink>
    2a80:	b775                	j	2a2c <OsAdd2SortLink+0x26>
    2a82:	47d8                	lw	a4,12(a5)
    2a84:	4794                	lw	a3,8(a5)
    2a86:	00e66663          	bltu	a2,a4,2a92 <OsAdd2SortLink+0x8c>
    2a8a:	00c71863          	bne	a4,a2,2a9a <OsAdd2SortLink+0x94>
    2a8e:	00d5f663          	bgeu	a1,a3,2a9a <OsAdd2SortLink+0x94>
    2a92:	c05c                	sw	a5,4(s0)
    2a94:	c004                	sw	s1,0(s0)
    2a96:	c380                	sw	s0,0(a5)
    2a98:	bfe1                	j	2a70 <OsAdd2SortLink+0x6a>
    2a9a:	00d59a63          	bne	a1,a3,2aae <OsAdd2SortLink+0xa8>
    2a9e:	00e61863          	bne	a2,a4,2aae <OsAdd2SortLink+0xa8>
    2aa2:	43d8                	lw	a4,4(a5)
    2aa4:	c01c                	sw	a5,0(s0)
    2aa6:	c058                	sw	a4,4(s0)
    2aa8:	c300                	sw	s0,0(a4)
    2aaa:	c3c0                	sw	s0,4(a5)
    2aac:	b7d9                	j	2a72 <OsAdd2SortLink+0x6c>
    2aae:	409c                	lw	a5,0(s1)
    2ab0:	47d8                	lw	a4,12(a5)
    2ab2:	00e66763          	bltu	a2,a4,2ac0 <OsAdd2SortLink+0xba>
    2ab6:	fec716e3          	bne	a4,a2,2aa2 <OsAdd2SortLink+0x9c>
    2aba:	4798                	lw	a4,8(a5)
    2abc:	fee5f3e3          	bgeu	a1,a4,2aa2 <OsAdd2SortLink+0x9c>
    2ac0:	439c                	lw	a5,0(a5)
    2ac2:	b7fd                	j	2ab0 <OsAdd2SortLink+0xaa>

00002ac4 <OsDeleteSortLink>:
    2ac4:	fbafd2ef          	jal	t0,27e <__riscv_save_0>
    2ac8:	fff58713          	addi	a4,a1,-1
    2acc:	4785                	li	a5,1
    2ace:	00e7f863          	bgeu	a5,a4,2ade <OsDeleteSortLink+0x1a>
    2ad2:	00007537          	lui	a0,0x7
    2ad6:	26450513          	addi	a0,a0,612 # 7264 <__func__.6102+0x18>
    2ada:	852ff0ef          	jal	ra,1b2c <LOS_Panic>
    2ade:	842a                	mv	s0,a0
    2ae0:	ee0fd0ef          	jal	ra,1c0 <HalIntLock>
    2ae4:	441c                	lw	a5,8(s0)
    2ae6:	577d                	li	a4,-1
    2ae8:	00e79563          	bne	a5,a4,2af2 <OsDeleteSortLink+0x2e>
    2aec:	4458                	lw	a4,12(s0)
    2aee:	00f70e63          	beq	a4,a5,2b0a <OsDeleteSortLink+0x46>
    2af2:	4058                	lw	a4,4(s0)
    2af4:	401c                	lw	a5,0(s0)
    2af6:	c31c                	sw	a5,0(a4)
    2af8:	c3d8                	sw	a4,4(a5)
    2afa:	577d                	li	a4,-1
    2afc:	57fd                	li	a5,-1
    2afe:	00042223          	sw	zero,4(s0)
    2b02:	00042023          	sw	zero,0(s0)
    2b06:	c418                	sw	a4,8(s0)
    2b08:	c45c                	sw	a5,12(s0)
    2b0a:	ed2fd0ef          	jal	ra,1dc <HalIntRestore>
    2b0e:	f94fd06f          	j	2a2 <__riscv_restore_0>

00002b12 <OsGetSortLinkAttribute>:
    2b12:	f6cfd2ef          	jal	t0,27e <__riscv_save_0>
    2b16:	4785                	li	a5,1
    2b18:	02f50363          	beq	a0,a5,2b3e <OsGetSortLinkAttribute+0x2c>
    2b1c:	4789                	li	a5,2
    2b1e:	02f50363          	beq	a0,a5,2b44 <OsGetSortLinkAttribute+0x32>
    2b22:	4509                	li	a0,2
    2b24:	ce6fe0ef          	jal	ra,100a <OsLogLevelCheck>
    2b28:	4401                	li	s0,0
    2b2a:	e519                	bnez	a0,2b38 <OsGetSortLinkAttribute+0x26>
    2b2c:	00007537          	lui	a0,0x7
    2b30:	28050513          	addi	a0,a0,640 # 7280 <__func__.6102+0x34>
    2b34:	6b7020ef          	jal	ra,59ea <puts>
    2b38:	8522                	mv	a0,s0
    2b3a:	f68fd06f          	j	2a2 <__riscv_restore_0>
    2b3e:	88418413          	addi	s0,gp,-1916 # 20000134 <g_taskSortLink>
    2b42:	bfdd                	j	2b38 <OsGetSortLinkAttribute+0x26>
    2b44:	87c18413          	addi	s0,gp,-1924 # 2000012c <g_swtmrSortLink>
    2b48:	bfc5                	j	2b38 <OsGetSortLinkAttribute+0x26>

00002b4a <OsGetNextExpireTime>:
    2b4a:	f1afd2ef          	jal	t0,264 <__riscv_save_4>
    2b4e:	89ae                	mv	s3,a1
    2b50:	892a                	mv	s2,a0
    2b52:	e6efd0ef          	jal	ra,1c0 <HalIntLock>
    2b56:	8a2a                	mv	s4,a0
    2b58:	864e                	mv	a2,s3
    2b5a:	85ca                	mv	a1,s2
    2b5c:	88418513          	addi	a0,gp,-1916 # 20000134 <g_taskSortLink>
    2b60:	e09ff0ef          	jal	ra,2968 <OsGetSortLinkNextExpireTime>
    2b64:	84aa                	mv	s1,a0
    2b66:	842e                	mv	s0,a1
    2b68:	864e                	mv	a2,s3
    2b6a:	85ca                	mv	a1,s2
    2b6c:	87c18513          	addi	a0,gp,-1924 # 2000012c <g_swtmrSortLink>
    2b70:	df9ff0ef          	jal	ra,2968 <OsGetSortLinkNextExpireTime>
    2b74:	89aa                	mv	s3,a0
    2b76:	892e                	mv	s2,a1
    2b78:	8552                	mv	a0,s4
    2b7a:	e62fd0ef          	jal	ra,1dc <HalIntRestore>
    2b7e:	00896863          	bltu	s2,s0,2b8e <OsGetNextExpireTime+0x44>
    2b82:	8526                	mv	a0,s1
    2b84:	85a2                	mv	a1,s0
    2b86:	01241663          	bne	s0,s2,2b92 <OsGetNextExpireTime+0x48>
    2b8a:	0099f463          	bgeu	s3,s1,2b92 <OsGetNextExpireTime+0x48>
    2b8e:	854e                	mv	a0,s3
    2b90:	85ca                	mv	a1,s2
    2b92:	f06fd06f          	j	298 <__riscv_restore_4>

00002b96 <OsSortLinkGetTargetExpireTime>:
    2b96:	465c                	lw	a5,12(a2)
    2b98:	4618                	lw	a4,8(a2)
    2b9a:	00f5e663          	bltu	a1,a5,2ba6 <OsSortLinkGetTargetExpireTime+0x10>
    2b9e:	02b79e63          	bne	a5,a1,2bda <OsSortLinkGetTargetExpireTime+0x44>
    2ba2:	02e57c63          	bgeu	a0,a4,2bda <OsSortLinkGetTargetExpireTime+0x44>
    2ba6:	ed8fd2ef          	jal	t0,27e <__riscv_save_0>
    2baa:	40a70533          	sub	a0,a4,a0
    2bae:	00a73733          	sltu	a4,a4,a0
    2bb2:	8f8d                	sub	a5,a5,a1
    2bb4:	8f99                	sub	a5,a5,a4
    2bb6:	3e800713          	li	a4,1000
    2bba:	02a735b3          	mulhu	a1,a4,a0
    2bbe:	200006b7          	lui	a3,0x20000
    2bc2:	0b06a603          	lw	a2,176(a3) # 200000b0 <SystemCoreClock>
    2bc6:	4681                	li	a3,0
    2bc8:	02f707b3          	mul	a5,a4,a5
    2bcc:	02a70533          	mul	a0,a4,a0
    2bd0:	95be                	add	a1,a1,a5
    2bd2:	02e020ef          	jal	ra,4c00 <__udivdi3>
    2bd6:	eccfd06f          	j	2a2 <__riscv_restore_0>
    2bda:	4501                	li	a0,0
    2bdc:	8082                	ret

00002bde <OsSwtmrTask>:
    2bde:	e78fd2ef          	jal	t0,256 <__riscv_save_10>
    2be2:	1141                	addi	sp,sp,-16
    2be4:	47a1                	li	a5,8
    2be6:	c23e                	sw	a5,4(sp)
    2be8:	4b21                	li	s6,8
    2bea:	3e800993          	li	s3,1000
    2bee:	00007a37          	lui	s4,0x7
    2bf2:	4b85                	li	s7,1
    2bf4:	8941a503          	lw	a0,-1900(gp) # 20000144 <g_swtmrHandlerQueue>
    2bf8:	56fd                	li	a3,-1
    2bfa:	0050                	addi	a2,sp,4
    2bfc:	002c                	addi	a1,sp,8
    2bfe:	bd4ff0ef          	jal	ra,1fd2 <LOS_QueueReadCopy>
    2c02:	f96d                	bnez	a0,2bf4 <OsSwtmrTask+0x16>
    2c04:	4792                	lw	a5,4(sp)
    2c06:	ff6797e3          	bne	a5,s6,2bf4 <OsSwtmrTask+0x16>
    2c0a:	47a2                	lw	a5,8(sp)
    2c0c:	d7e5                	beqz	a5,2bf4 <OsSwtmrTask+0x16>
    2c0e:	153000ef          	jal	ra,3560 <LOS_TickCountGet>
    2c12:	892a                	mv	s2,a0
    2c14:	47a2                	lw	a5,8(sp)
    2c16:	4532                	lw	a0,12(sp)
    2c18:	84ae                	mv	s1,a1
    2c1a:	9782                	jalr	a5
    2c1c:	145000ef          	jal	ra,3560 <LOS_TickCountGet>
    2c20:	41250933          	sub	s2,a0,s2
    2c24:	01253533          	sltu	a0,a0,s2
    2c28:	8d85                	sub	a1,a1,s1
    2c2a:	40a58433          	sub	s0,a1,a0
    2c2e:	e019                	bnez	s0,2c34 <OsSwtmrTask+0x56>
    2c30:	fd2bf2e3          	bgeu	s7,s2,2bf4 <OsSwtmrTask+0x16>
    2c34:	450d                	li	a0,3
    2c36:	bd4fe0ef          	jal	ra,100a <OsLogLevelCheck>
    2c3a:	fd4d                	bnez	a0,2bf4 <OsSwtmrTask+0x16>
    2c3c:	02898433          	mul	s0,s3,s0
    2c40:	3e800613          	li	a2,1000
    2c44:	4681                	li	a3,0
    2c46:	0329b5b3          	mulhu	a1,s3,s2
    2c4a:	03298533          	mul	a0,s3,s2
    2c4e:	95a2                	add	a1,a1,s0
    2c50:	7b1010ef          	jal	ra,4c00 <__udivdi3>
    2c54:	45a2                	lw	a1,8(sp)
    2c56:	862a                	mv	a2,a0
    2c58:	298a0513          	addi	a0,s4,664 # 7298 <__func__.6102+0x4c>
    2c5c:	475020ef          	jal	ra,58d0 <iprintf>
    2c60:	bf51                	j	2bf4 <OsSwtmrTask+0x16>

00002c62 <OsSwtmrDelete>:
    2c62:	e1cfd2ef          	jal	t0,27e <__riscv_save_0>
    2c66:	89018793          	addi	a5,gp,-1904 # 20000140 <g_swtmrFreeList>
    2c6a:	4398                	lw	a4,0(a5)
    2c6c:	00050223          	sb	zero,4(a0)
    2c70:	4691                	li	a3,4
    2c72:	c118                	sw	a4,0(a0)
    2c74:	c388                	sw	a0,0(a5)
    2c76:	451c                	lw	a5,8(a0)
    2c78:	4519                	li	a0,6
    2c7a:	4601                	li	a2,0
    2c7c:	02a7f7b3          	remu	a5,a5,a0
    2c80:	20008537          	lui	a0,0x20008
    2c84:	74850513          	addi	a0,a0,1864 # 20008748 <g_swtmrAlignID>
    2c88:	4591                	li	a1,4
    2c8a:	078a                	slli	a5,a5,0x2
    2c8c:	953e                	add	a0,a0,a5
    2c8e:	c58fe0ef          	jal	ra,10e6 <memset_s>
    2c92:	e10fd06f          	j	2a2 <__riscv_restore_0>

00002c96 <OsSwtmrTaskCreate>:
    2c96:	de8fd2ef          	jal	t0,27e <__riscv_save_0>
    2c9a:	1101                	addi	sp,sp,-32
    2c9c:	46e1                	li	a3,24
    2c9e:	4601                	li	a2,0
    2ca0:	45e1                	li	a1,24
    2ca2:	0028                	addi	a0,sp,8
    2ca4:	c42fe0ef          	jal	ra,10e6 <memset_s>
    2ca8:	000037b7          	lui	a5,0x3
    2cac:	bde78793          	addi	a5,a5,-1058 # 2bde <OsSwtmrTask>
    2cb0:	c43e                	sw	a5,8(sp)
    2cb2:	2d000793          	li	a5,720
    2cb6:	ca3e                	sw	a5,20(sp)
    2cb8:	000077b7          	lui	a5,0x7
    2cbc:	2c078793          	addi	a5,a5,704 # 72c0 <__func__.6102+0x74>
    2cc0:	002c                	addi	a1,sp,8
    2cc2:	8b818513          	addi	a0,gp,-1864 # 20000168 <g_swtmrTaskID>
    2cc6:	cc3e                	sw	a5,24(sp)
    2cc8:	00011623          	sh	zero,12(sp)
    2ccc:	2d05                	jal	32fc <LOS_TaskCreate>
    2cce:	6105                	addi	sp,sp,32
    2cd0:	dd2fd06f          	j	2a2 <__riscv_restore_0>

00002cd4 <OsSwtmrFindAlignPos>:
    2cd4:	8981af03          	lw	t5,-1896(gp) # 20000148 <g_swtmrSortLinkList>
    2cd8:	004f2803          	lw	a6,4(t5)
    2cdc:	110f0c63          	beq	t5,a6,2df4 <OsSwtmrFindAlignPos+0x120>
    2ce0:	d84fd2ef          	jal	t0,264 <__riscv_save_4>
    2ce4:	461c                	lw	a5,8(a2)
    2ce6:	4719                	li	a4,6
    2ce8:	20008e37          	lui	t3,0x20008
    2cec:	02e7f7b3          	remu	a5,a5,a4
    2cf0:	748e0713          	addi	a4,t3,1864 # 20008748 <g_swtmrAlignID>
    2cf4:	8432                	mv	s0,a2
    2cf6:	52fd                	li	t0,-1
    2cf8:	5ffd                	li	t6,-1
    2cfa:	4601                	li	a2,0
    2cfc:	4e81                	li	t4,0
    2cfe:	748e0e13          	addi	t3,t3,1864
    2d02:	4919                	li	s2,6
    2d04:	ff0003b7          	lui	t2,0xff000
    2d08:	c00004b7          	lui	s1,0xc0000
    2d0c:	078a                	slli	a5,a5,0x2
    2d0e:	97ba                	add	a5,a5,a4
    2d10:	0007a303          	lw	t1,0(a5)
    2d14:	01000737          	lui	a4,0x1000
    2d18:	177d                	addi	a4,a4,-1
    2d1a:	00e378b3          	and	a7,t1,a4
    2d1e:	00e8f9b3          	and	s3,a7,a4
    2d22:	fe882783          	lw	a5,-24(a6)
    2d26:	0327f7b3          	remu	a5,a5,s2
    2d2a:	078a                	slli	a5,a5,0x2
    2d2c:	97f2                	add	a5,a5,t3
    2d2e:	4394                	lw	a3,0(a5)
    2d30:	00e6f7b3          	and	a5,a3,a4
    2d34:	00e7fa33          	and	s4,a5,a4
    2d38:	0076f6b3          	and	a3,a3,t2
    2d3c:	0146e6b3          	or	a3,a3,s4
    2d40:	0096fa33          	and	s4,a3,s1
    2d44:	049a1763          	bne	s4,s1,2d92 <OsSwtmrFindAlignPos+0xbe>
    2d48:	01042a03          	lw	s4,16(s0)
    2d4c:	ff082a83          	lw	s5,-16(a6)
    2d50:	014a9763          	bne	s5,s4,2d5e <OsSwtmrFindAlignPos+0x8a>
    2d54:	8642                	mv	a2,a6
    2d56:	e41ff0ef          	jal	ra,2b96 <OsSortLinkGetTargetExpireTime>
    2d5a:	c448                	sw	a0,12(s0)
    2d5c:	a89d                	j	2dd2 <OsSwtmrFindAlignPos+0xfe>
    2d5e:	00737333          	and	t1,t1,t2
    2d62:	01336333          	or	t1,t1,s3
    2d66:	00231a13          	slli	s4,t1,0x2
    2d6a:	020a5463          	bgez	s4,2d92 <OsSwtmrFindAlignPos+0xbe>
    2d6e:	8ef9                	and	a3,a3,a4
    2d70:	c28d                	beqz	a3,2d92 <OsSwtmrFindAlignPos+0xbe>
    2d72:	06088063          	beqz	a7,2dd2 <OsSwtmrFindAlignPos+0xfe>
    2d76:	fe080693          	addi	a3,a6,-32
    2d7a:	0517ee63          	bltu	a5,a7,2dd6 <OsSwtmrFindAlignPos+0x102>
    2d7e:	0317fa33          	remu	s4,a5,a7
    2d82:	000a1863          	bnez	s4,2d92 <OsSwtmrFindAlignPos+0xbe>
    2d86:	0317d7b3          	divu	a5,a5,a7
    2d8a:	01f7f463          	bgeu	a5,t6,2d92 <OsSwtmrFindAlignPos+0xbe>
    2d8e:	8fbe                	mv	t6,a5
    2d90:	8eb6                	mv	t4,a3
    2d92:	00482803          	lw	a6,4(a6)
    2d96:	f90f16e3          	bne	t5,a6,2d22 <OsSwtmrFindAlignPos+0x4e>
    2d9a:	040e8963          	beqz	t4,2dec <OsSwtmrFindAlignPos+0x118>
    2d9e:	4804                	lw	s1,16(s0)
    2da0:	c885                	beqz	s1,2dd0 <OsSwtmrFindAlignPos+0xfc>
    2da2:	008ea783          	lw	a5,8(t4)
    2da6:	4719                	li	a4,6
    2da8:	02e7f7b3          	remu	a5,a5,a4
    2dac:	03000713          	li	a4,48
    2db0:	02e787b3          	mul	a5,a5,a4
    2db4:	88c1a903          	lw	s2,-1908(gp) # 2000013c <g_swtmrCBArray>
    2db8:	993e                	add	s2,s2,a5
    2dba:	02090613          	addi	a2,s2,32
    2dbe:	dd9ff0ef          	jal	ra,2b96 <OsSortLinkGetTargetExpireTime>
    2dc2:	01092783          	lw	a5,16(s2)
    2dc6:	40a78533          	sub	a0,a5,a0
    2dca:	02957533          	remu	a0,a0,s1
    2dce:	8c89                	sub	s1,s1,a0
    2dd0:	c444                	sw	s1,12(s0)
    2dd2:	cc6fd06f          	j	298 <__riscv_restore_4>
    2dd6:	02f8fa33          	remu	s4,a7,a5
    2dda:	fa0a1ce3          	bnez	s4,2d92 <OsSwtmrFindAlignPos+0xbe>
    2dde:	02f8d7b3          	divu	a5,a7,a5
    2de2:	fa57f8e3          	bgeu	a5,t0,2d92 <OsSwtmrFindAlignPos+0xbe>
    2de6:	82be                	mv	t0,a5
    2de8:	8636                	mv	a2,a3
    2dea:	b765                	j	2d92 <OsSwtmrFindAlignPos+0xbe>
    2dec:	d27d                	beqz	a2,2dd2 <OsSwtmrFindAlignPos+0xfe>
    2dee:	02060613          	addi	a2,a2,32
    2df2:	b795                	j	2d56 <OsSwtmrFindAlignPos+0x82>
    2df4:	8082                	ret

00002df6 <OsSwtmrStart>:
    2df6:	1141                	addi	sp,sp,-16
    2df8:	c422                	sw	s0,8(sp)
    2dfa:	c24a                	sw	s2,4(sp)
    2dfc:	842a                	mv	s0,a0
    2dfe:	c04e                	sw	s3,0(sp)
    2e00:	c606                	sw	ra,12(sp)
    2e02:	b62ff0ef          	jal	ra,2164 <OsGetCurrSchedTimeCycle>
    2e06:	481c                	lw	a5,16(s0)
    2e08:	4719                	li	a4,6
    2e0a:	892a                	mv	s2,a0
    2e0c:	c45c                	sw	a5,12(s0)
    2e0e:	4789                	li	a5,2
    2e10:	a05c                	sb	a5,4(s0)
    2e12:	441c                	lw	a5,8(s0)
    2e14:	89ae                	mv	s3,a1
    2e16:	02e7f7b3          	remu	a5,a5,a4
    2e1a:	00279713          	slli	a4,a5,0x2
    2e1e:	200087b7          	lui	a5,0x20008
    2e22:	74878793          	addi	a5,a5,1864 # 20008748 <g_swtmrAlignID>
    2e26:	97ba                	add	a5,a5,a4
    2e28:	4398                	lw	a4,0(a5)
    2e2a:	01e75693          	srli	a3,a4,0x1e
    2e2e:	8a85                	andi	a3,a3,1
    2e30:	ca91                	beqz	a3,2e44 <OsSwtmrStart+0x4e>
    2e32:	00074963          	bltz	a4,2e44 <OsSwtmrStart+0x4e>
    2e36:	800006b7          	lui	a3,0x80000
    2e3a:	8f55                	or	a4,a4,a3
    2e3c:	c398                	sw	a4,0(a5)
    2e3e:	8622                	mv	a2,s0
    2e40:	e95ff0ef          	jal	ra,2cd4 <OsSwtmrFindAlignPos>
    2e44:	4454                	lw	a3,12(s0)
    2e46:	4709                	li	a4,2
    2e48:	85ca                	mv	a1,s2
    2e4a:	864e                	mv	a2,s3
    2e4c:	02040513          	addi	a0,s0,32
    2e50:	bb7ff0ef          	jal	ra,2a06 <OsAdd2SortLink>
    2e54:	6f6000ef          	jal	ra,354a <LOS_TaskIsRunning>
    2e58:	c511                	beqz	a0,2e64 <OsSwtmrStart+0x6e>
    2e5a:	4605                	li	a2,1
    2e5c:	854a                	mv	a0,s2
    2e5e:	85ce                	mv	a1,s3
    2e60:	cd6ff0ef          	jal	ra,2336 <OsSchedUpdateExpireTime>
    2e64:	40b2                	lw	ra,12(sp)
    2e66:	4422                	lw	s0,8(sp)
    2e68:	4912                	lw	s2,4(sp)
    2e6a:	4982                	lw	s3,0(sp)
    2e6c:	0141                	addi	sp,sp,16
    2e6e:	8082                	ret

00002e70 <OsSwtmrScan>:
    2e70:	be6fd2ef          	jal	t0,256 <__riscv_save_10>
    2e74:	8981a483          	lw	s1,-1896(gp) # 20000148 <g_swtmrSortLinkList>
    2e78:	1141                	addi	sp,sp,-16
    2e7a:	4501                	li	a0,0
    2e7c:	40c0                	lw	s0,4(s1)
    2e7e:	06848a63          	beq	s1,s0,2ef2 <OsSwtmrScan+0x82>
    2e82:	ae2ff0ef          	jal	ra,2164 <OsGetCurrSchedTimeCycle>
    2e86:	8aaa                	mv	s5,a0
    2e88:	89818913          	addi	s2,gp,-1896 # 20000148 <g_swtmrSortLinkList>
    2e8c:	89ae                	mv	s3,a1
    2e8e:	4501                	li	a0,0
    2e90:	4a05                	li	s4,1
    2e92:	4b89                	li	s7,2
    2e94:	5c55                	li	s8,-11
    2e96:	4c99                	li	s9,6
    2e98:	445c                	lw	a5,12(s0)
    2e9a:	04f9ec63          	bltu	s3,a5,2ef2 <OsSwtmrScan+0x82>
    2e9e:	01379563          	bne	a5,s3,2ea8 <OsSwtmrScan+0x38>
    2ea2:	441c                	lw	a5,8(s0)
    2ea4:	04fae763          	bltu	s5,a5,2ef2 <OsSwtmrScan+0x82>
    2ea8:	00092503          	lw	a0,0(s2)
    2eac:	85a2                	mv	a1,s0
    2eae:	fe040d13          	addi	s10,s0,-32
    2eb2:	b3bff0ef          	jal	ra,29ec <OsDeleteNodeSortLink>
    2eb6:	ff842783          	lw	a5,-8(s0)
    2eba:	8941a503          	lw	a0,-1900(gp) # 20000144 <g_swtmrHandlerQueue>
    2ebe:	4681                	li	a3,0
    2ec0:	c43e                	sw	a5,8(sp)
    2ec2:	ff442783          	lw	a5,-12(s0)
    2ec6:	4621                	li	a2,8
    2ec8:	002c                	addi	a1,sp,8
    2eca:	c63e                	sw	a5,12(sp)
    2ecc:	96aff0ef          	jal	ra,2036 <LOS_QueueWriteCopy>
    2ed0:	fe544783          	lbu	a5,-27(s0)
    2ed4:	e78d                	bnez	a5,2efe <OsSwtmrScan+0x8e>
    2ed6:	856a                	mv	a0,s10
    2ed8:	d8bff0ef          	jal	ra,2c62 <OsSwtmrDelete>
    2edc:	fe842783          	lw	a5,-24(s0)
    2ee0:	00fc6c63          	bltu	s8,a5,2ef8 <OsSwtmrScan+0x88>
    2ee4:	0799                	addi	a5,a5,6
    2ee6:	fef42423          	sw	a5,-24(s0)
    2eea:	40c0                	lw	s0,4(s1)
    2eec:	4505                	li	a0,1
    2eee:	fa8495e3          	bne	s1,s0,2e98 <OsSwtmrScan+0x28>
    2ef2:	0141                	addi	sp,sp,16
    2ef4:	b9afd06f          	j	28e <__riscv_restore_10>
    2ef8:	0397f7b3          	remu	a5,a5,s9
    2efc:	b7ed                	j	2ee6 <OsSwtmrScan+0x76>
    2efe:	01479663          	bne	a5,s4,2f0a <OsSwtmrScan+0x9a>
    2f02:	856a                	mv	a0,s10
    2f04:	ef3ff0ef          	jal	ra,2df6 <OsSwtmrStart>
    2f08:	b7cd                	j	2eea <OsSwtmrScan+0x7a>
    2f0a:	ff7790e3          	bne	a5,s7,2eea <OsSwtmrScan+0x7a>
    2f0e:	ff440223          	sb	s4,-28(s0)
    2f12:	bfe1                	j	2eea <OsSwtmrScan+0x7a>

00002f14 <OsSwtmrInit>:
    2f14:	b6afd2ef          	jal	t0,27e <__riscv_save_0>
    2f18:	20008537          	lui	a0,0x20008
    2f1c:	45e1                	li	a1,24
    2f1e:	46e1                	li	a3,24
    2f20:	4601                	li	a2,0
    2f22:	74850513          	addi	a0,a0,1864 # 20008748 <g_swtmrAlignID>
    2f26:	9c0fe0ef          	jal	ra,10e6 <memset_s>
    2f2a:	82c1a503          	lw	a0,-2004(gp) # 200000dc <m_aucSysMem0>
    2f2e:	12000593          	li	a1,288
    2f32:	8c3fe0ef          	jal	ra,17f4 <LOS_MemAlloc>
    2f36:	c555                	beqz	a0,2fe2 <OsSwtmrInit+0xce>
    2f38:	12000693          	li	a3,288
    2f3c:	4601                	li	a2,0
    2f3e:	12000593          	li	a1,288
    2f42:	842a                	mv	s0,a0
    2f44:	9a2fe0ef          	jal	ra,10e6 <memset_s>
    2f48:	8881a623          	sw	s0,-1908(gp) # 2000013c <g_swtmrCBArray>
    2f4c:	8881a823          	sw	s0,-1904(gp) # 20000140 <g_swtmrFreeList>
    2f50:	00042423          	sw	zero,8(s0)
    2f54:	03040793          	addi	a5,s0,48
    2f58:	4705                	li	a4,1
    2f5a:	4699                	li	a3,6
    2f5c:	c798                	sw	a4,8(a5)
    2f5e:	fcf7a823          	sw	a5,-48(a5)
    2f62:	0705                	addi	a4,a4,1
    2f64:	03078793          	addi	a5,a5,48
    2f68:	fed71ae3          	bne	a4,a3,2f5c <OsSwtmrInit+0x48>
    2f6c:	4721                	li	a4,8
    2f6e:	4681                	li	a3,0
    2f70:	89418613          	addi	a2,gp,-1900 # 20000144 <g_swtmrHandlerQueue>
    2f74:	4599                	li	a1,6
    2f76:	4501                	li	a0,0
    2f78:	12040413          	addi	s0,s0,288
    2f7c:	d73fe0ef          	jal	ra,1cee <LOS_QueueCreate>
    2f80:	cd01                	beqz	a0,2f98 <OsSwtmrInit+0x84>
    2f82:	82c1a503          	lw	a0,-2004(gp) # 200000dc <m_aucSysMem0>
    2f86:	85a2                	mv	a1,s0
    2f88:	d3efe0ef          	jal	ra,14c6 <LOS_MemFree>
    2f8c:	02000537          	lui	a0,0x2000
    2f90:	30b50513          	addi	a0,a0,779 # 200030b <_data_lma+0x1ff86bf>
    2f94:	b0efd06f          	j	2a2 <__riscv_restore_0>
    2f98:	cffff0ef          	jal	ra,2c96 <OsSwtmrTaskCreate>
    2f9c:	c919                	beqz	a0,2fb2 <OsSwtmrInit+0x9e>
    2f9e:	82c1a503          	lw	a0,-2004(gp) # 200000dc <m_aucSysMem0>
    2fa2:	85a2                	mv	a1,s0
    2fa4:	d22fe0ef          	jal	ra,14c6 <LOS_MemFree>
    2fa8:	02000537          	lui	a0,0x2000
    2fac:	30c50513          	addi	a0,a0,780 # 200030c <_data_lma+0x1ff86c0>
    2fb0:	b7d5                	j	2f94 <OsSwtmrInit+0x80>
    2fb2:	4509                	li	a0,2
    2fb4:	b5fff0ef          	jal	ra,2b12 <OsGetSortLinkAttribute>
    2fb8:	88a1ac23          	sw	a0,-1896(gp) # 20000148 <g_swtmrSortLinkList>
    2fbc:	e901                	bnez	a0,2fcc <OsSwtmrInit+0xb8>
    2fbe:	82c1a503          	lw	a0,-2004(gp) # 200000dc <m_aucSysMem0>
    2fc2:	85a2                	mv	a1,s0
    2fc4:	d02fe0ef          	jal	ra,14c6 <LOS_MemFree>
    2fc8:	4505                	li	a0,1
    2fca:	b7e9                	j	2f94 <OsSwtmrInit+0x80>
    2fcc:	a19ff0ef          	jal	ra,29e4 <OsSortLinkInit>
    2fd0:	f57d                	bnez	a0,2fbe <OsSwtmrInit+0xaa>
    2fd2:	00003537          	lui	a0,0x3
    2fd6:	e7050513          	addi	a0,a0,-400 # 2e70 <OsSwtmrScan>
    2fda:	df2ff0ef          	jal	ra,25cc <OsSchedSwtmrScanRegister>
    2fde:	d95d                	beqz	a0,2f94 <OsSwtmrInit+0x80>
    2fe0:	bff9                	j	2fbe <OsSwtmrInit+0xaa>
    2fe2:	02000537          	lui	a0,0x2000
    2fe6:	30750513          	addi	a0,a0,775 # 2000307 <_data_lma+0x1ff86bb>
    2fea:	b76d                	j	2f94 <OsSwtmrInit+0x80>

00002fec <OsRecyleFinishedTask>:
    2fec:	a78fd2ef          	jal	t0,264 <__riscv_save_4>
    2ff0:	9d0fd0ef          	jal	ra,1c0 <HalIntLock>
    2ff4:	89aa                	mv	s3,a0
    2ff6:	8c418913          	addi	s2,gp,-1852 # 20000174 <g_taskRecyleList>
    2ffa:	8a418493          	addi	s1,gp,-1884 # 20000154 <g_losFreeTask>
    2ffe:	00492403          	lw	s0,4(s2)
    3002:	01241763          	bne	s0,s2,3010 <OsRecyleFinishedTask+0x24>
    3006:	854e                	mv	a0,s3
    3008:	9d4fd0ef          	jal	ra,1dc <HalIntRestore>
    300c:	a8cfd06f          	j	298 <__riscv_restore_4>
    3010:	4058                	lw	a4,4(s0)
    3012:	401c                	lw	a5,0(s0)
    3014:	fe442583          	lw	a1,-28(s0)
    3018:	82c1a503          	lw	a0,-2004(gp) # 200000dc <m_aucSysMem0>
    301c:	c31c                	sw	a5,0(a4)
    301e:	c3d8                	sw	a4,4(a5)
    3020:	00042223          	sw	zero,4(s0)
    3024:	40dc                	lw	a5,4(s1)
    3026:	c004                	sw	s1,0(s0)
    3028:	c05c                	sw	a5,4(s0)
    302a:	c380                	sw	s0,0(a5)
    302c:	c0c0                	sw	s0,4(s1)
    302e:	c98fe0ef          	jal	ra,14c6 <LOS_MemFree>
    3032:	fe042223          	sw	zero,-28(s0)
    3036:	b7e1                	j	2ffe <OsRecyleFinishedTask+0x12>

00003038 <OsIdleTask>:
    3038:	a46fd2ef          	jal	t0,27e <__riscv_save_0>
    303c:	fb1ff0ef          	jal	ra,2fec <OsRecyleFinishedTask>
    3040:	89c1a783          	lw	a5,-1892(gp) # 2000014c <PmEnter>
    3044:	c781                	beqz	a5,304c <OsIdleTask+0x14>
    3046:	4505                	li	a0,1
    3048:	9782                	jalr	a5
    304a:	bfcd                	j	303c <OsIdleTask+0x4>
    304c:	780000ef          	jal	ra,37cc <HalEnterSleep>
    3050:	b7f5                	j	303c <OsIdleTask+0x4>

00003052 <OsPmEnterHandlerSet>:
    3052:	c509                	beqz	a0,305c <OsPmEnterHandlerSet+0xa>
    3054:	88a1ae23          	sw	a0,-1892(gp) # 2000014c <PmEnter>
    3058:	4501                	li	a0,0
    305a:	8082                	ret
    305c:	4505                	li	a0,1
    305e:	8082                	ret

00003060 <OsTaskInit>:
    3060:	a04fd2ef          	jal	t0,264 <__riscv_save_4>
    3064:	8c01a683          	lw	a3,-1856(gp) # 20000170 <g_taskMaxNum>
    3068:	07800793          	li	a5,120
    306c:	1141                	addi	sp,sp,-16
    306e:	0685                	addi	a3,a3,1
    3070:	02f686b3          	mul	a3,a3,a5
    3074:	82c1a503          	lw	a0,-2004(gp) # 200000dc <m_aucSysMem0>
    3078:	85b6                	mv	a1,a3
    307a:	c636                	sw	a3,12(sp)
    307c:	f78fe0ef          	jal	ra,17f4 <LOS_MemAlloc>
    3080:	8aa1ae23          	sw	a0,-1860(gp) # 2000016c <g_taskCBArray>
    3084:	c949                	beqz	a0,3116 <OsTaskInit+0xb6>
    3086:	46b2                	lw	a3,12(sp)
    3088:	4601                	li	a2,0
    308a:	8bc18493          	addi	s1,gp,-1860 # 2000016c <g_taskCBArray>
    308e:	85b6                	mv	a1,a3
    3090:	856fe0ef          	jal	ra,10e6 <memset_s>
    3094:	8a418793          	addi	a5,gp,-1884 # 20000154 <g_losFreeTask>
    3098:	c3dc                	sw	a5,4(a5)
    309a:	c39c                	sw	a5,0(a5)
    309c:	8c418793          	addi	a5,gp,-1852 # 20000174 <g_taskRecyleList>
    30a0:	c3dc                	sw	a5,4(a5)
    30a2:	c39c                	sw	a5,0(a5)
    30a4:	409c                	lw	a5,0(s1)
    30a6:	8c018913          	addi	s2,gp,-1856 # 20000170 <g_taskMaxNum>
    30aa:	4401                	li	s0,0
    30ac:	04878793          	addi	a5,a5,72
    30b0:	8a418713          	addi	a4,gp,-1884 # 20000154 <g_losFreeTask>
    30b4:	4505                	li	a0,1
    30b6:	45b5                	li	a1,13
    30b8:	4314                	lw	a3,0(a4)
    30ba:	fe87a423          	sw	s0,-24(a5)
    30be:	faa79e23          	sh	a0,-68(a5)
    30c2:	42d0                	lw	a2,4(a3)
    30c4:	c394                	sw	a3,0(a5)
    30c6:	0405                	addi	s0,s0,1
    30c8:	c3d0                	sw	a2,4(a5)
    30ca:	c21c                	sw	a5,0(a2)
    30cc:	c2dc                	sw	a5,4(a3)
    30ce:	07878793          	addi	a5,a5,120
    30d2:	feb413e3          	bne	s0,a1,30b8 <OsTaskInit+0x58>
    30d6:	8ac18993          	addi	s3,gp,-1876 # 2000015c <g_losTask>
    30da:	46a1                	li	a3,8
    30dc:	4601                	li	a2,0
    30de:	45a1                	li	a1,8
    30e0:	8ac18513          	addi	a0,gp,-1876 # 2000015c <g_losTask>
    30e4:	802fe0ef          	jal	ra,10e6 <memset_s>
    30e8:	00092703          	lw	a4,0(s2)
    30ec:	07800793          	li	a5,120
    30f0:	02e78733          	mul	a4,a5,a4
    30f4:	409c                	lw	a5,0(s1)
    30f6:	97ba                	add	a5,a5,a4
    30f8:	00200737          	lui	a4,0x200
    30fc:	0745                	addi	a4,a4,17
    30fe:	c3d8                	sw	a4,4(a5)
    3100:	00f9a023          	sw	a5,0(s3)
    3104:	db80                	sw	s0,48(a5)
    3106:	577d                	li	a4,-1
    3108:	8ae1a023          	sw	a4,-1888(gp) # 20000150 <g_idleTaskID>
    310c:	cceff0ef          	jal	ra,25da <OsSchedInit>
    3110:	0141                	addi	sp,sp,16
    3112:	986fd06f          	j	298 <__riscv_restore_4>
    3116:	03000537          	lui	a0,0x3000
    311a:	20050513          	addi	a0,a0,512 # 3000200 <_data_lma+0x2ff85b4>
    311e:	bfcd                	j	3110 <OsTaskInit+0xb0>

00003120 <OsNewTaskInit>:
    3120:	95efd2ef          	jal	t0,27e <__riscv_save_0>
    3124:	842a                	mv	s0,a0
    3126:	84ae                	mv	s1,a1
    3128:	5908                	lw	a0,48(a0)
    312a:	45cc                	lw	a1,12(a1)
    312c:	8932                	mv	s2,a2
    312e:	21a5                	jal	3596 <HalTskStackInit>
    3130:	449c                	lw	a5,8(s1)
    3132:	577d                	li	a4,-1
    3134:	c008                	sw	a0,0(s0)
    3136:	c03c                	sw	a5,64(s0)
    3138:	44dc                	lw	a5,12(s1)
    313a:	03242623          	sw	s2,44(s0)
    313e:	02042c23          	sw	zero,56(s0)
    3142:	d41c                	sw	a5,40(s0)
    3144:	4789                	li	a5,2
    3146:	a05e                	sh	a5,4(s0)
    3148:	20de                	lhu	a5,4(s1)
    314a:	02042e23          	sw	zero,60(s0)
    314e:	00042423          	sw	zero,8(s0)
    3152:	a07e                	sh	a5,6(s0)
    3154:	409c                	lw	a5,0(s1)
    3156:	00042623          	sw	zero,12(s0)
    315a:	06042223          	sw	zero,100(s0)
    315e:	d85c                	sw	a5,52(s0)
    3160:	57fd                	li	a5,-1
    3162:	cc3c                	sw	a5,88(s0)
    3164:	489c                	lw	a5,16(s1)
    3166:	4501                	li	a0,0
    3168:	06042623          	sw	zero,108(s0)
    316c:	c07c                	sw	a5,68(s0)
    316e:	57fd                	li	a5,-1
    3170:	cc18                	sw	a4,24(s0)
    3172:	cc5c                	sw	a5,28(s0)
    3174:	92efd06f          	j	2a2 <__riscv_restore_0>

00003178 <LOS_TaskCreateOnly>:
    3178:	0e050063          	beqz	a0,3258 <LOS_TaskCreateOnly+0xe0>
    317c:	0e058363          	beqz	a1,3262 <LOS_TaskCreateOnly+0xea>
    3180:	499c                	lw	a5,16(a1)
    3182:	0e078563          	beqz	a5,326c <LOS_TaskCreateOnly+0xf4>
    3186:	4198                	lw	a4,0(a1)
    3188:	0e070763          	beqz	a4,3276 <LOS_TaskCreateOnly+0xfe>
    318c:	21d6                	lhu	a3,4(a1)
    318e:	47fd                	li	a5,31
    3190:	0ed7e863          	bltu	a5,a3,3280 <LOS_TaskCreateOnly+0x108>
    3194:	00f69863          	bne	a3,a5,31a4 <LOS_TaskCreateOnly+0x2c>
    3198:	000037b7          	lui	a5,0x3
    319c:	03878793          	addi	a5,a5,56 # 3038 <OsIdleTask>
    31a0:	0ef71063          	bne	a4,a5,3280 <LOS_TaskCreateOnly+0x108>
    31a4:	45dc                	lw	a5,12(a1)
    31a6:	6721                	lui	a4,0x8
    31a8:	0ef76163          	bltu	a4,a5,328a <LOS_TaskCreateOnly+0x112>
    31ac:	e781                	bnez	a5,31b4 <LOS_TaskCreateOnly+0x3c>
    31ae:	2d000793          	li	a5,720
    31b2:	c5dc                	sw	a5,12(a1)
    31b4:	45dc                	lw	a5,12(a1)
    31b6:	56e1                	li	a3,-8
    31b8:	4701                	li	a4,0
    31ba:	00f6e363          	bltu	a3,a5,31c0 <LOS_TaskCreateOnly+0x48>
    31be:	471d                	li	a4,7
    31c0:	97ba                	add	a5,a5,a4
    31c2:	9be1                	andi	a5,a5,-8
    31c4:	c5dc                	sw	a5,12(a1)
    31c6:	12f00713          	li	a4,303
    31ca:	0cf77563          	bgeu	a4,a5,3294 <LOS_TaskCreateOnly+0x11c>
    31ce:	896fd2ef          	jal	t0,264 <__riscv_save_4>
    31d2:	842e                	mv	s0,a1
    31d4:	89aa                	mv	s3,a0
    31d6:	8a418913          	addi	s2,gp,-1884 # 20000154 <g_losFreeTask>
    31da:	e13ff0ef          	jal	ra,2fec <OsRecyleFinishedTask>
    31de:	fe3fc0ef          	jal	ra,1c0 <HalIntLock>
    31e2:	00492483          	lw	s1,4(s2)
    31e6:	01249a63          	bne	s1,s2,31fa <LOS_TaskCreateOnly+0x82>
    31ea:	ff3fc0ef          	jal	ra,1dc <HalIntRestore>
    31ee:	02000537          	lui	a0,0x2000
    31f2:	21150513          	addi	a0,a0,529 # 2000211 <_data_lma+0x1ff85c5>
    31f6:	8a2fd06f          	j	298 <__riscv_restore_4>
    31fa:	40d8                	lw	a4,4(s1)
    31fc:	409c                	lw	a5,0(s1)
    31fe:	fb848a13          	addi	s4,s1,-72 # bfffffb8 <_eusrstack+0x9ffeffb8>
    3202:	c31c                	sw	a5,0(a4)
    3204:	c3d8                	sw	a4,4(a5)
    3206:	0004a223          	sw	zero,4(s1)
    320a:	0004a023          	sw	zero,0(s1)
    320e:	fcffc0ef          	jal	ra,1dc <HalIntRestore>
    3212:	444c                	lw	a1,12(s0)
    3214:	82c1a503          	lw	a0,-2004(gp) # 200000dc <m_aucSysMem0>
    3218:	4621                	li	a2,8
    321a:	e2cfe0ef          	jal	ra,1846 <LOS_MemAllocAlign>
    321e:	862a                	mv	a2,a0
    3220:	e115                	bnez	a0,3244 <LOS_TaskCreateOnly+0xcc>
    3222:	f9ffc0ef          	jal	ra,1c0 <HalIntLock>
    3226:	00492783          	lw	a5,4(s2)
    322a:	0124a023          	sw	s2,0(s1)
    322e:	c0dc                	sw	a5,4(s1)
    3230:	c384                	sw	s1,0(a5)
    3232:	00992223          	sw	s1,4(s2)
    3236:	fa7fc0ef          	jal	ra,1dc <HalIntRestore>
    323a:	03000537          	lui	a0,0x3000
    323e:	20050513          	addi	a0,a0,512 # 3000200 <_data_lma+0x2ff85b4>
    3242:	bf55                	j	31f6 <LOS_TaskCreateOnly+0x7e>
    3244:	85a2                	mv	a1,s0
    3246:	8552                	mv	a0,s4
    3248:	ed9ff0ef          	jal	ra,3120 <OsNewTaskInit>
    324c:	f54d                	bnez	a0,31f6 <LOS_TaskCreateOnly+0x7e>
    324e:	fe84a783          	lw	a5,-24(s1)
    3252:	00f9a023          	sw	a5,0(s3)
    3256:	b745                	j	31f6 <LOS_TaskCreateOnly+0x7e>
    3258:	02000537          	lui	a0,0x2000
    325c:	20750513          	addi	a0,a0,519 # 2000207 <_data_lma+0x1ff85bb>
    3260:	8082                	ret
    3262:	02000537          	lui	a0,0x2000
    3266:	20150513          	addi	a0,a0,513 # 2000201 <_data_lma+0x1ff85b5>
    326a:	8082                	ret
    326c:	02000537          	lui	a0,0x2000
    3270:	20550513          	addi	a0,a0,517 # 2000205 <_data_lma+0x1ff85b9>
    3274:	8082                	ret
    3276:	02000537          	lui	a0,0x2000
    327a:	20450513          	addi	a0,a0,516 # 2000204 <_data_lma+0x1ff85b8>
    327e:	8082                	ret
    3280:	02000537          	lui	a0,0x2000
    3284:	20350513          	addi	a0,a0,515 # 2000203 <_data_lma+0x1ff85b7>
    3288:	8082                	ret
    328a:	02000537          	lui	a0,0x2000
    328e:	22050513          	addi	a0,a0,544 # 2000220 <_data_lma+0x1ff85d4>
    3292:	8082                	ret
    3294:	02000537          	lui	a0,0x2000
    3298:	20650513          	addi	a0,a0,518 # 2000206 <_data_lma+0x1ff85ba>
    329c:	8082                	ret

0000329e <OsIdleTaskCreate>:
    329e:	fe1fc2ef          	jal	t0,27e <__riscv_save_0>
    32a2:	1101                	addi	sp,sp,-32
    32a4:	46e1                	li	a3,24
    32a6:	4601                	li	a2,0
    32a8:	45e1                	li	a1,24
    32aa:	0028                	addi	a0,sp,8
    32ac:	e3bfd0ef          	jal	ra,10e6 <memset_s>
    32b0:	000037b7          	lui	a5,0x3
    32b4:	03878793          	addi	a5,a5,56 # 3038 <OsIdleTask>
    32b8:	c43e                	sw	a5,8(sp)
    32ba:	50000793          	li	a5,1280
    32be:	ca3e                	sw	a5,20(sp)
    32c0:	000077b7          	lui	a5,0x7
    32c4:	30478793          	addi	a5,a5,772 # 7304 <__func__.6102+0xb8>
    32c8:	cc3e                	sw	a5,24(sp)
    32ca:	8a018493          	addi	s1,gp,-1888 # 20000150 <g_idleTaskID>
    32ce:	47fd                	li	a5,31
    32d0:	002c                	addi	a1,sp,8
    32d2:	8a018513          	addi	a0,gp,-1888 # 20000150 <g_idleTaskID>
    32d6:	867c                	sh	a5,12(sp)
    32d8:	ea1ff0ef          	jal	ra,3178 <LOS_TaskCreateOnly>
    32dc:	842a                	mv	s0,a0
    32de:	e919                	bnez	a0,32f4 <OsIdleTaskCreate+0x56>
    32e0:	4088                	lw	a0,0(s1)
    32e2:	07800793          	li	a5,120
    32e6:	02a787b3          	mul	a5,a5,a0
    32ea:	8bc1a503          	lw	a0,-1860(gp) # 2000016c <g_taskCBArray>
    32ee:	953e                	add	a0,a0,a5
    32f0:	ad0ff0ef          	jal	ra,25c0 <OsSchedSetIdleTaskSchedParam>
    32f4:	8522                	mv	a0,s0
    32f6:	6105                	addi	sp,sp,32
    32f8:	fabfc06f          	j	2a2 <__riscv_restore_0>

000032fc <LOS_TaskCreate>:
    32fc:	f83fc2ef          	jal	t0,27e <__riscv_save_0>
    3300:	842a                	mv	s0,a0
    3302:	e77ff0ef          	jal	ra,3178 <LOS_TaskCreateOnly>
    3306:	84aa                	mv	s1,a0
    3308:	e51d                	bnez	a0,3336 <LOS_TaskCreate+0x3a>
    330a:	401c                	lw	a5,0(s0)
    330c:	07800413          	li	s0,120
    3310:	02f407b3          	mul	a5,s0,a5
    3314:	8bc1a403          	lw	s0,-1860(gp) # 2000016c <g_taskCBArray>
    3318:	943e                	add	s0,s0,a5
    331a:	ea7fc0ef          	jal	ra,1c0 <HalIntLock>
    331e:	892a                	mv	s2,a0
    3320:	8522                	mv	a0,s0
    3322:	886ff0ef          	jal	ra,23a8 <OsSchedTaskEnQueue>
    3326:	854a                	mv	a0,s2
    3328:	eb5fc0ef          	jal	ra,1dc <HalIntRestore>
    332c:	8cc1a783          	lw	a5,-1844(gp) # 2000017c <g_taskScheduled>
    3330:	c399                	beqz	a5,3336 <LOS_TaskCreate+0x3a>
    3332:	dc2ff0ef          	jal	ra,28f4 <LOS_Schedule>
    3336:	8526                	mv	a0,s1
    3338:	f6bfc06f          	j	2a2 <__riscv_restore_0>

0000333c <LOS_TaskDelete>:
    333c:	8a01a783          	lw	a5,-1888(gp) # 20000150 <g_idleTaskID>
    3340:	0ef50b63          	beq	a0,a5,3436 <LOS_TaskDelete+0xfa>
    3344:	8b81a783          	lw	a5,-1864(gp) # 20000168 <g_swtmrTaskID>
    3348:	0ef50c63          	beq	a0,a5,3440 <LOS_TaskDelete+0x104>
    334c:	f19fc2ef          	jal	t0,264 <__riscv_save_4>
    3350:	8c01a783          	lw	a5,-1856(gp) # 20000170 <g_taskMaxNum>
    3354:	8c018913          	addi	s2,gp,-1856 # 20000170 <g_taskMaxNum>
    3358:	0ef57963          	bgeu	a0,a5,344a <LOS_TaskDelete+0x10e>
    335c:	07800413          	li	s0,120
    3360:	028507b3          	mul	a5,a0,s0
    3364:	8bc1a403          	lw	s0,-1860(gp) # 2000016c <g_taskCBArray>
    3368:	8aaa                	mv	s5,a0
    336a:	8bc18493          	addi	s1,gp,-1860 # 2000016c <g_taskCBArray>
    336e:	943e                	add	s0,s0,a5
    3370:	e51fc0ef          	jal	ra,1c0 <HalIntLock>
    3374:	205e                	lhu	a5,4(s0)
    3376:	8a2a                	mv	s4,a0
    3378:	0017f713          	andi	a4,a5,1
    337c:	cb09                	beqz	a4,338e <LOS_TaskDelete+0x52>
    337e:	e5ffc0ef          	jal	ra,1dc <HalIntRestore>
    3382:	02000537          	lui	a0,0x2000
    3386:	20a50513          	addi	a0,a0,522 # 200020a <_data_lma+0x1ff85be>
    338a:	f0ffc06f          	j	298 <__riscv_restore_4>
    338e:	8bc1                	andi	a5,a5,16
    3390:	c395                	beqz	a5,33b4 <LOS_TaskDelete+0x78>
    3392:	8b41d703          	lhu	a4,-1868(gp) # 20000164 <g_losTaskLock>
    3396:	8b418993          	addi	s3,gp,-1868 # 20000164 <g_losTaskLock>
    339a:	cf09                	beqz	a4,33b4 <LOS_TaskDelete+0x78>
    339c:	4511                	li	a0,4
    339e:	c6dfd0ef          	jal	ra,100a <OsLogLevelCheck>
    33a2:	e519                	bnez	a0,33b0 <LOS_TaskDelete+0x74>
    33a4:	00007537          	lui	a0,0x7
    33a8:	2cc50513          	addi	a0,a0,716 # 72cc <__func__.6102+0x80>
    33ac:	63e020ef          	jal	ra,59ea <puts>
    33b0:	00099023          	sh	zero,0(s3)
    33b4:	8522                	mv	a0,s0
    33b6:	93eff0ef          	jal	ra,24f4 <OsSchedTaskExit>
    33ba:	57fd                	li	a5,-1
    33bc:	cc3c                	sw	a5,88(s0)
    33be:	205e                	lhu	a5,4(s0)
    33c0:	06042223          	sw	zero,100(s0)
    33c4:	04840713          	addi	a4,s0,72
    33c8:	8bc1                	andi	a5,a5,16
    33ca:	544c                	lw	a1,44(s0)
    33cc:	c3b1                	beqz	a5,3410 <LOS_TaskDelete+0xd4>
    33ce:	4785                	li	a5,1
    33d0:	a05e                	sh	a5,4(s0)
    33d2:	8c41a783          	lw	a5,-1852(gp) # 20000174 <g_taskRecyleList>
    33d6:	8552                	mv	a0,s4
    33d8:	43d4                	lw	a3,4(a5)
    33da:	c43c                	sw	a5,72(s0)
    33dc:	c474                	sw	a3,76(s0)
    33de:	c298                	sw	a4,0(a3)
    33e0:	c3d8                	sw	a4,4(a5)
    33e2:	00092703          	lw	a4,0(s2)
    33e6:	07800793          	li	a5,120
    33ea:	02e78733          	mul	a4,a5,a4
    33ee:	409c                	lw	a5,0(s1)
    33f0:	97ba                	add	a5,a5,a4
    33f2:	8af1a623          	sw	a5,-1876(gp) # 2000015c <g_losTask>
    33f6:	4745                	li	a4,17
    33f8:	a3da                	sh	a4,4(a5)
    33fa:	4078                	lw	a4,68(s0)
    33fc:	0357a823          	sw	s5,48(a5)
    3400:	d7cc                	sw	a1,44(a5)
    3402:	c3f8                	sw	a4,68(a5)
    3404:	dd9fc0ef          	jal	ra,1dc <HalIntRestore>
    3408:	cecff0ef          	jal	ra,28f4 <LOS_Schedule>
    340c:	4501                	li	a0,0
    340e:	bfb5                	j	338a <LOS_TaskDelete+0x4e>
    3410:	4785                	li	a5,1
    3412:	a05e                	sh	a5,4(s0)
    3414:	8a418793          	addi	a5,gp,-1884 # 20000154 <g_losFreeTask>
    3418:	43d4                	lw	a3,4(a5)
    341a:	c43c                	sw	a5,72(s0)
    341c:	c474                	sw	a3,76(s0)
    341e:	c298                	sw	a4,0(a3)
    3420:	c3d8                	sw	a4,4(a5)
    3422:	82c1a503          	lw	a0,-2004(gp) # 200000dc <m_aucSysMem0>
    3426:	8a0fe0ef          	jal	ra,14c6 <LOS_MemFree>
    342a:	8552                	mv	a0,s4
    342c:	02042623          	sw	zero,44(s0)
    3430:	dadfc0ef          	jal	ra,1dc <HalIntRestore>
    3434:	bfe1                	j	340c <LOS_TaskDelete+0xd0>
    3436:	02000537          	lui	a0,0x2000
    343a:	21450513          	addi	a0,a0,532 # 2000214 <_data_lma+0x1ff85c8>
    343e:	8082                	ret
    3440:	02000537          	lui	a0,0x2000
    3444:	22150513          	addi	a0,a0,545 # 2000221 <_data_lma+0x1ff85d5>
    3448:	8082                	ret
    344a:	02000537          	lui	a0,0x2000
    344e:	20750513          	addi	a0,a0,519 # 2000207 <_data_lma+0x1ff85bb>
    3452:	bf25                	j	338a <LOS_TaskDelete+0x4e>

00003454 <OsTaskEntry>:
    3454:	e2bfc2ef          	jal	t0,27e <__riscv_save_0>
    3458:	07800413          	li	s0,120
    345c:	02850533          	mul	a0,a0,s0
    3460:	8bc1a403          	lw	s0,-1860(gp) # 2000016c <g_taskCBArray>
    3464:	942a                	add	s0,s0,a0
    3466:	585c                	lw	a5,52(s0)
    3468:	4028                	lw	a0,64(s0)
    346a:	9782                	jalr	a5
    346c:	5808                	lw	a0,48(s0)
    346e:	ecfff0ef          	jal	ra,333c <LOS_TaskDelete>
    3472:	cd01                	beqz	a0,348a <OsTaskEntry+0x36>
    3474:	4509                	li	a0,2
    3476:	b95fd0ef          	jal	ra,100a <OsLogLevelCheck>
    347a:	e901                	bnez	a0,348a <OsTaskEntry+0x36>
    347c:	580c                	lw	a1,48(s0)
    347e:	00007537          	lui	a0,0x7
    3482:	31050513          	addi	a0,a0,784 # 7310 <__func__.6102+0xc4>
    3486:	44a020ef          	jal	ra,58d0 <iprintf>
    348a:	e19fc06f          	j	2a2 <__riscv_restore_0>

0000348e <LOS_TaskYield>:
    348e:	df1fc2ef          	jal	t0,27e <__riscv_save_0>
    3492:	1141                	addi	sp,sp,-16
    3494:	d2dfc0ef          	jal	ra,1c0 <HalIntLock>
    3498:	c62a                	sw	a0,12(sp)
    349a:	8a2ff0ef          	jal	ra,253c <OsSchedYield>
    349e:	4532                	lw	a0,12(sp)
    34a0:	d3dfc0ef          	jal	ra,1dc <HalIntRestore>
    34a4:	c50ff0ef          	jal	ra,28f4 <LOS_Schedule>
    34a8:	4501                	li	a0,0
    34aa:	0141                	addi	sp,sp,16
    34ac:	df7fc06f          	j	2a2 <__riscv_restore_0>

000034b0 <LOS_TaskDelay>:
    34b0:	dcffc2ef          	jal	t0,27e <__riscv_save_0>
    34b4:	84aa                	mv	s1,a0
    34b6:	2489                	jal	36f8 <HalIsIntActive>
    34b8:	e915                	bnez	a0,34ec <LOS_TaskDelay+0x3c>
    34ba:	8b41d783          	lhu	a5,-1868(gp) # 20000164 <g_losTaskLock>
    34be:	ef85                	bnez	a5,34f6 <LOS_TaskDelay+0x46>
    34c0:	e499                	bnez	s1,34ce <LOS_TaskDelay+0x1e>
    34c2:	fcdff0ef          	jal	ra,348e <LOS_TaskYield>
    34c6:	842a                	mv	s0,a0
    34c8:	8522                	mv	a0,s0
    34ca:	dd9fc06f          	j	2a2 <__riscv_restore_0>
    34ce:	842a                	mv	s0,a0
    34d0:	cf1fc0ef          	jal	ra,1c0 <HalIntLock>
    34d4:	892a                	mv	s2,a0
    34d6:	8ac1a503          	lw	a0,-1876(gp) # 2000015c <g_losTask>
    34da:	85a6                	mv	a1,s1
    34dc:	86aff0ef          	jal	ra,2546 <OsSchedDelay>
    34e0:	854a                	mv	a0,s2
    34e2:	cfbfc0ef          	jal	ra,1dc <HalIntRestore>
    34e6:	c0eff0ef          	jal	ra,28f4 <LOS_Schedule>
    34ea:	bff9                	j	34c8 <LOS_TaskDelay+0x18>
    34ec:	03000437          	lui	s0,0x3000
    34f0:	20d40413          	addi	s0,s0,525 # 300020d <_data_lma+0x2ff85c1>
    34f4:	bfd1                	j	34c8 <LOS_TaskDelay+0x18>
    34f6:	02000437          	lui	s0,0x2000
    34fa:	20e40413          	addi	s0,s0,526 # 200020e <_data_lma+0x1ff85c2>
    34fe:	b7e9                	j	34c8 <LOS_TaskDelay+0x18>

00003500 <LOS_TaskLock>:
    3500:	d7ffc2ef          	jal	t0,27e <__riscv_save_0>
    3504:	cbdfc0ef          	jal	ra,1c0 <HalIntLock>
    3508:	8b418793          	addi	a5,gp,-1868 # 20000164 <g_losTaskLock>
    350c:	239a                	lhu	a4,0(a5)
    350e:	0705                	addi	a4,a4,1
    3510:	a39a                	sh	a4,0(a5)
    3512:	ccbfc0ef          	jal	ra,1dc <HalIntRestore>
    3516:	d8dfc06f          	j	2a2 <__riscv_restore_0>

0000351a <LOS_TaskUnlock>:
    351a:	d65fc2ef          	jal	t0,27e <__riscv_save_0>
    351e:	ca3fc0ef          	jal	ra,1c0 <HalIntLock>
    3522:	8b418713          	addi	a4,gp,-1868 # 20000164 <g_losTaskLock>
    3526:	231e                	lhu	a5,0(a4)
    3528:	86aa                	mv	a3,a0
    352a:	cf81                	beqz	a5,3542 <LOS_TaskUnlock+0x28>
    352c:	17fd                	addi	a5,a5,-1
    352e:	07c2                	slli	a5,a5,0x10
    3530:	83c1                	srli	a5,a5,0x10
    3532:	a31e                	sh	a5,0(a4)
    3534:	e799                	bnez	a5,3542 <LOS_TaskUnlock+0x28>
    3536:	ca7fc0ef          	jal	ra,1dc <HalIntRestore>
    353a:	bbaff0ef          	jal	ra,28f4 <LOS_Schedule>
    353e:	d65fc06f          	j	2a2 <__riscv_restore_0>
    3542:	8536                	mv	a0,a3
    3544:	c99fc0ef          	jal	ra,1dc <HalIntRestore>
    3548:	bfdd                	j	353e <LOS_TaskUnlock+0x24>

0000354a <LOS_TaskIsRunning>:
    354a:	8cc1a503          	lw	a0,-1844(gp) # 2000017c <g_taskScheduled>
    354e:	8082                	ret

00003550 <OsTickHandler>:
    3550:	d2ffc2ef          	jal	t0,27e <__riscv_save_0>
    3554:	b87fe0ef          	jal	ra,20da <OsSchedUpdateSchedTimeBase>
    3558:	a5aff0ef          	jal	ra,27b2 <LOS_SchedTickHandler>
    355c:	d47fc06f          	j	2a2 <__riscv_restore_0>

00003560 <LOS_TickCountGet>:
    3560:	d1ffc2ef          	jal	t0,27e <__riscv_save_0>
    3564:	c01fe0ef          	jal	ra,2164 <OsGetCurrSchedTimeCycle>
    3568:	200007b7          	lui	a5,0x20000
    356c:	0b07a603          	lw	a2,176(a5) # 200000b0 <SystemCoreClock>
    3570:	3e800793          	li	a5,1000
    3574:	4681                	li	a3,0
    3576:	02f65633          	divu	a2,a2,a5
    357a:	686010ef          	jal	ra,4c00 <__udivdi3>
    357e:	d25fc06f          	j	2a2 <__riscv_restore_0>

00003582 <HalSysExit>:
    3582:	cfdfc2ef          	jal	t0,27e <__riscv_save_0>
    3586:	c3bfc0ef          	jal	ra,1c0 <HalIntLock>
    358a:	a001                	j	358a <HalSysExit+0x8>

0000358c <HalArchInit>:
    358c:	cf3fc2ef          	jal	t0,27e <__riscv_save_0>
    3590:	2aa9                	jal	36ea <HalHwiInit>
    3592:	d11fc06f          	j	2a2 <__riscv_restore_0>

00003596 <HalTskStackInit>:
    3596:	ccccd7b7          	lui	a5,0xccccd
    359a:	ccc78793          	addi	a5,a5,-820 # cccccccc <_eusrstack+0xaccbcccc>
    359e:	0591                	addi	a1,a1,4
    35a0:	c21c                	sw	a5,0(a2)
    35a2:	962e                	add	a2,a2,a1
    35a4:	9a71                	andi	a2,a2,-4
    35a6:	cacad737          	lui	a4,0xcacad
    35aa:	f8860693          	addi	a3,a2,-120
    35ae:	f8c60793          	addi	a5,a2,-116
    35b2:	aca70713          	addi	a4,a4,-1334 # cacacaca <_eusrstack+0xaac9caca>
    35b6:	c398                	sw	a4,0(a5)
    35b8:	0791                	addi	a5,a5,4
    35ba:	fef61ee3          	bne	a2,a5,35b6 <HalTskStackInit+0x20>
    35be:	000037b7          	lui	a5,0x3
    35c2:	58278793          	addi	a5,a5,1410 # 3582 <HalSysExit>
    35c6:	f8f62623          	sw	a5,-116(a2)
    35ca:	000037b7          	lui	a5,0x3
    35ce:	45478793          	addi	a5,a5,1108 # 3454 <OsTaskEntry>
    35d2:	f8f62423          	sw	a5,-120(a2)
    35d6:	67a1                	lui	a5,0x8
    35d8:	88078793          	addi	a5,a5,-1920 # 7880 <Font24CN_Table+0x51c>
    35dc:	faa62223          	sw	a0,-92(a2)
    35e0:	fef62e23          	sw	a5,-4(a2)
    35e4:	8536                	mv	a0,a3
    35e6:	8082                	ret

000035e8 <HalStartSchedule>:
    35e8:	c97fc2ef          	jal	t0,27e <__riscv_save_0>
    35ec:	1141                	addi	sp,sp,-16
    35ee:	842a                	mv	s0,a0
    35f0:	bd1fc0ef          	jal	ra,1c0 <HalIntLock>
    35f4:	8522                	mv	a0,s0
    35f6:	2231                	jal	3702 <HalTickStart>
    35f8:	e519                	bnez	a0,3606 <HalStartSchedule+0x1e>
    35fa:	c62a                	sw	a0,12(sp)
    35fc:	856ff0ef          	jal	ra,2652 <OsSchedStart>
    3600:	be5fc0ef          	jal	ra,1e4 <HalStartToRun>
    3604:	4532                	lw	a0,12(sp)
    3606:	0141                	addi	sp,sp,16
    3608:	c9bfc06f          	j	2a2 <__riscv_restore_0>

0000360c <HalTaskSchedule>:
    360c:	e000e7b7          	lui	a5,0xe000e
    3610:	6711                	lui	a4,0x4
    3612:	20e7a023          	sw	a4,512(a5) # e000e200 <_eusrstack+0xbfffe200>
    3616:	8082                	ret

00003618 <HalTaskSwitch>:
    3618:	c67fc2ef          	jal	t0,27e <__riscv_save_0>
    361c:	8b0ff0ef          	jal	ra,26cc <OsSchedTaskSwitch>
    3620:	8ac18713          	addi	a4,gp,-1876 # 2000015c <g_losTask>
    3624:	4358                	lw	a4,4(a4)
    3626:	8ae1a623          	sw	a4,-1876(gp) # 2000015c <g_losTask>
    362a:	c79fc06f          	j	2a2 <__riscv_restore_0>
	...

00003630 <SW_Handler>:
    3630:	f8810113          	addi	sp,sp,-120
    3634:	c206                	sw	ra,4(sp)
    3636:	c416                	sw	t0,8(sp)
    3638:	c61a                	sw	t1,12(sp)
    363a:	c81e                	sw	t2,16(sp)
    363c:	ca22                	sw	s0,20(sp)
    363e:	cc26                	sw	s1,24(sp)
    3640:	ce2a                	sw	a0,28(sp)
    3642:	d02e                	sw	a1,32(sp)
    3644:	d232                	sw	a2,36(sp)
    3646:	d436                	sw	a3,40(sp)
    3648:	d63a                	sw	a4,44(sp)
    364a:	d83e                	sw	a5,48(sp)
    364c:	da42                	sw	a6,52(sp)
    364e:	dc46                	sw	a7,56(sp)
    3650:	de4a                	sw	s2,60(sp)
    3652:	c0ce                	sw	s3,64(sp)
    3654:	c2d2                	sw	s4,68(sp)
    3656:	c4d6                	sw	s5,72(sp)
    3658:	c6da                	sw	s6,76(sp)
    365a:	c8de                	sw	s7,80(sp)
    365c:	cae2                	sw	s8,84(sp)
    365e:	cce6                	sw	s9,88(sp)
    3660:	ceea                	sw	s10,92(sp)
    3662:	d0ee                	sw	s11,96(sp)
    3664:	d2f2                	sw	t3,100(sp)
    3666:	d4f6                	sw	t4,104(sp)
    3668:	d6fa                	sw	t5,108(sp)
    366a:	d8fe                	sw	t6,112(sp)
    366c:	02000293          	li	t0,32
    3670:	8042a073          	csrs	0x804,t0
    3674:	300022f3          	csrr	t0,mstatus
    3678:	da96                	sw	t0,116(sp)
    367a:	8ac18293          	addi	t0,gp,-1876 # 2000015c <g_losTask>
    367e:	0002a283          	lw	t0,0(t0)
    3682:	0022a023          	sw	sp,0(t0)
    3686:	341022f3          	csrr	t0,mepc
    368a:	c016                	sw	t0,0(sp)
    368c:	f8dff0ef          	jal	ra,3618 <HalTaskSwitch>
    3690:	8ac18293          	addi	t0,gp,-1876 # 2000015c <g_losTask>
    3694:	0002a283          	lw	t0,0(t0)
    3698:	0002a103          	lw	sp,0(t0)
    369c:	4282                	lw	t0,0(sp)
    369e:	34129073          	csrw	mepc,t0
    36a2:	52d6                	lw	t0,116(sp)
    36a4:	30029073          	csrw	mstatus,t0
    36a8:	4092                	lw	ra,4(sp)
    36aa:	42a2                	lw	t0,8(sp)
    36ac:	4332                	lw	t1,12(sp)
    36ae:	43c2                	lw	t2,16(sp)
    36b0:	4452                	lw	s0,20(sp)
    36b2:	44e2                	lw	s1,24(sp)
    36b4:	4572                	lw	a0,28(sp)
    36b6:	5582                	lw	a1,32(sp)
    36b8:	5612                	lw	a2,36(sp)
    36ba:	56a2                	lw	a3,40(sp)
    36bc:	5732                	lw	a4,44(sp)
    36be:	57c2                	lw	a5,48(sp)
    36c0:	5852                	lw	a6,52(sp)
    36c2:	58e2                	lw	a7,56(sp)
    36c4:	5972                	lw	s2,60(sp)
    36c6:	4986                	lw	s3,64(sp)
    36c8:	4a16                	lw	s4,68(sp)
    36ca:	4aa6                	lw	s5,72(sp)
    36cc:	4b36                	lw	s6,76(sp)
    36ce:	4bc6                	lw	s7,80(sp)
    36d0:	4c56                	lw	s8,84(sp)
    36d2:	4ce6                	lw	s9,88(sp)
    36d4:	4d76                	lw	s10,92(sp)
    36d6:	5d86                	lw	s11,96(sp)
    36d8:	5e16                	lw	t3,100(sp)
    36da:	5ea6                	lw	t4,104(sp)
    36dc:	5f36                	lw	t5,108(sp)
    36de:	5fc6                	lw	t6,112(sp)
    36e0:	07810113          	addi	sp,sp,120
    36e4:	30200073          	mret
	...

000036ea <HalHwiInit>:
    36ea:	8082                	ret

000036ec <HalIntEnter>:
    36ec:	8d818793          	addi	a5,gp,-1832 # 20000188 <g_intCount>
    36f0:	4398                	lw	a4,0(a5)
    36f2:	0705                	addi	a4,a4,1
    36f4:	c398                	sw	a4,0(a5)
    36f6:	8082                	ret

000036f8 <HalIsIntActive>:
    36f8:	8d81a503          	lw	a0,-1832(gp) # 20000188 <g_intCount>
    36fc:	00a03533          	snez	a0,a0
    3700:	8082                	ret

00003702 <HalTickStart>:
    3702:	200007b7          	lui	a5,0x20000
    3706:	0b07a783          	lw	a5,176(a5) # 200000b0 <SystemCoreClock>
    370a:	6685                	lui	a3,0x1
    370c:	8cf1aa23          	sw	a5,-1836(gp) # 20000184 <g_sysClock>
    3710:	3e800713          	li	a4,1000
    3714:	02e7d7b3          	divu	a5,a5,a4
    3718:	4801                	li	a6,0
    371a:	8cf1a823          	sw	a5,-1840(gp) # 20000180 <g_cyclesPerTick>
    371e:	8c01ac23          	sw	zero,-1832(gp) # 20000188 <g_intCount>
    3722:	e000e737          	lui	a4,0xe000e
    3726:	10d72023          	sw	a3,256(a4) # e000e100 <_eusrstack+0xbfffe100>
    372a:	6691                	lui	a3,0x4
    372c:	10d72023          	sw	a3,256(a4)
    3730:	56c1                	li	a3,-16
    3732:	40d70623          	sb	a3,1036(a4)
    3736:	40d70723          	sb	a3,1038(a4)
    373a:	8ca1ae23          	sw	a0,-1828(gp) # 2000018c <systick_handler>
    373e:	e000f737          	lui	a4,0xe000f
    3742:	00072223          	sw	zero,4(a4) # e000f004 <_eusrstack+0xbffff004>
    3746:	fff78613          	addi	a2,a5,-1
    374a:	cb10                	sw	a2,16(a4)
    374c:	4681                	li	a3,0
    374e:	cb54                	sw	a3,20(a4)
    3750:	4781                	li	a5,0
    3752:	c71c                	sw	a5,8(a4)
    3754:	01072623          	sw	a6,12(a4)
    3758:	47bd                	li	a5,15
    375a:	c31c                	sw	a5,0(a4)
    375c:	4501                	li	a0,0
    375e:	8082                	ret

00003760 <SysTick_Handler>:
    3760:	8dc1a783          	lw	a5,-1828(gp) # 2000018c <systick_handler>
    3764:	c391                	beqz	a5,3768 <SysTick_Handler+0x8>
    3766:	9782                	jalr	a5
    3768:	30200073          	mret

0000376c <HalSysTickReload>:
    376c:	e000f7b7          	lui	a5,0xe000f
    3770:	4398                	lw	a4,0(a5)
    3772:	fff50613          	addi	a2,a0,-1
    3776:	9b79                	andi	a4,a4,-2
    3778:	c398                	sw	a4,0(a5)
    377a:	00153713          	seqz	a4,a0
    377e:	cb90                	sw	a2,16(a5)
    3780:	40e586b3          	sub	a3,a1,a4
    3784:	cbd4                	sw	a3,20(a5)
    3786:	4681                	li	a3,0
    3788:	c794                	sw	a3,8(a5)
    378a:	4701                	li	a4,0
    378c:	c7d8                	sw	a4,12(a5)
    378e:	0007a223          	sw	zero,4(a5) # e000f004 <_eusrstack+0xbffff004>
    3792:	e000e737          	lui	a4,0xe000e
    3796:	6685                	lui	a3,0x1
    3798:	28d72023          	sw	a3,640(a4) # e000e280 <_eusrstack+0xbfffe280>
    379c:	4398                	lw	a4,0(a5)
    379e:	00176713          	ori	a4,a4,1
    37a2:	c398                	sw	a4,0(a5)
    37a4:	8082                	ret

000037a6 <HalGetTickCycle>:
    37a6:	ad9fc2ef          	jal	t0,27e <__riscv_save_0>
    37aa:	892a                	mv	s2,a0
    37ac:	a15fc0ef          	jal	ra,1c0 <HalIntLock>
    37b0:	e000f7b7          	lui	a5,0xe000f
    37b4:	4780                	lw	s0,8(a5)
    37b6:	47c4                	lw	s1,12(a5)
    37b8:	4b98                	lw	a4,16(a5)
    37ba:	4bdc                	lw	a5,20(a5)
    37bc:	00e92023          	sw	a4,0(s2)
    37c0:	a1dfc0ef          	jal	ra,1dc <HalIntRestore>
    37c4:	8522                	mv	a0,s0
    37c6:	85a6                	mv	a1,s1
    37c8:	adbfc06f          	j	2a2 <__riscv_restore_0>

000037cc <HalEnterSleep>:
    37cc:	e000f737          	lui	a4,0xe000f
    37d0:	d1072783          	lw	a5,-752(a4) # e000ed10 <_eusrstack+0xbfffed10>
    37d4:	9bdd                	andi	a5,a5,-9
    37d6:	d0f72823          	sw	a5,-752(a4)
    37da:	10500073          	wfi
    37de:	4501                	li	a0,0
    37e0:	8082                	ret

000037e2 <OsPmSleepTimeSet>:
    37e2:	8ea1a023          	sw	a0,-1824(gp) # 20000190 <g_pmSleepTime>
    37e6:	8eb1a223          	sw	a1,-1820(gp) # 20000194 <g_pmSleepTime+0x4>
    37ea:	8082                	ret

000037ec <OsPmEnter>:
    37ec:	a63fc2ef          	jal	t0,24e <__riscv_save_12>
    37f0:	20008437          	lui	s0,0x20008
    37f4:	84aa                	mv	s1,a0
    37f6:	9cbfc0ef          	jal	ra,1c0 <HalIntLock>
    37fa:	76040713          	addi	a4,s0,1888 # 20008760 <g_pmCB>
    37fe:	431c                	lw	a5,0(a4)
    3800:	8aaa                	mv	s5,a0
    3802:	76040413          	addi	s0,s0,1888
    3806:	c35c                	sw	a5,4(a4)
    3808:	c899                	beqz	s1,381e <OsPmEnter+0x32>
    380a:	4705                	li	a4,1
    380c:	00f77463          	bgeu	a4,a5,3814 <OsPmEnter+0x28>
    3810:	00042223          	sw	zero,4(s0)
    3814:	241e                	lhu	a5,8(s0)
    3816:	eb8d                	bnez	a5,3848 <OsPmEnter+0x5c>
    3818:	405c                	lw	a5,4(s0)
    381a:	cb8d                	beqz	a5,384c <OsPmEnter+0x60>
    381c:	a819                	j	3832 <OsPmEnter+0x46>
    381e:	17f9                	addi	a5,a5,-2
    3820:	4685                	li	a3,1
    3822:	00f6f663          	bgeu	a3,a5,382e <OsPmEnter+0x42>
    3826:	9b7fc0ef          	jal	ra,1dc <HalIntRestore>
    382a:	a61fc06f          	j	28a <__riscv_restore_12>
    382e:	271e                	lhu	a5,8(a4)
    3830:	fbfd                	bnez	a5,3826 <OsPmEnter+0x3a>
    3832:	00042623          	sw	zero,12(s0)
    3836:	ccbff0ef          	jal	ra,3500 <LOS_TaskLock>
    383a:	481c                	lw	a5,16(s0)
    383c:	4048                	lw	a0,4(s0)
    383e:	439c                	lw	a5,0(a5)
    3840:	9782                	jalr	a5
    3842:	c519                	beqz	a0,3850 <OsPmEnter+0x64>
    3844:	4985                	li	s3,1
    3846:	a62d                	j	3b70 <OsPmEnter+0x384>
    3848:	00042223          	sw	zero,4(s0)
    384c:	4981                	li	s3,0
    384e:	a881                	j	389e <OsPmEnter+0xb2>
    3850:	405c                	lw	a5,4(s0)
    3852:	4685                	li	a3,1
    3854:	4c18                	lw	a4,24(s0)
    3856:	17f9                	addi	a5,a5,-2
    3858:	04f6e263          	bltu	a3,a5,389c <OsPmEnter+0xb0>
    385c:	4b1c                	lw	a5,16(a4)
    385e:	cf9d                	beqz	a5,389c <OsPmEnter+0xb0>
    3860:	9782                	jalr	a5
    3862:	4985                	li	s3,1
    3864:	485c                	lw	a5,20(s0)
    3866:	12079f63          	bnez	a5,39a4 <OsPmEnter+0x1b8>
    386a:	4505                	li	a0,1
    386c:	f7efd0ef          	jal	ra,fea <OsDoExcHook>
    3870:	951fc0ef          	jal	ra,1c0 <HalIntLock>
    3874:	4509                	li	a0,2
    3876:	f94fd0ef          	jal	ra,100a <OsLogLevelCheck>
    387a:	e105                	bnez	a0,389a <OsPmEnter+0xae>
    387c:	669d                	lui	a3,0x7
    387e:	000075b7          	lui	a1,0x7
    3882:	00007537          	lui	a0,0x7
    3886:	35468693          	addi	a3,a3,852 # 7354 <__func__.6739>
    388a:	09300613          	li	a2,147
    388e:	33058593          	addi	a1,a1,816 # 7330 <__func__.6102+0xe4>
    3892:	1d850513          	addi	a0,a0,472 # 71d8 <__FUNCTION__.6856+0x50>
    3896:	03a020ef          	jal	ra,58d0 <iprintf>
    389a:	a001                	j	389a <OsPmEnter+0xae>
    389c:	4985                	li	s3,1
    389e:	01842903          	lw	s2,24(s0)
    38a2:	fc0901e3          	beqz	s2,3864 <OsPmEnter+0x78>
    38a6:	00492783          	lw	a5,4(s2)
    38aa:	dfcd                	beqz	a5,3864 <OsPmEnter+0x78>
    38ac:	00892783          	lw	a5,8(s2)
    38b0:	dbd5                	beqz	a5,3864 <OsPmEnter+0x78>
    38b2:	00c92783          	lw	a5,12(s2)
    38b6:	f7dd                	bnez	a5,3864 <OsPmEnter+0x78>
    38b8:	00092a03          	lw	s4,0(s2)
    38bc:	fa0a04e3          	beqz	s4,3864 <OsPmEnter+0x78>
    38c0:	8e018793          	addi	a5,gp,-1824 # 20000190 <g_pmSleepTime>
    38c4:	0007ac83          	lw	s9,0(a5) # e000f000 <_eusrstack+0xbffff000>
    38c8:	0047ac03          	lw	s8,4(a5)
    38cc:	018ce7b3          	or	a5,s9,s8
    38d0:	dbd1                	beqz	a5,3864 <OsPmEnter+0x78>
    38d2:	200007b7          	lui	a5,0x20000
    38d6:	0b07ad03          	lw	s10,176(a5) # 200000b0 <SystemCoreClock>
    38da:	4681                	li	a3,0
    38dc:	8566                	mv	a0,s9
    38de:	866a                	mv	a2,s10
    38e0:	85e2                	mv	a1,s8
    38e2:	3b9ad4b7          	lui	s1,0x3b9ad
    38e6:	6ac010ef          	jal	ra,4f92 <__umoddi3>
    38ea:	a0048493          	addi	s1,s1,-1536 # 3b9aca00 <_eusrstack+0x1b99ca00>
    38ee:	029537b3          	mulhu	a5,a0,s1
    38f2:	866a                	mv	a2,s10
    38f4:	4681                	li	a3,0
    38f6:	029585b3          	mul	a1,a1,s1
    38fa:	02950533          	mul	a0,a0,s1
    38fe:	95be                	add	a1,a1,a5
    3900:	300010ef          	jal	ra,4c00 <__udivdi3>
    3904:	8b2a                	mv	s6,a0
    3906:	8bae                	mv	s7,a1
    3908:	866a                	mv	a2,s10
    390a:	4681                	li	a3,0
    390c:	8566                	mv	a0,s9
    390e:	85e2                	mv	a1,s8
    3910:	2f0010ef          	jal	ra,4c00 <__udivdi3>
    3914:	02950c33          	mul	s8,a0,s1
    3918:	3b9ad637          	lui	a2,0x3b9ad
    391c:	a0060613          	addi	a2,a2,-1536 # 3b9aca00 <_eusrstack+0x1b99ca00>
    3920:	4681                	li	a3,0
    3922:	029585b3          	mul	a1,a1,s1
    3926:	9c5a                	add	s8,s8,s6
    3928:	016c3b33          	sltu	s6,s8,s6
    392c:	02953533          	mulhu	a0,a0,s1
    3930:	00a584b3          	add	s1,a1,a0
    3934:	94de                	add	s1,s1,s7
    3936:	94da                	add	s1,s1,s6
    3938:	8562                	mv	a0,s8
    393a:	85a6                	mv	a1,s1
    393c:	2c4010ef          	jal	ra,4c00 <__udivdi3>
    3940:	03450b33          	mul	s6,a0,s4
    3944:	3b9ad637          	lui	a2,0x3b9ad
    3948:	a0060613          	addi	a2,a2,-1536 # 3b9aca00 <_eusrstack+0x1b99ca00>
    394c:	4681                	li	a3,0
    394e:	034585b3          	mul	a1,a1,s4
    3952:	03453533          	mulhu	a0,a0,s4
    3956:	00a58bb3          	add	s7,a1,a0
    395a:	8562                	mv	a0,s8
    395c:	85a6                	mv	a1,s1
    395e:	634010ef          	jal	ra,4f92 <__umoddi3>
    3962:	034537b3          	mulhu	a5,a0,s4
    3966:	3b9ad637          	lui	a2,0x3b9ad
    396a:	a0060613          	addi	a2,a2,-1536 # 3b9aca00 <_eusrstack+0x1b99ca00>
    396e:	4681                	li	a3,0
    3970:	034585b3          	mul	a1,a1,s4
    3974:	03450533          	mul	a0,a0,s4
    3978:	95be                	add	a1,a1,a5
    397a:	286010ef          	jal	ra,4c00 <__udivdi3>
    397e:	00ab04b3          	add	s1,s6,a0
    3982:	9bae                	add	s7,s7,a1
    3984:	fe0fe0ef          	jal	ra,2164 <OsGetCurrSchedTimeCycle>
    3988:	01092783          	lw	a5,16(s2)
    398c:	d008                	sw	a0,32(s0)
    398e:	d04c                	sw	a1,36(s0)
    3990:	9782                	jalr	a5
    3992:	0164bb33          	sltu	s6,s1,s6
    3996:	00492783          	lw	a5,4(s2)
    399a:	9b5e                	add	s6,s6,s7
    399c:	8526                	mv	a0,s1
    399e:	85da                	mv	a1,s6
    39a0:	9782                	jalr	a5
    39a2:	b5c9                	j	3864 <OsPmEnter+0x78>
    39a4:	4058                	lw	a4,4(s0)
    39a6:	ef05                	bnez	a4,39de <OsPmEnter+0x1f2>
    39a8:	4384                	lw	s1,0(a5)
    39aa:	e4b1                	bnez	s1,39f6 <OsPmEnter+0x20a>
    39ac:	4505                	li	a0,1
    39ae:	e3cfd0ef          	jal	ra,fea <OsDoExcHook>
    39b2:	80ffc0ef          	jal	ra,1c0 <HalIntLock>
    39b6:	4509                	li	a0,2
    39b8:	e52fd0ef          	jal	ra,100a <OsLogLevelCheck>
    39bc:	e105                	bnez	a0,39dc <OsPmEnter+0x1f0>
    39be:	669d                	lui	a3,0x7
    39c0:	000075b7          	lui	a1,0x7
    39c4:	00007537          	lui	a0,0x7
    39c8:	35468693          	addi	a3,a3,852 # 7354 <__func__.6739>
    39cc:	09f00613          	li	a2,159
    39d0:	33058593          	addi	a1,a1,816 # 7330 <__func__.6102+0xe4>
    39d4:	1d850513          	addi	a0,a0,472 # 71d8 <__FUNCTION__.6856+0x50>
    39d8:	6f9010ef          	jal	ra,58d0 <iprintf>
    39dc:	a001                	j	39dc <OsPmEnter+0x1f0>
    39de:	4685                	li	a3,1
    39e0:	00d71463          	bne	a4,a3,39e8 <OsPmEnter+0x1fc>
    39e4:	4784                	lw	s1,8(a5)
    39e6:	b7d1                	j	39aa <OsPmEnter+0x1be>
    39e8:	4689                	li	a3,2
    39ea:	00d71463          	bne	a4,a3,39f2 <OsPmEnter+0x206>
    39ee:	4b84                	lw	s1,16(a5)
    39f0:	bf6d                	j	39aa <OsPmEnter+0x1be>
    39f2:	4f84                	lw	s1,24(a5)
    39f4:	bf5d                	j	39aa <OsPmEnter+0x1be>
    39f6:	8556                	mv	a0,s5
    39f8:	fe4fc0ef          	jal	ra,1dc <HalIntRestore>
    39fc:	00098463          	beqz	s3,3a04 <OsPmEnter+0x218>
    3a00:	445c                	lw	a5,12(s0)
    3a02:	e391                	bnez	a5,3a06 <OsPmEnter+0x21a>
    3a04:	9482                	jalr	s1
    3a06:	fbafc0ef          	jal	ra,1c0 <HalIntLock>
    3a0a:	405c                	lw	a5,4(s0)
    3a0c:	8aaa                	mv	s5,a0
    3a0e:	eb91                	bnez	a5,3a22 <OsPmEnter+0x236>
    3a10:	485c                	lw	a5,20(s0)
    3a12:	43dc                	lw	a5,4(a5)
    3a14:	c79d                	beqz	a5,3a42 <OsPmEnter+0x256>
    3a16:	9782                	jalr	a5
    3a18:	4058                	lw	a4,4(s0)
    3a1a:	4789                	li	a5,2
    3a1c:	02f71363          	bne	a4,a5,3a42 <OsPmEnter+0x256>
    3a20:	a829                	j	3a3a <OsPmEnter+0x24e>
    3a22:	4705                	li	a4,1
    3a24:	00e79563          	bne	a5,a4,3a2e <OsPmEnter+0x242>
    3a28:	485c                	lw	a5,20(s0)
    3a2a:	47dc                	lw	a5,12(a5)
    3a2c:	b7e5                	j	3a14 <OsPmEnter+0x228>
    3a2e:	4709                	li	a4,2
    3a30:	00e79963          	bne	a5,a4,3a42 <OsPmEnter+0x256>
    3a34:	485c                	lw	a5,20(s0)
    3a36:	4bdc                	lw	a5,20(a5)
    3a38:	fff9                	bnez	a5,3a16 <OsPmEnter+0x22a>
    3a3a:	4c1c                	lw	a5,24(s0)
    3a3c:	4bdc                	lw	a5,20(a5)
    3a3e:	10079d63          	bnez	a5,3b58 <OsPmEnter+0x36c>
    3a42:	501c                	lw	a5,32(s0)
    3a44:	5058                	lw	a4,36(s0)
    3a46:	8fd9                	or	a5,a5,a4
    3a48:	10078963          	beqz	a5,3b5a <OsPmEnter+0x36e>
    3a4c:	01842a03          	lw	s4,24(s0)
    3a50:	f70fc0ef          	jal	ra,1c0 <HalIntLock>
    3a54:	8caa                	mv	s9,a0
    3a56:	00ca2783          	lw	a5,12(s4)
    3a5a:	3b9ad4b7          	lui	s1,0x3b9ad
    3a5e:	a0048493          	addi	s1,s1,-1536 # 3b9aca00 <_eusrstack+0x1b99ca00>
    3a62:	9782                	jalr	a5
    3a64:	008a2783          	lw	a5,8(s4)
    3a68:	8b2a                	mv	s6,a0
    3a6a:	8bae                	mv	s7,a1
    3a6c:	9782                	jalr	a5
    3a6e:	200007b7          	lui	a5,0x20000
    3a72:	0b07ac03          	lw	s8,176(a5) # 200000b0 <SystemCoreClock>
    3a76:	4681                	li	a3,0
    3a78:	855a                	mv	a0,s6
    3a7a:	8662                	mv	a2,s8
    3a7c:	85de                	mv	a1,s7
    3a7e:	514010ef          	jal	ra,4f92 <__umoddi3>
    3a82:	029537b3          	mulhu	a5,a0,s1
    3a86:	000a2d03          	lw	s10,0(s4)
    3a8a:	4681                	li	a3,0
    3a8c:	866a                	mv	a2,s10
    3a8e:	029585b3          	mul	a1,a1,s1
    3a92:	02950533          	mul	a0,a0,s1
    3a96:	95be                	add	a1,a1,a5
    3a98:	168010ef          	jal	ra,4c00 <__udivdi3>
    3a9c:	892a                	mv	s2,a0
    3a9e:	8dae                	mv	s11,a1
    3aa0:	866a                	mv	a2,s10
    3aa2:	4681                	li	a3,0
    3aa4:	855a                	mv	a0,s6
    3aa6:	85de                	mv	a1,s7
    3aa8:	158010ef          	jal	ra,4c00 <__udivdi3>
    3aac:	029585b3          	mul	a1,a1,s1
    3ab0:	3b9ad637          	lui	a2,0x3b9ad
    3ab4:	a0060613          	addi	a2,a2,-1536 # 3b9aca00 <_eusrstack+0x1b99ca00>
    3ab8:	4681                	li	a3,0
    3aba:	02950bb3          	mul	s7,a0,s1
    3abe:	02953533          	mulhu	a0,a0,s1
    3ac2:	9bca                	add	s7,s7,s2
    3ac4:	012bb933          	sltu	s2,s7,s2
    3ac8:	952e                	add	a0,a0,a1
    3aca:	00ad8b33          	add	s6,s11,a0
    3ace:	9b4a                	add	s6,s6,s2
    3ad0:	855e                	mv	a0,s7
    3ad2:	85da                	mv	a1,s6
    3ad4:	12c010ef          	jal	ra,4c00 <__udivdi3>
    3ad8:	038585b3          	mul	a1,a1,s8
    3adc:	5004                	lw	s1,32(s0)
    3ade:	3b9ad637          	lui	a2,0x3b9ad
    3ae2:	a0060613          	addi	a2,a2,-1536 # 3b9aca00 <_eusrstack+0x1b99ca00>
    3ae6:	4681                	li	a3,0
    3ae8:	03853933          	mulhu	s2,a0,s8
    3aec:	038507b3          	mul	a5,a0,s8
    3af0:	992e                	add	s2,s2,a1
    3af2:	504c                	lw	a1,36(s0)
    3af4:	855e                	mv	a0,s7
    3af6:	992e                	add	s2,s2,a1
    3af8:	85da                	mv	a1,s6
    3afa:	94be                	add	s1,s1,a5
    3afc:	00f4b7b3          	sltu	a5,s1,a5
    3b00:	993e                	add	s2,s2,a5
    3b02:	490010ef          	jal	ra,4f92 <__umoddi3>
    3b06:	038537b3          	mulhu	a5,a0,s8
    3b0a:	3b9ad637          	lui	a2,0x3b9ad
    3b0e:	4681                	li	a3,0
    3b10:	a0060613          	addi	a2,a2,-1536 # 3b9aca00 <_eusrstack+0x1b99ca00>
    3b14:	038585b3          	mul	a1,a1,s8
    3b18:	03850533          	mul	a0,a0,s8
    3b1c:	95be                	add	a1,a1,a5
    3b1e:	0e2010ef          	jal	ra,4c00 <__udivdi3>
    3b22:	00a48b33          	add	s6,s1,a0
    3b26:	95ca                	add	a1,a1,s2
    3b28:	009b34b3          	sltu	s1,s6,s1
    3b2c:	94ae                	add	s1,s1,a1
    3b2e:	4801                	li	a6,0
    3b30:	4781                	li	a5,0
    3b32:	855a                	mv	a0,s6
    3b34:	85a6                	mv	a1,s1
    3b36:	d01c                	sw	a5,32(s0)
    3b38:	03042223          	sw	a6,36(s0)
    3b3c:	dc8fe0ef          	jal	ra,2104 <OsSchedTimerBaseReset>
    3b40:	855a                	mv	a0,s6
    3b42:	4601                	li	a2,0
    3b44:	85a6                	mv	a1,s1
    3b46:	ff0fe0ef          	jal	ra,2336 <OsSchedUpdateExpireTime>
    3b4a:	014a2783          	lw	a5,20(s4)
    3b4e:	9782                	jalr	a5
    3b50:	8566                	mv	a0,s9
    3b52:	e8afc0ef          	jal	ra,1dc <HalIntRestore>
    3b56:	a011                	j	3b5a <OsPmEnter+0x36e>
    3b58:	9782                	jalr	a5
    3b5a:	4048                	lw	a0,4(s0)
    3b5c:	c501                	beqz	a0,3b64 <OsPmEnter+0x378>
    3b5e:	481c                	lw	a5,16(s0)
    3b60:	43dc                	lw	a5,4(a5)
    3b62:	9782                	jalr	a5
    3b64:	4018                	lw	a4,0(s0)
    3b66:	4789                	li	a5,2
    3b68:	00f71463          	bne	a4,a5,3b70 <OsPmEnter+0x384>
    3b6c:	00042023          	sw	zero,0(s0)
    3b70:	8556                	mv	a0,s5
    3b72:	e6afc0ef          	jal	ra,1dc <HalIntRestore>
    3b76:	ca098ae3          	beqz	s3,382a <OsPmEnter+0x3e>
    3b7a:	9a1ff0ef          	jal	ra,351a <LOS_TaskUnlock>
    3b7e:	b175                	j	382a <OsPmEnter+0x3e>

00003b80 <LOS_PmRegister>:
    3b80:	c1bd                	beqz	a1,3be6 <LOS_PmRegister+0x66>
    3b82:	efcfc2ef          	jal	t0,27e <__riscv_save_0>
    3b86:	4785                	li	a5,1
    3b88:	842e                	mv	s0,a1
    3b8a:	02f50963          	beq	a0,a5,3bbc <LOS_PmRegister+0x3c>
    3b8e:	c909                	beqz	a0,3ba0 <LOS_PmRegister+0x20>
    3b90:	4789                	li	a5,2
    3b92:	04f50163          	beq	a0,a5,3bd4 <LOS_PmRegister+0x54>
    3b96:	02002537          	lui	a0,0x2002
    3b9a:	0519                	addi	a0,a0,6
    3b9c:	f06fc06f          	j	2a2 <__riscv_restore_0>
    3ba0:	419c                	lw	a5,0(a1)
    3ba2:	c7b1                	beqz	a5,3bee <LOS_PmRegister+0x6e>
    3ba4:	41dc                	lw	a5,4(a1)
    3ba6:	c7a1                	beqz	a5,3bee <LOS_PmRegister+0x6e>
    3ba8:	e18fc0ef          	jal	ra,1c0 <HalIntLock>
    3bac:	200087b7          	lui	a5,0x20008
    3bb0:	7687a823          	sw	s0,1904(a5) # 20008770 <g_pmCB+0x10>
    3bb4:	e28fc0ef          	jal	ra,1dc <HalIntRestore>
    3bb8:	4501                	li	a0,0
    3bba:	b7cd                	j	3b9c <LOS_PmRegister+0x1c>
    3bbc:	e04fc0ef          	jal	ra,1c0 <HalIntLock>
    3bc0:	200087b7          	lui	a5,0x20008
    3bc4:	76078793          	addi	a5,a5,1888 # 20008760 <g_pmCB>
    3bc8:	4681                	li	a3,0
    3bca:	4701                	li	a4,0
    3bcc:	d394                	sw	a3,32(a5)
    3bce:	d3d8                	sw	a4,36(a5)
    3bd0:	cf80                	sw	s0,24(a5)
    3bd2:	b7cd                	j	3bb4 <LOS_PmRegister+0x34>
    3bd4:	419c                	lw	a5,0(a1)
    3bd6:	cf81                	beqz	a5,3bee <LOS_PmRegister+0x6e>
    3bd8:	de8fc0ef          	jal	ra,1c0 <HalIntLock>
    3bdc:	200087b7          	lui	a5,0x20008
    3be0:	7687aa23          	sw	s0,1908(a5) # 20008774 <g_pmCB+0x14>
    3be4:	bfc1                	j	3bb4 <LOS_PmRegister+0x34>
    3be6:	02002537          	lui	a0,0x2002
    3bea:	0509                	addi	a0,a0,2
    3bec:	8082                	ret
    3bee:	02002537          	lui	a0,0x2002
    3bf2:	0509                	addi	a0,a0,2
    3bf4:	b765                	j	3b9c <LOS_PmRegister+0x1c>

00003bf6 <OsPmInit>:
    3bf6:	e88fc2ef          	jal	t0,27e <__riscv_save_0>
    3bfa:	20008537          	lui	a0,0x20008
    3bfe:	76050413          	addi	s0,a0,1888 # 20008760 <g_pmCB>
    3c02:	02800693          	li	a3,40
    3c06:	4601                	li	a2,0
    3c08:	02800593          	li	a1,40
    3c0c:	76050513          	addi	a0,a0,1888
    3c10:	cd6fd0ef          	jal	ra,10e6 <memset_s>
    3c14:	00003537          	lui	a0,0x3
    3c18:	7e250513          	addi	a0,a0,2018 # 37e2 <OsPmSleepTimeSet>
    3c1c:	00042023          	sw	zero,0(s0)
    3c20:	cacfe0ef          	jal	ra,20cc <OsSchedRealSleepTimeSet>
    3c24:	842a                	mv	s0,a0
    3c26:	ed29                	bnez	a0,3c80 <OsPmInit+0x8a>
    3c28:	00003537          	lui	a0,0x3
    3c2c:	7ec50513          	addi	a0,a0,2028 # 37ec <OsPmEnter>
    3c30:	c22ff0ef          	jal	ra,3052 <OsPmEnterHandlerSet>
    3c34:	842a                	mv	s0,a0
    3c36:	e529                	bnez	a0,3c80 <OsPmInit+0x8a>
    3c38:	82c1a503          	lw	a0,-2004(gp) # 200000dc <m_aucSysMem0>
    3c3c:	02000593          	li	a1,32
    3c40:	bb5fd0ef          	jal	ra,17f4 <LOS_MemAlloc>
    3c44:	8e818493          	addi	s1,gp,-1816 # 20000198 <g_sysctrl>
    3c48:	c088                	sw	a0,0(s1)
    3c4a:	4405                	li	s0,1
    3c4c:	c915                	beqz	a0,3c80 <OsPmInit+0x8a>
    3c4e:	02000693          	li	a3,32
    3c52:	4601                	li	a2,0
    3c54:	02000593          	li	a1,32
    3c58:	c8efd0ef          	jal	ra,10e6 <memset_s>
    3c5c:	408c                	lw	a1,0(s1)
    3c5e:	000037b7          	lui	a5,0x3
    3c62:	7cc78793          	addi	a5,a5,1996 # 37cc <HalEnterSleep>
    3c66:	c19c                	sw	a5,0(a1)
    3c68:	4509                	li	a0,2
    3c6a:	f17ff0ef          	jal	ra,3b80 <LOS_PmRegister>
    3c6e:	842a                	mv	s0,a0
    3c70:	c901                	beqz	a0,3c80 <OsPmInit+0x8a>
    3c72:	408c                	lw	a1,0(s1)
    3c74:	82c1a503          	lw	a0,-2004(gp) # 200000dc <m_aucSysMem0>
    3c78:	84ffd0ef          	jal	ra,14c6 <LOS_MemFree>
    3c7c:	0004a023          	sw	zero,0(s1)
    3c80:	8522                	mv	a0,s0
    3c82:	e20fc06f          	j	2a2 <__riscv_restore_0>

00003c86 <EPD_Init>:
    3c86:	df8fc2ef          	jal	t0,27e <__riscv_save_0>
    3c8a:	4551                	li	a0,20
    3c8c:	2c61                	jal	3f24 <EPD_Delay>
    3c8e:	40011437          	lui	s0,0x40011
    3c92:	45a1                	li	a1,8
    3c94:	40040513          	addi	a0,s0,1024 # 40011400 <_eusrstack+0x20001400>
    3c98:	ff3fc0ef          	jal	ra,c8a <GPIO_ResetBits>
    3c9c:	02800513          	li	a0,40
    3ca0:	2451                	jal	3f24 <EPD_Delay>
    3ca2:	45a1                	li	a1,8
    3ca4:	40040513          	addi	a0,s0,1024
    3ca8:	fdffc0ef          	jal	ra,c86 <GPIO_SetBits>
    3cac:	03200513          	li	a0,50
    3cb0:	2c95                	jal	3f24 <EPD_Delay>
    3cb2:	2c91                	jal	3f06 <EPD_CheckBusy>
    3cb4:	0e900513          	li	a0,233
    3cb8:	2af9                	jal	3e96 <EPD_WriteCMD>
    3cba:	4505                	li	a0,1
    3cbc:	2c09                	jal	3ece <EPD_WriteDATA>
    3cbe:	4511                	li	a0,4
    3cc0:	2ad9                	jal	3e96 <EPD_WriteCMD>
    3cc2:	2491                	jal	3f06 <EPD_CheckBusy>
    3cc4:	ddefc06f          	j	2a2 <__riscv_restore_0>

00003cc8 <EPD_Init_Fast>:
    3cc8:	db6fc2ef          	jal	t0,27e <__riscv_save_0>
    3ccc:	06400513          	li	a0,100
    3cd0:	2c91                	jal	3f24 <EPD_Delay>
    3cd2:	40011437          	lui	s0,0x40011
    3cd6:	45a1                	li	a1,8
    3cd8:	40040513          	addi	a0,s0,1024 # 40011400 <_eusrstack+0x20001400>
    3cdc:	faffc0ef          	jal	ra,c8a <GPIO_ResetBits>
    3ce0:	4529                	li	a0,10
    3ce2:	2489                	jal	3f24 <EPD_Delay>
    3ce4:	45a1                	li	a1,8
    3ce6:	40040513          	addi	a0,s0,1024
    3cea:	f9dfc0ef          	jal	ra,c86 <GPIO_SetBits>
    3cee:	4529                	li	a0,10
    3cf0:	2c15                	jal	3f24 <EPD_Delay>
    3cf2:	2c11                	jal	3f06 <EPD_CheckBusy>
    3cf4:	0e000513          	li	a0,224
    3cf8:	2a79                	jal	3e96 <EPD_WriteCMD>
    3cfa:	4509                	li	a0,2
    3cfc:	2ac9                	jal	3ece <EPD_WriteDATA>
    3cfe:	4511                	li	a0,4
    3d00:	2a59                	jal	3e96 <EPD_WriteCMD>
    3d02:	2411                	jal	3f06 <EPD_CheckBusy>
    3d04:	d9efc06f          	j	2a2 <__riscv_restore_0>

00003d08 <EPD_Sleep>:
    3d08:	d76fc2ef          	jal	t0,27e <__riscv_save_0>
    3d0c:	4509                	li	a0,2
    3d0e:	2261                	jal	3e96 <EPD_WriteCMD>
    3d10:	4501                	li	a0,0
    3d12:	2a75                	jal	3ece <EPD_WriteDATA>
    3d14:	2acd                	jal	3f06 <EPD_CheckBusy>
    3d16:	451d                	li	a0,7
    3d18:	2abd                	jal	3e96 <EPD_WriteCMD>
    3d1a:	0a500513          	li	a0,165
    3d1e:	2a45                	jal	3ece <EPD_WriteDATA>
    3d20:	d82fc06f          	j	2a2 <__riscv_restore_0>

00003d24 <EPD_Update>:
    3d24:	d5afc2ef          	jal	t0,27e <__riscv_save_0>
    3d28:	4549                	li	a0,18
    3d2a:	22b5                	jal	3e96 <EPD_WriteCMD>
    3d2c:	4501                	li	a0,0
    3d2e:	2245                	jal	3ece <EPD_WriteDATA>
    3d30:	2ad9                	jal	3f06 <EPD_CheckBusy>
    3d32:	d70fc06f          	j	2a2 <__riscv_restore_0>

00003d36 <EPD_DisplayImage>:
    3d36:	d2efc2ef          	jal	t0,264 <__riscv_save_4>
    3d3a:	84aa                	mv	s1,a0
    3d3c:	4541                	li	a0,16
    3d3e:	6989                	lui	s3,0x2
    3d40:	2a99                	jal	3e96 <EPD_WriteCMD>
    3d42:	4901                	li	s2,0
    3d44:	81818413          	addi	s0,gp,-2024 # 200000c8 <CSWTCH.1>
    3d48:	f4098993          	addi	s3,s3,-192 # 1f40 <OsQueueOperate+0x182>
    3d4c:	012487b3          	add	a5,s1,s2
    3d50:	239c                	lbu	a5,0(a5)
    3d52:	0905                	addi	s2,s2,1
    3d54:	0067d713          	srli	a4,a5,0x6
    3d58:	9722                	add	a4,a4,s0
    3d5a:	2308                	lbu	a0,0(a4)
    3d5c:	0037f713          	andi	a4,a5,3
    3d60:	9722                	add	a4,a4,s0
    3d62:	2318                	lbu	a4,0(a4)
    3d64:	051a                	slli	a0,a0,0x6
    3d66:	8d59                	or	a0,a0,a4
    3d68:	0047d713          	srli	a4,a5,0x4
    3d6c:	8b0d                	andi	a4,a4,3
    3d6e:	8389                	srli	a5,a5,0x2
    3d70:	9722                	add	a4,a4,s0
    3d72:	8b8d                	andi	a5,a5,3
    3d74:	2318                	lbu	a4,0(a4)
    3d76:	97a2                	add	a5,a5,s0
    3d78:	239c                	lbu	a5,0(a5)
    3d7a:	0712                	slli	a4,a4,0x4
    3d7c:	8d59                	or	a0,a0,a4
    3d7e:	078a                	slli	a5,a5,0x2
    3d80:	8d5d                	or	a0,a0,a5
    3d82:	0ff57513          	andi	a0,a0,255
    3d86:	22a1                	jal	3ece <EPD_WriteDATA>
    3d88:	fd3912e3          	bne	s2,s3,3d4c <EPD_DisplayImage+0x16>
    3d8c:	f99ff0ef          	jal	ra,3d24 <EPD_Update>
    3d90:	d08fc06f          	j	298 <__riscv_restore_4>

00003d94 <EPD_DisplayImage_Paragraph>:
    3d94:	ceafc2ef          	jal	t0,27e <__riscv_save_0>
    3d98:	4785                	li	a5,1
    3d9a:	842a                	mv	s0,a0
    3d9c:	892e                	mv	s2,a1
    3d9e:	00f61463          	bne	a2,a5,3da6 <EPD_DisplayImage_Paragraph+0x12>
    3da2:	4541                	li	a0,16
    3da4:	28cd                	jal	3e96 <EPD_WriteCMD>
    3da6:	9922                	add	s2,s2,s0
    3da8:	81818493          	addi	s1,gp,-2024 # 200000c8 <CSWTCH.1>
    3dac:	01241463          	bne	s0,s2,3db4 <EPD_DisplayImage_Paragraph+0x20>
    3db0:	cf2fc06f          	j	2a2 <__riscv_restore_0>
    3db4:	201c                	lbu	a5,0(s0)
    3db6:	0405                	addi	s0,s0,1
    3db8:	0067d713          	srli	a4,a5,0x6
    3dbc:	0037f693          	andi	a3,a5,3
    3dc0:	9726                	add	a4,a4,s1
    3dc2:	2318                	lbu	a4,0(a4)
    3dc4:	96a6                	add	a3,a3,s1
    3dc6:	2288                	lbu	a0,0(a3)
    3dc8:	0047d693          	srli	a3,a5,0x4
    3dcc:	8a8d                	andi	a3,a3,3
    3dce:	8389                	srli	a5,a5,0x2
    3dd0:	96a6                	add	a3,a3,s1
    3dd2:	071a                	slli	a4,a4,0x6
    3dd4:	8b8d                	andi	a5,a5,3
    3dd6:	8f49                	or	a4,a4,a0
    3dd8:	97a6                	add	a5,a5,s1
    3dda:	2288                	lbu	a0,0(a3)
    3ddc:	239c                	lbu	a5,0(a5)
    3dde:	0512                	slli	a0,a0,0x4
    3de0:	8f49                	or	a4,a4,a0
    3de2:	078a                	slli	a5,a5,0x2
    3de4:	8fd9                	or	a5,a5,a4
    3de6:	0ff7f513          	andi	a0,a5,255
    3dea:	20d5                	jal	3ece <EPD_WriteDATA>
    3dec:	b7c1                	j	3dac <EPD_DisplayImage_Paragraph+0x18>

00003dee <EPD_SPI_Init>:
    3dee:	c90fc2ef          	jal	t0,27e <__riscv_save_0>
    3df2:	1141                	addi	sp,sp,-16
    3df4:	4585                	li	a1,1
    3df6:	02000513          	li	a0,32
    3dfa:	870fd0ef          	jal	ra,e6a <RCC_APB2PeriphClockCmd>
    3dfe:	4585                	li	a1,1
    3e00:	04000513          	li	a0,64
    3e04:	866fd0ef          	jal	ra,e6a <RCC_APB2PeriphClockCmd>
    3e08:	6785                	lui	a5,0x1
    3e0a:	f0878793          	addi	a5,a5,-248 # f08 <USART_Init+0x62>
    3e0e:	827c                	sh	a5,4(sp)
    3e10:	40011537          	lui	a0,0x40011
    3e14:	47c1                	li	a5,16
    3e16:	c63e                	sw	a5,12(sp)
    3e18:	004c                	addi	a1,sp,4
    3e1a:	478d                	li	a5,3
    3e1c:	40050513          	addi	a0,a0,1024 # 40011400 <_eusrstack+0x20001400>
    3e20:	c43e                	sw	a5,8(sp)
    3e22:	d9bfc0ef          	jal	ra,bbc <GPIO_Init>
    3e26:	77e1                	lui	a5,0xffff8
    3e28:	40012537          	lui	a0,0x40012
    3e2c:	827c                	sh	a5,4(sp)
    3e2e:	004c                	addi	a1,sp,4
    3e30:	04800793          	li	a5,72
    3e34:	80050513          	addi	a0,a0,-2048 # 40011800 <_eusrstack+0x20001800>
    3e38:	c63e                	sw	a5,12(sp)
    3e3a:	d83fc0ef          	jal	ra,bbc <GPIO_Init>
    3e3e:	0141                	addi	sp,sp,16
    3e40:	c62fc06f          	j	2a2 <__riscv_restore_0>

00003e44 <EPD_Write>:
    3e44:	c20fc2ef          	jal	t0,264 <__riscv_save_4>
    3e48:	6985                	lui	s3,0x1
    3e4a:	40011437          	lui	s0,0x40011
    3e4e:	892a                	mv	s2,a0
    3e50:	44a1                	li	s1,8
    3e52:	80098993          	addi	s3,s3,-2048 # 800 <__stack_size>
    3e56:	40040413          	addi	s0,s0,1024 # 40011400 <_eusrstack+0x20001400>
    3e5a:	85ce                	mv	a1,s3
    3e5c:	8522                	mv	a0,s0
    3e5e:	e2dfc0ef          	jal	ra,c8a <GPIO_ResetBits>
    3e62:	01891793          	slli	a5,s2,0x18
    3e66:	87e1                	srai	a5,a5,0x18
    3e68:	40000593          	li	a1,1024
    3e6c:	8522                	mv	a0,s0
    3e6e:	0207d163          	bgez	a5,3e90 <EPD_Write+0x4c>
    3e72:	e15fc0ef          	jal	ra,c86 <GPIO_SetBits>
    3e76:	14fd                	addi	s1,s1,-1
    3e78:	0906                	slli	s2,s2,0x1
    3e7a:	85ce                	mv	a1,s3
    3e7c:	8522                	mv	a0,s0
    3e7e:	0ff4f493          	andi	s1,s1,255
    3e82:	0ff97913          	andi	s2,s2,255
    3e86:	e01fc0ef          	jal	ra,c86 <GPIO_SetBits>
    3e8a:	f8e1                	bnez	s1,3e5a <EPD_Write+0x16>
    3e8c:	c0cfc06f          	j	298 <__riscv_restore_4>
    3e90:	dfbfc0ef          	jal	ra,c8a <GPIO_ResetBits>
    3e94:	b7cd                	j	3e76 <EPD_Write+0x32>

00003e96 <EPD_WriteCMD>:
    3e96:	be8fc2ef          	jal	t0,27e <__riscv_save_0>
    3e9a:	40011437          	lui	s0,0x40011
    3e9e:	84aa                	mv	s1,a0
    3ea0:	10000593          	li	a1,256
    3ea4:	40040513          	addi	a0,s0,1024 # 40011400 <_eusrstack+0x20001400>
    3ea8:	de3fc0ef          	jal	ra,c8a <GPIO_ResetBits>
    3eac:	20000593          	li	a1,512
    3eb0:	40040513          	addi	a0,s0,1024
    3eb4:	dd7fc0ef          	jal	ra,c8a <GPIO_ResetBits>
    3eb8:	8526                	mv	a0,s1
    3eba:	f8bff0ef          	jal	ra,3e44 <EPD_Write>
    3ebe:	10000593          	li	a1,256
    3ec2:	40040513          	addi	a0,s0,1024
    3ec6:	dc1fc0ef          	jal	ra,c86 <GPIO_SetBits>
    3eca:	bd8fc06f          	j	2a2 <__riscv_restore_0>

00003ece <EPD_WriteDATA>:
    3ece:	bb0fc2ef          	jal	t0,27e <__riscv_save_0>
    3ed2:	40011437          	lui	s0,0x40011
    3ed6:	84aa                	mv	s1,a0
    3ed8:	10000593          	li	a1,256
    3edc:	40040513          	addi	a0,s0,1024 # 40011400 <_eusrstack+0x20001400>
    3ee0:	dabfc0ef          	jal	ra,c8a <GPIO_ResetBits>
    3ee4:	20000593          	li	a1,512
    3ee8:	40040513          	addi	a0,s0,1024
    3eec:	d9bfc0ef          	jal	ra,c86 <GPIO_SetBits>
    3ef0:	8526                	mv	a0,s1
    3ef2:	f53ff0ef          	jal	ra,3e44 <EPD_Write>
    3ef6:	10000593          	li	a1,256
    3efa:	40040513          	addi	a0,s0,1024
    3efe:	d89fc0ef          	jal	ra,c86 <GPIO_SetBits>
    3f02:	ba0fc06f          	j	2a2 <__riscv_restore_0>

00003f06 <EPD_CheckBusy>:
    3f06:	b78fc2ef          	jal	t0,27e <__riscv_save_0>
    3f0a:	40012437          	lui	s0,0x40012
    3f0e:	80040413          	addi	s0,s0,-2048 # 40011800 <_eusrstack+0x20001800>
    3f12:	4485                	li	s1,1
    3f14:	65a1                	lui	a1,0x8
    3f16:	8522                	mv	a0,s0
    3f18:	d65fc0ef          	jal	ra,c7c <GPIO_ReadInputDataBit>
    3f1c:	fe951ce3          	bne	a0,s1,3f14 <EPD_CheckBusy+0xe>
    3f20:	b82fc06f          	j	2a2 <__riscv_restore_0>

00003f24 <EPD_Delay>:
    3f24:	67dd                	lui	a5,0x17
    3f26:	56fd                	li	a3,-1
    3f28:	157d                	addi	a0,a0,-1
    3f2a:	6ff78793          	addi	a5,a5,1791 # 176ff <_data_lma+0xfab3>
    3f2e:	00d51763          	bne	a0,a3,3f3c <EPD_Delay+0x18>
    3f32:	8082                	ret
    3f34:	4732                	lw	a4,12(sp)
    3f36:	0705                	addi	a4,a4,1
    3f38:	c63a                	sw	a4,12(sp)
    3f3a:	a019                	j	3f40 <EPD_Delay+0x1c>
    3f3c:	1141                	addi	sp,sp,-16
    3f3e:	c602                	sw	zero,12(sp)
    3f40:	4732                	lw	a4,12(sp)
    3f42:	fee7f9e3          	bgeu	a5,a4,3f34 <EPD_Delay+0x10>
    3f46:	157d                	addi	a0,a0,-1
    3f48:	fed51be3          	bne	a0,a3,3f3e <EPD_Delay+0x1a>
    3f4c:	0141                	addi	sp,sp,16
    3f4e:	8082                	ret

00003f50 <ESP8266_Delay>:
    3f50:	67dd                	lui	a5,0x17
    3f52:	56fd                	li	a3,-1
    3f54:	157d                	addi	a0,a0,-1
    3f56:	6ff78793          	addi	a5,a5,1791 # 176ff <_data_lma+0xfab3>
    3f5a:	00d51763          	bne	a0,a3,3f68 <ESP8266_Delay+0x18>
    3f5e:	8082                	ret
    3f60:	4732                	lw	a4,12(sp)
    3f62:	0705                	addi	a4,a4,1
    3f64:	c63a                	sw	a4,12(sp)
    3f66:	a019                	j	3f6c <ESP8266_Delay+0x1c>
    3f68:	1141                	addi	sp,sp,-16
    3f6a:	c602                	sw	zero,12(sp)
    3f6c:	4732                	lw	a4,12(sp)
    3f6e:	fee7f9e3          	bgeu	a5,a4,3f60 <ESP8266_Delay+0x10>
    3f72:	157d                	addi	a0,a0,-1
    3f74:	fed51be3          	bne	a0,a3,3f6a <ESP8266_Delay+0x1a>
    3f78:	0141                	addi	sp,sp,16
    3f7a:	8082                	ret

00003f7c <WIFI_SendCMD>:
    3f7c:	adafc2ef          	jal	t0,256 <__riscv_save_10>
    3f80:	4785                	li	a5,1
    3f82:	40002a37          	lui	s4,0x40002
    3f86:	8e018723          	sb	zero,-1810(gp) # 2000019e <WIFI_CMD_FLAG>
    3f8a:	8ef18823          	sb	a5,-1808(gp) # 200001a0 <WIFI_RECVSTOP>
    3f8e:	8aaa                	mv	s5,a0
    3f90:	4985                	li	s3,1
    3f92:	8ee18493          	addi	s1,gp,-1810 # 2000019e <WIFI_CMD_FLAG>
    3f96:	8f018413          	addi	s0,gp,-1808 # 200001a0 <WIFI_RECVSTOP>
    3f9a:	00008b37          	lui	s6,0x8
    3f9e:	800a0a13          	addi	s4,s4,-2048 # 40001800 <_eusrstack+0x1fff1800>
    3fa2:	4b85                	li	s7,1
    3fa4:	4c09                	li	s8,2
    3fa6:	00008cb7          	lui	s9,0x8
    3faa:	4d11                	li	s10,4
    3fac:	8656                	mv	a2,s5
    3fae:	85ce                	mv	a1,s3
    3fb0:	970b0513          	addi	a0,s6,-1680 # 7970 <Font24CN_Table+0x60c>
    3fb4:	11d010ef          	jal	ra,58d0 <iprintf>
    3fb8:	85d6                	mv	a1,s5
    3fba:	8552                	mv	a0,s4
    3fbc:	b41fc0ef          	jal	ra,afc <USER_UART_SendString>
    3fc0:	7d000913          	li	s2,2000
    3fc4:	209c                	lbu	a5,0(s1)
    3fc6:	01779d63          	bne	a5,s7,3fe0 <WIFI_SendCMD+0x64>
    3fca:	00008537          	lui	a0,0x8
    3fce:	99050513          	addi	a0,a0,-1648 # 7990 <Font24CN_Table+0x62c>
    3fd2:	00040023          	sb	zero,0(s0)
    3fd6:	215010ef          	jal	ra,59ea <puts>
    3fda:	4501                	li	a0,0
    3fdc:	ab2fc06f          	j	28e <__riscv_restore_10>
    3fe0:	01879e63          	bne	a5,s8,3ffc <WIFI_SendCMD+0x80>
    3fe4:	9a4c8513          	addi	a0,s9,-1628 # 79a4 <Font24CN_Table+0x640>
    3fe8:	203010ef          	jal	ra,59ea <puts>
    3fec:	0985                	addi	s3,s3,1
    3fee:	03a98c63          	beq	s3,s10,4026 <WIFI_SendCMD+0xaa>
    3ff2:	06400513          	li	a0,100
    3ff6:	cbaff0ef          	jal	ra,34b0 <LOS_TaskDelay>
    3ffa:	bf4d                	j	3fac <WIFI_SendCMD+0x30>
    3ffc:	197d                	addi	s2,s2,-1
    3ffe:	0942                	slli	s2,s2,0x10
    4000:	4529                	li	a0,10
    4002:	01095913          	srli	s2,s2,0x10
    4006:	caaff0ef          	jal	ra,34b0 <LOS_TaskDelay>
    400a:	fa091de3          	bnez	s2,3fc4 <WIFI_SendCMD+0x48>
    400e:	209c                	lbu	a5,0(s1)
    4010:	fff1                	bnez	a5,3fec <WIFI_SendCMD+0x70>
    4012:	00008537          	lui	a0,0x8
    4016:	9c850513          	addi	a0,a0,-1592 # 79c8 <Font24CN_Table+0x664>
    401a:	1d1010ef          	jal	ra,59ea <puts>
    401e:	4509                	li	a0,2
    4020:	00040023          	sb	zero,0(s0)
    4024:	bf65                	j	3fdc <WIFI_SendCMD+0x60>
    4026:	00008537          	lui	a0,0x8
    402a:	458d                	li	a1,3
    402c:	9e450513          	addi	a0,a0,-1564 # 79e4 <Font24CN_Table+0x680>
    4030:	0a1010ef          	jal	ra,58d0 <iprintf>
    4034:	4505                	li	a0,1
    4036:	00040023          	sb	zero,0(s0)
    403a:	b74d                	j	3fdc <WIFI_SendCMD+0x60>

0000403c <WIFI_Init>:
    403c:	a42fc2ef          	jal	t0,27e <__riscv_save_0>
    4040:	8e018823          	sb	zero,-1808(gp) # 200001a0 <WIFI_RECVSTOP>
    4044:	8e0187a3          	sb	zero,-1809(gp) # 2000019f <WIFI_CONNECT_STATE>
    4048:	8e018623          	sb	zero,-1812(gp) # 2000019c <WIFI_AP_STATE>
    404c:	8e0188a3          	sb	zero,-1807(gp) # 200001a1 <WIFI_SEND_STATE>
    4050:	7139                	addi	sp,sp,-64
    4052:	8e0186a3          	sb	zero,-1811(gp) # 2000019d <WIFI_BOOTFLAG>
    4056:	4585                	li	a1,1
    4058:	892a                	mv	s2,a0
    405a:	04000513          	li	a0,64
    405e:	8e018723          	sb	zero,-1810(gp) # 2000019e <WIFI_CMD_FLAG>
    4062:	ca02                	sw	zero,20(sp)
    4064:	cc02                	sw	zero,24(sp)
    4066:	ce02                	sw	zero,28(sp)
    4068:	d802                	sw	zero,48(sp)
    406a:	da02                	sw	zero,52(sp)
    406c:	dc02                	sw	zero,56(sp)
    406e:	de02                	sw	zero,60(sp)
    4070:	c602                	sw	zero,12(sp)
    4072:	c802                	sw	zero,16(sp)
    4074:	e15fc0ef          	jal	ra,e88 <RCC_APB1PeriphClockCmd>
    4078:	4585                	li	a1,1
    407a:	4541                	li	a0,16
    407c:	deffc0ef          	jal	ra,e6a <RCC_APB2PeriphClockCmd>
    4080:	478d                	li	a5,3
    4082:	4485                	li	s1,1
    4084:	cc3e                	sw	a5,24(sp)
    4086:	084c                	addi	a1,sp,20
    4088:	47e1                	li	a5,24
    408a:	40011537          	lui	a0,0x40011
    408e:	ce3e                	sw	a5,28(sp)
    4090:	82e4                	sh	s1,20(sp)
    4092:	b2bfc0ef          	jal	ra,bbc <GPIO_Init>
    4096:	4789                	li	a5,2
    4098:	82fc                	sh	a5,20(sp)
    409a:	084c                	addi	a1,sp,20
    409c:	4791                	li	a5,4
    409e:	40011537          	lui	a0,0x40011
    40a2:	ce3e                	sw	a5,28(sp)
    40a4:	b19fc0ef          	jal	ra,bbc <GPIO_Init>
    40a8:	67f1                	lui	a5,0x1c
    40aa:	40002437          	lui	s0,0x40002
    40ae:	20078793          	addi	a5,a5,512 # 1c200 <_data_lma+0x145b4>
    40b2:	80040513          	addi	a0,s0,-2048 # 40001800 <_eusrstack+0x1fff1800>
    40b6:	d83e                	sw	a5,48(sp)
    40b8:	180c                	addi	a1,sp,48
    40ba:	000c07b7          	lui	a5,0xc0
    40be:	dc3e                	sw	a5,56(sp)
    40c0:	da02                	sw	zero,52(sp)
    40c2:	02011e23          	sh	zero,60(sp)
    40c6:	de1fc0ef          	jal	ra,ea6 <USART_Init>
    40ca:	4605                	li	a2,1
    40cc:	52500593          	li	a1,1317
    40d0:	80040513          	addi	a0,s0,-2048
    40d4:	e77fc0ef          	jal	ra,f4a <USART_ITConfig>
    40d8:	15700793          	li	a5,343
    40dc:	867c                	sh	a5,12(sp)
    40de:	0068                	addi	a0,sp,12
    40e0:	4785                	li	a5,1
    40e2:	c83e                	sw	a5,16(sp)
    40e4:	8744                	sb	s1,14(sp)
    40e6:	baffc0ef          	jal	ra,c94 <NVIC_Init>
    40ea:	4605                	li	a2,1
    40ec:	80040513          	addi	a0,s0,-2048
    40f0:	52500593          	li	a1,1317
    40f4:	e57fc0ef          	jal	ra,f4a <USART_ITConfig>
    40f8:	4585                	li	a1,1
    40fa:	80040513          	addi	a0,s0,-2048
    40fe:	e37fc0ef          	jal	ra,f34 <USART_Cmd>
    4102:	1f400513          	li	a0,500
    4106:	e4bff0ef          	jal	ra,3f50 <ESP8266_Delay>
    410a:	000085b7          	lui	a1,0x8
    410e:	8b058593          	addi	a1,a1,-1872 # 78b0 <Font24CN_Table+0x54c>
    4112:	80040513          	addi	a0,s0,-2048
    4116:	9e7fc0ef          	jal	ra,afc <USER_UART_SendString>
    411a:	1f400513          	li	a0,500
    411e:	e33ff0ef          	jal	ra,3f50 <ESP8266_Delay>
    4122:	00008537          	lui	a0,0x8
    4126:	8b450513          	addi	a0,a0,-1868 # 78b4 <Font24CN_Table+0x550>
    412a:	e53ff0ef          	jal	ra,3f7c <WIFI_SendCMD>
    412e:	842a                	mv	s0,a0
    4130:	85aa                	mv	a1,a0
    4132:	00008537          	lui	a0,0x8
    4136:	8bc50513          	addi	a0,a0,-1860 # 78bc <Font24CN_Table+0x558>
    413a:	796010ef          	jal	ra,58d0 <iprintf>
    413e:	e419                	bnez	s0,414c <WIFI_Init+0x110>
    4140:	00008537          	lui	a0,0x8
    4144:	8cc50513          	addi	a0,a0,-1844 # 78cc <Font24CN_Table+0x568>
    4148:	0a3010ef          	jal	ra,59ea <puts>
    414c:	4785                	li	a5,1
    414e:	04f91463          	bne	s2,a5,4196 <WIFI_Init+0x15a>
    4152:	00008537          	lui	a0,0x8
    4156:	8e050513          	addi	a0,a0,-1824 # 78e0 <Font24CN_Table+0x57c>
    415a:	776010ef          	jal	ra,58d0 <iprintf>
    415e:	00008637          	lui	a2,0x8
    4162:	000085b7          	lui	a1,0x8
    4166:	4685                	li	a3,1
    4168:	90460613          	addi	a2,a2,-1788 # 7904 <Font24CN_Table+0x5a0>
    416c:	91058593          	addi	a1,a1,-1776 # 7910 <Font24CN_Table+0x5ac>
    4170:	1008                	addi	a0,sp,32
    4172:	0b7010ef          	jal	ra,5a28 <siprintf>
    4176:	1008                	addi	a0,sp,32
    4178:	e05ff0ef          	jal	ra,3f7c <WIFI_SendCMD>
    417c:	e519                	bnez	a0,418a <WIFI_Init+0x14e>
    417e:	00008537          	lui	a0,0x8
    4182:	91850513          	addi	a0,a0,-1768 # 7918 <Font24CN_Table+0x5b4>
    4186:	065010ef          	jal	ra,59ea <puts>
    418a:	00008537          	lui	a0,0x8
    418e:	93c50513          	addi	a0,a0,-1732 # 793c <Font24CN_Table+0x5d8>
    4192:	debff0ef          	jal	ra,3f7c <WIFI_SendCMD>
    4196:	6121                	addi	sp,sp,64
    4198:	90afc06f          	j	2a2 <__riscv_restore_0>

0000419c <WIFI_SetTxMode>:
    419c:	8e2fc2ef          	jal	t0,27e <__riscv_save_0>
    41a0:	4485                	li	s1,1
    41a2:	1141                	addi	sp,sp,-16
    41a4:	04a4ea63          	bltu	s1,a0,41f8 <WIFI_SetTxMode+0x5c>
    41a8:	00008637          	lui	a2,0x8
    41ac:	000085b7          	lui	a1,0x8
    41b0:	86aa                	mv	a3,a0
    41b2:	842a                	mv	s0,a0
    41b4:	a0c60613          	addi	a2,a2,-1524 # 7a0c <Font24CN_Table+0x6a8>
    41b8:	91058593          	addi	a1,a1,-1776 # 7910 <Font24CN_Table+0x5ac>
    41bc:	850a                	mv	a0,sp
    41be:	06b010ef          	jal	ra,5a28 <siprintf>
    41c2:	850a                	mv	a0,sp
    41c4:	02941563          	bne	s0,s1,41ee <WIFI_SetTxMode+0x52>
    41c8:	db5ff0ef          	jal	ra,3f7c <WIFI_SendCMD>
    41cc:	00008637          	lui	a2,0x8
    41d0:	000085b7          	lui	a1,0x8
    41d4:	a1860613          	addi	a2,a2,-1512 # 7a18 <Font24CN_Table+0x6b4>
    41d8:	a4458593          	addi	a1,a1,-1468 # 7a44 <Font24CN_Table+0x6e0>
    41dc:	850a                	mv	a0,sp
    41de:	c002                	sw	zero,0(sp)
    41e0:	c202                	sw	zero,4(sp)
    41e2:	c402                	sw	zero,8(sp)
    41e4:	00011623          	sh	zero,12(sp)
    41e8:	041010ef          	jal	ra,5a28 <siprintf>
    41ec:	850a                	mv	a0,sp
    41ee:	d8fff0ef          	jal	ra,3f7c <WIFI_SendCMD>
    41f2:	0141                	addi	sp,sp,16
    41f4:	8aefc06f          	j	2a2 <__riscv_restore_0>
    41f8:	4505                	li	a0,1
    41fa:	bfe5                	j	41f2 <WIFI_SetTxMode+0x56>

000041fc <WIFI_LinkSSID>:
    41fc:	882fc2ef          	jal	t0,27e <__riscv_save_0>
    4200:	7179                	addi	sp,sp,-48
    4202:	87ae                	mv	a5,a1
    4204:	00008737          	lui	a4,0x8
    4208:	00008637          	lui	a2,0x8
    420c:	000085b7          	lui	a1,0x8
    4210:	86aa                	mv	a3,a0
    4212:	95070713          	addi	a4,a4,-1712 # 7950 <Font24CN_Table+0x5ec>
    4216:	95460613          	addi	a2,a2,-1708 # 7954 <Font24CN_Table+0x5f0>
    421a:	96058593          	addi	a1,a1,-1696 # 7960 <Font24CN_Table+0x5fc>
    421e:	0028                	addi	a0,sp,8
    4220:	009010ef          	jal	ra,5a28 <siprintf>
    4224:	0028                	addi	a0,sp,8
    4226:	d57ff0ef          	jal	ra,3f7c <WIFI_SendCMD>
    422a:	e501                	bnez	a0,4232 <WIFI_LinkSSID+0x36>
    422c:	4705                	li	a4,1
    422e:	8ee18623          	sb	a4,-1812(gp) # 2000019c <WIFI_AP_STATE>
    4232:	6145                	addi	sp,sp,48
    4234:	86efc06f          	j	2a2 <__riscv_restore_0>

00004238 <WIFI_CheckIP>:
    4238:	1141                	addi	sp,sp,-16
    423a:	c402                	sw	zero,8(sp)
    423c:	c602                	sw	zero,12(sp)
    423e:	4601                	li	a2,0
    4240:	4781                	li	a5,0
    4242:	4581                	li	a1,0
    4244:	48c1                	li	a7,16
    4246:	02e00313          	li	t1,46
    424a:	4e25                	li	t3,9
    424c:	4ea9                	li	t4,10
    424e:	4f09                	li	t5,2
    4250:	00c50733          	add	a4,a0,a2
    4254:	2318                	lbu	a4,0(a4)
    4256:	01061693          	slli	a3,a2,0x10
    425a:	82c1                	srli	a3,a3,0x10
    425c:	cb29                	beqz	a4,42ae <WIFI_CheckIP+0x76>
    425e:	01161463          	bne	a2,a7,4266 <WIFI_CheckIP+0x2e>
    4262:	4701                	li	a4,0
    4264:	a09d                	j	42ca <WIFI_CheckIP+0x92>
    4266:	00671d63          	bne	a4,t1,4280 <WIFI_CheckIP+0x48>
    426a:	17fd                	addi	a5,a5,-1
    426c:	0ff7f793          	andi	a5,a5,255
    4270:	feff69e3          	bltu	t5,a5,4262 <WIFI_CheckIP+0x2a>
    4274:	0585                	addi	a1,a1,1
    4276:	0ff5f593          	andi	a1,a1,255
    427a:	4781                	li	a5,0
    427c:	0605                	addi	a2,a2,1
    427e:	bfc9                	j	4250 <WIFI_CheckIP+0x18>
    4280:	fd070693          	addi	a3,a4,-48
    4284:	0ff6f693          	andi	a3,a3,255
    4288:	fcde6de3          	bltu	t3,a3,4262 <WIFI_CheckIP+0x2a>
    428c:	0814                	addi	a3,sp,16
    428e:	00159813          	slli	a6,a1,0x1
    4292:	9836                	add	a6,a6,a3
    4294:	ff885683          	lhu	a3,-8(a6)
    4298:	0785                	addi	a5,a5,1
    429a:	0ff7f793          	andi	a5,a5,255
    429e:	03d686b3          	mul	a3,a3,t4
    42a2:	9736                	add	a4,a4,a3
    42a4:	fd070713          	addi	a4,a4,-48
    42a8:	fee81c23          	sh	a4,-8(a6)
    42ac:	bfc1                	j	427c <WIFI_CheckIP+0x44>
    42ae:	47c1                	li	a5,16
    42b0:	00f68d63          	beq	a3,a5,42ca <WIFI_CheckIP+0x92>
    42b4:	003c                	addi	a5,sp,8
    42b6:	0814                	addi	a3,sp,16
    42b8:	0ff00613          	li	a2,255
    42bc:	238e                	lhu	a1,0(a5)
    42be:	00b66663          	bltu	a2,a1,42ca <WIFI_CheckIP+0x92>
    42c2:	0789                	addi	a5,a5,2
    42c4:	fed79ce3          	bne	a5,a3,42bc <WIFI_CheckIP+0x84>
    42c8:	4705                	li	a4,1
    42ca:	853a                	mv	a0,a4
    42cc:	0141                	addi	sp,sp,16
    42ce:	8082                	ret

000042d0 <WIFI_CheckPort>:
    42d0:	00550613          	addi	a2,a0,5
    42d4:	4781                	li	a5,0
    42d6:	45a5                	li	a1,9
    42d8:	4829                	li	a6,10
    42da:	2118                	lbu	a4,0(a0)
    42dc:	e709                	bnez	a4,42e6 <WIFI_CheckPort+0x16>
    42de:	6541                	lui	a0,0x10
    42e0:	00a7b533          	sltu	a0,a5,a0
    42e4:	8082                	ret
    42e6:	fec50ce3          	beq	a0,a2,42de <WIFI_CheckPort+0xe>
    42ea:	fd070693          	addi	a3,a4,-48
    42ee:	0ff6f693          	andi	a3,a3,255
    42f2:	00d5e963          	bltu	a1,a3,4304 <WIFI_CheckPort+0x34>
    42f6:	030787b3          	mul	a5,a5,a6
    42fa:	0505                	addi	a0,a0,1
    42fc:	fd078793          	addi	a5,a5,-48 # bffd0 <_data_lma+0xb8384>
    4300:	97ba                	add	a5,a5,a4
    4302:	bfe1                	j	42da <WIFI_CheckPort+0xa>
    4304:	4501                	li	a0,0
    4306:	8082                	ret

00004308 <WIFI_TCPConnect>:
    4308:	f5dfb2ef          	jal	t0,264 <__riscv_save_4>
    430c:	8f11c783          	lbu	a5,-1807(gp) # 200001a1 <WIFI_SEND_STATE>
    4310:	4985                	li	s3,1
    4312:	7159                	addi	sp,sp,-112
    4314:	4409                	li	s0,2
    4316:	05378a63          	beq	a5,s3,436a <WIFI_TCPConnect+0x62>
    431a:	892a                	mv	s2,a0
    431c:	84ae                	mv	s1,a1
    431e:	f1bff0ef          	jal	ra,4238 <WIFI_CheckIP>
    4322:	4405                	li	s0,1
    4324:	c139                	beqz	a0,436a <WIFI_TCPConnect+0x62>
    4326:	8526                	mv	a0,s1
    4328:	fa9ff0ef          	jal	ra,42d0 <WIFI_CheckPort>
    432c:	cd1d                	beqz	a0,436a <WIFI_TCPConnect+0x62>
    432e:	000086b7          	lui	a3,0x8
    4332:	00008637          	lui	a2,0x8
    4336:	000085b7          	lui	a1,0x8
    433a:	87a6                	mv	a5,s1
    433c:	874a                	mv	a4,s2
    433e:	a2468693          	addi	a3,a3,-1500 # 7a24 <Font24CN_Table+0x6c0>
    4342:	a2860613          	addi	a2,a2,-1496 # 7a28 <Font24CN_Table+0x6c4>
    4346:	a3858593          	addi	a1,a1,-1480 # 7a38 <Font24CN_Table+0x6d4>
    434a:	0068                	addi	a0,sp,12
    434c:	6dc010ef          	jal	ra,5a28 <siprintf>
    4350:	0068                	addi	a0,sp,12
    4352:	c2bff0ef          	jal	ra,3f7c <WIFI_SendCMD>
    4356:	842a                	mv	s0,a0
    4358:	e909                	bnez	a0,436a <WIFI_TCPConnect+0x62>
    435a:	00008537          	lui	a0,0x8
    435e:	a4c50513          	addi	a0,a0,-1460 # 7a4c <Font24CN_Table+0x6e8>
    4362:	56e010ef          	jal	ra,58d0 <iprintf>
    4366:	8f3187a3          	sb	s3,-1809(gp) # 2000019f <WIFI_CONNECT_STATE>
    436a:	8522                	mv	a0,s0
    436c:	6165                	addi	sp,sp,112
    436e:	f2bfb06f          	j	298 <__riscv_restore_4>

00004372 <WIFI_CMD_ReturnCheck>:
    4372:	f0dfb2ef          	jal	t0,27e <__riscv_save_0>
    4376:	000085b7          	lui	a1,0x8
    437a:	89c58593          	addi	a1,a1,-1892 # 789c <Font24CN_Table+0x538>
    437e:	90018513          	addi	a0,gp,-1792 # 200001b0 <WIFI_CMD>
    4382:	796010ef          	jal	ra,5b18 <strstr>
    4386:	8ee18413          	addi	s0,gp,-1810 # 2000019e <WIFI_CMD_FLAG>
    438a:	4785                	li	a5,1
    438c:	e505                	bnez	a0,43b4 <WIFI_CMD_ReturnCheck+0x42>
    438e:	000085b7          	lui	a1,0x8
    4392:	8a058593          	addi	a1,a1,-1888 # 78a0 <Font24CN_Table+0x53c>
    4396:	90018513          	addi	a0,gp,-1792 # 200001b0 <WIFI_CMD>
    439a:	77e010ef          	jal	ra,5b18 <strstr>
    439e:	e911                	bnez	a0,43b2 <WIFI_CMD_ReturnCheck+0x40>
    43a0:	000085b7          	lui	a1,0x8
    43a4:	8a858593          	addi	a1,a1,-1880 # 78a8 <Font24CN_Table+0x544>
    43a8:	90018513          	addi	a0,gp,-1792 # 200001b0 <WIFI_CMD>
    43ac:	76c010ef          	jal	ra,5b18 <strstr>
    43b0:	c119                	beqz	a0,43b6 <WIFI_CMD_ReturnCheck+0x44>
    43b2:	4789                	li	a5,2
    43b4:	a01c                	sb	a5,0(s0)
    43b6:	2008                	lbu	a0,0(s0)
    43b8:	eebfb06f          	j	2a2 <__riscv_restore_0>

000043bc <Paint_NewImage>:
    43bc:	200087b7          	lui	a5,0x20008
    43c0:	78878813          	addi	a6,a5,1928 # 20008788 <Paint>
    43c4:	00e81623          	sh	a4,12(a6)
    43c8:	4709                	li	a4,2
    43ca:	00a82023          	sw	a0,0(a6)
    43ce:	00e81b23          	sh	a4,22(a6)
    43d2:	00b81423          	sh	a1,8(a6)
    43d6:	00c81523          	sh	a2,10(a6)
    43da:	0075f513          	andi	a0,a1,7
    43de:	0035d713          	srli	a4,a1,0x3
    43e2:	78878793          	addi	a5,a5,1928
    43e6:	c111                	beqz	a0,43ea <Paint_NewImage+0x2e>
    43e8:	0705                	addi	a4,a4,1
    43ea:	abba                	sh	a4,18(a5)
    43ec:	abd2                	sh	a2,20(a5)
    43ee:	a7f6                	sh	a3,14(a5)
    43f0:	00079823          	sh	zero,16(a5)
    43f4:	c689                	beqz	a3,43fe <Paint_NewImage+0x42>
    43f6:	0b400713          	li	a4,180
    43fa:	00e69563          	bne	a3,a4,4404 <Paint_NewImage+0x48>
    43fe:	a3ce                	sh	a1,4(a5)
    4400:	a3f2                	sh	a2,6(a5)
    4402:	8082                	ret
    4404:	a3d2                	sh	a2,4(a5)
    4406:	a3ee                	sh	a1,6(a5)
    4408:	8082                	ret

0000440a <Paint_SelectImage>:
    440a:	200087b7          	lui	a5,0x20008
    440e:	78a7a423          	sw	a0,1928(a5) # 20008788 <Paint>
    4412:	8082                	ret

00004414 <Paint_SetScale>:
    4414:	4789                	li	a5,2
    4416:	02f51163          	bne	a0,a5,4438 <Paint_SetScale+0x24>
    441a:	200087b7          	lui	a5,0x20008
    441e:	78878713          	addi	a4,a5,1928 # 20008788 <Paint>
    4422:	ab6a                	sh	a0,22(a4)
    4424:	271a                	lhu	a4,8(a4)
    4426:	00375693          	srli	a3,a4,0x3
    442a:	8b1d                	andi	a4,a4,7
    442c:	78878793          	addi	a5,a5,1928
    4430:	c311                	beqz	a4,4434 <Paint_SetScale+0x20>
    4432:	0685                	addi	a3,a3,1
    4434:	abb6                	sh	a3,18(a5)
    4436:	8082                	ret
    4438:	4791                	li	a5,4
    443a:	00f51c63          	bne	a0,a5,4452 <Paint_SetScale+0x3e>
    443e:	200087b7          	lui	a5,0x20008
    4442:	78878713          	addi	a4,a5,1928 # 20008788 <Paint>
    4446:	ab6a                	sh	a0,22(a4)
    4448:	271a                	lhu	a4,8(a4)
    444a:	00275693          	srli	a3,a4,0x2
    444e:	8b0d                	andi	a4,a4,3
    4450:	bff1                	j	442c <Paint_SetScale+0x18>
    4452:	ffa50793          	addi	a5,a0,-6
    4456:	0ff7f793          	andi	a5,a5,255
    445a:	4705                	li	a4,1
    445c:	fcf76de3          	bltu	a4,a5,4436 <Paint_SetScale+0x22>
    4460:	200087b7          	lui	a5,0x20008
    4464:	78878713          	addi	a4,a5,1928 # 20008788 <Paint>
    4468:	ab6a                	sh	a0,22(a4)
    446a:	271a                	lhu	a4,8(a4)
    446c:	00175693          	srli	a3,a4,0x1
    4470:	8b05                	andi	a4,a4,1
    4472:	bf6d                	j	442c <Paint_SetScale+0x18>

00004474 <Paint_SetPixel>:
    4474:	200087b7          	lui	a5,0x20008
    4478:	78878713          	addi	a4,a5,1928 # 20008788 <Paint>
    447c:	235a                	lhu	a4,4(a4)
    447e:	78878793          	addi	a5,a5,1928
    4482:	12a76463          	bltu	a4,a0,45aa <Paint_SetPixel+0x136>
    4486:	23fa                	lhu	a4,6(a5)
    4488:	12b76163          	bltu	a4,a1,45aa <Paint_SetPixel+0x136>
    448c:	27fa                	lhu	a4,14(a5)
    448e:	05a00693          	li	a3,90
    4492:	00d70f63          	beq	a4,a3,44b0 <Paint_SetPixel+0x3c>
    4496:	00e6e463          	bltu	a3,a4,449e <Paint_SetPixel+0x2a>
    449a:	c315                	beqz	a4,44be <Paint_SetPixel+0x4a>
    449c:	8082                	ret
    449e:	0b400693          	li	a3,180
    44a2:	02d70a63          	beq	a4,a3,44d6 <Paint_SetPixel+0x62>
    44a6:	10e00693          	li	a3,270
    44aa:	04d70363          	beq	a4,a3,44f0 <Paint_SetPixel+0x7c>
    44ae:	8082                	ret
    44b0:	279a                	lhu	a4,8(a5)
    44b2:	177d                	addi	a4,a4,-1
    44b4:	8f0d                	sub	a4,a4,a1
    44b6:	85aa                	mv	a1,a0
    44b8:	01071513          	slli	a0,a4,0x10
    44bc:	8141                	srli	a0,a0,0x10
    44be:	2b9a                	lhu	a4,16(a5)
    44c0:	4685                	li	a3,1
    44c2:	02d70e63          	beq	a4,a3,44fe <Paint_SetPixel+0x8a>
    44c6:	c331                	beqz	a4,450a <Paint_SetPixel+0x96>
    44c8:	4689                	li	a3,2
    44ca:	08d70a63          	beq	a4,a3,455e <Paint_SetPixel+0xea>
    44ce:	468d                	li	a3,3
    44d0:	08d70163          	beq	a4,a3,4552 <Paint_SetPixel+0xde>
    44d4:	8082                	ret
    44d6:	279a                	lhu	a4,8(a5)
    44d8:	177d                	addi	a4,a4,-1
    44da:	40a70533          	sub	a0,a4,a0
    44de:	27ba                	lhu	a4,10(a5)
    44e0:	0542                	slli	a0,a0,0x10
    44e2:	8141                	srli	a0,a0,0x10
    44e4:	177d                	addi	a4,a4,-1
    44e6:	40b705b3          	sub	a1,a4,a1
    44ea:	05c2                	slli	a1,a1,0x10
    44ec:	81c1                	srli	a1,a1,0x10
    44ee:	bfc1                	j	44be <Paint_SetPixel+0x4a>
    44f0:	27ba                	lhu	a4,10(a5)
    44f2:	177d                	addi	a4,a4,-1
    44f4:	8f09                	sub	a4,a4,a0
    44f6:	852e                	mv	a0,a1
    44f8:	01071593          	slli	a1,a4,0x10
    44fc:	bfc5                	j	44ec <Paint_SetPixel+0x78>
    44fe:	279a                	lhu	a4,8(a5)
    4500:	177d                	addi	a4,a4,-1
    4502:	40a70533          	sub	a0,a4,a0
    4506:	0542                	slli	a0,a0,0x10
    4508:	8141                	srli	a0,a0,0x10
    450a:	279a                	lhu	a4,8(a5)
    450c:	08a76f63          	bltu	a4,a0,45aa <Paint_SetPixel+0x136>
    4510:	27ba                	lhu	a4,10(a5)
    4512:	08b76c63          	bltu	a4,a1,45aa <Paint_SetPixel+0x136>
    4516:	2bfa                	lhu	a4,22(a5)
    4518:	4689                	li	a3,2
    451a:	04d71b63          	bne	a4,a3,4570 <Paint_SetPixel+0xfc>
    451e:	2bba                	lhu	a4,18(a5)
    4520:	02b705b3          	mul	a1,a4,a1
    4524:	00355713          	srli	a4,a0,0x3
    4528:	0742                	slli	a4,a4,0x10
    452a:	8341                	srli	a4,a4,0x10
    452c:	972e                	add	a4,a4,a1
    452e:	438c                	lw	a1,0(a5)
    4530:	00757793          	andi	a5,a0,7
    4534:	08000513          	li	a0,128
    4538:	40f55533          	sra	a0,a0,a5
    453c:	95ba                	add	a1,a1,a4
    453e:	0562                	slli	a0,a0,0x18
    4540:	8561                	srai	a0,a0,0x18
    4542:	00058783          	lb	a5,0(a1)
    4546:	e21d                	bnez	a2,456c <Paint_SetPixel+0xf8>
    4548:	fff54513          	not	a0,a0
    454c:	8d7d                	and	a0,a0,a5
    454e:	a188                	sb	a0,0(a1)
    4550:	8082                	ret
    4552:	279a                	lhu	a4,8(a5)
    4554:	177d                	addi	a4,a4,-1
    4556:	40a70533          	sub	a0,a4,a0
    455a:	0542                	slli	a0,a0,0x10
    455c:	8141                	srli	a0,a0,0x10
    455e:	27ba                	lhu	a4,10(a5)
    4560:	177d                	addi	a4,a4,-1
    4562:	40b705b3          	sub	a1,a4,a1
    4566:	05c2                	slli	a1,a1,0x10
    4568:	81c1                	srli	a1,a1,0x10
    456a:	b745                	j	450a <Paint_SetPixel+0x96>
    456c:	8d5d                	or	a0,a0,a5
    456e:	b7c5                	j	454e <Paint_SetPixel+0xda>
    4570:	4691                	li	a3,4
    4572:	02d71d63          	bne	a4,a3,45ac <Paint_SetPixel+0x138>
    4576:	2bba                	lhu	a4,18(a5)
    4578:	8a0d                	andi	a2,a2,3
    457a:	061a                	slli	a2,a2,0x6
    457c:	02b705b3          	mul	a1,a4,a1
    4580:	00255713          	srli	a4,a0,0x2
    4584:	0742                	slli	a4,a4,0x10
    4586:	8341                	srli	a4,a4,0x10
    4588:	890d                	andi	a0,a0,3
    458a:	0506                	slli	a0,a0,0x1
    458c:	40a65633          	sra	a2,a2,a0
    4590:	95ba                	add	a1,a1,a4
    4592:	4398                	lw	a4,0(a5)
    4594:	0c000793          	li	a5,192
    4598:	40a7d7b3          	sra	a5,a5,a0
    459c:	95ba                	add	a1,a1,a4
    459e:	2198                	lbu	a4,0(a1)
    45a0:	fff7c793          	not	a5,a5
    45a4:	8ff9                	and	a5,a5,a4
    45a6:	8fd1                	or	a5,a5,a2
    45a8:	a19c                	sb	a5,0(a1)
    45aa:	8082                	ret
    45ac:	1769                	addi	a4,a4,-6
    45ae:	0742                	slli	a4,a4,0x10
    45b0:	8341                	srli	a4,a4,0x10
    45b2:	4685                	li	a3,1
    45b4:	fee6ebe3          	bltu	a3,a4,45aa <Paint_SetPixel+0x136>
    45b8:	2bba                	lhu	a4,18(a5)
    45ba:	0612                	slli	a2,a2,0x4
    45bc:	02b705b3          	mul	a1,a4,a1
    45c0:	00155713          	srli	a4,a0,0x1
    45c4:	0742                	slli	a4,a4,0x10
    45c6:	8341                	srli	a4,a4,0x10
    45c8:	8905                	andi	a0,a0,1
    45ca:	050a                	slli	a0,a0,0x2
    45cc:	95ba                	add	a1,a1,a4
    45ce:	4398                	lw	a4,0(a5)
    45d0:	0f000793          	li	a5,240
    45d4:	40a7d7b3          	sra	a5,a5,a0
    45d8:	95ba                	add	a1,a1,a4
    45da:	2198                	lbu	a4,0(a1)
    45dc:	fff7c793          	not	a5,a5
    45e0:	40a65533          	sra	a0,a2,a0
    45e4:	8ff9                	and	a5,a5,a4
    45e6:	8fc9                	or	a5,a5,a0
    45e8:	b7c1                	j	45a8 <Paint_SetPixel+0x134>

000045ea <Paint_Clear>:
    45ea:	200087b7          	lui	a5,0x20008
    45ee:	78878713          	addi	a4,a5,1928 # 20008788 <Paint>
    45f2:	2b7a                	lhu	a4,22(a4)
    45f4:	4689                	li	a3,2
    45f6:	78878793          	addi	a5,a5,1928
    45fa:	02d71963          	bne	a4,a3,462c <Paint_Clear+0x42>
    45fe:	4701                	li	a4,0
    4600:	a005                	j	4620 <Paint_Clear+0x36>
    4602:	02c705b3          	mul	a1,a4,a2
    4606:	4390                	lw	a2,0(a5)
    4608:	9636                	add	a2,a2,a3
    460a:	0685                	addi	a3,a3,1
    460c:	06c2                	slli	a3,a3,0x10
    460e:	82c1                	srli	a3,a3,0x10
    4610:	962e                	add	a2,a2,a1
    4612:	a208                	sb	a0,0(a2)
    4614:	2bb2                	lhu	a2,18(a5)
    4616:	fec6e6e3          	bltu	a3,a2,4602 <Paint_Clear+0x18>
    461a:	0705                	addi	a4,a4,1
    461c:	0742                	slli	a4,a4,0x10
    461e:	8341                	srli	a4,a4,0x10
    4620:	2bd6                	lhu	a3,20(a5)
    4622:	00d76363          	bltu	a4,a3,4628 <Paint_Clear+0x3e>
    4626:	8082                	ret
    4628:	4681                	li	a3,0
    462a:	b7ed                	j	4614 <Paint_Clear+0x2a>
    462c:	4691                	li	a3,4
    462e:	04d71363          	bne	a4,a3,4674 <Paint_Clear+0x8a>
    4632:	00651713          	slli	a4,a0,0x6
    4636:	00451693          	slli	a3,a0,0x4
    463a:	8f55                	or	a4,a4,a3
    463c:	8f49                	or	a4,a4,a0
    463e:	050a                	slli	a0,a0,0x2
    4640:	8d59                	or	a0,a0,a4
    4642:	0ff57513          	andi	a0,a0,255
    4646:	4701                	li	a4,0
    4648:	2bd6                	lhu	a3,20(a5)
    464a:	02d76363          	bltu	a4,a3,4670 <Paint_Clear+0x86>
    464e:	8082                	ret
    4650:	02c705b3          	mul	a1,a4,a2
    4654:	4390                	lw	a2,0(a5)
    4656:	9636                	add	a2,a2,a3
    4658:	0685                	addi	a3,a3,1
    465a:	06c2                	slli	a3,a3,0x10
    465c:	82c1                	srli	a3,a3,0x10
    465e:	962e                	add	a2,a2,a1
    4660:	a208                	sb	a0,0(a2)
    4662:	2bb2                	lhu	a2,18(a5)
    4664:	fec6e6e3          	bltu	a3,a2,4650 <Paint_Clear+0x66>
    4668:	0705                	addi	a4,a4,1
    466a:	0742                	slli	a4,a4,0x10
    466c:	8341                	srli	a4,a4,0x10
    466e:	bfe9                	j	4648 <Paint_Clear+0x5e>
    4670:	4681                	li	a3,0
    4672:	bfc5                	j	4662 <Paint_Clear+0x78>
    4674:	1769                	addi	a4,a4,-6
    4676:	0742                	slli	a4,a4,0x10
    4678:	8341                	srli	a4,a4,0x10
    467a:	4685                	li	a3,1
    467c:	00e6eb63          	bltu	a3,a4,4692 <Paint_Clear+0xa8>
    4680:	00451713          	slli	a4,a0,0x4
    4684:	8d59                	or	a0,a0,a4
    4686:	0ff57513          	andi	a0,a0,255
    468a:	4701                	li	a4,0
    468c:	2bd6                	lhu	a3,20(a5)
    468e:	02d76363          	bltu	a4,a3,46b4 <Paint_Clear+0xca>
    4692:	8082                	ret
    4694:	02c705b3          	mul	a1,a4,a2
    4698:	4390                	lw	a2,0(a5)
    469a:	9636                	add	a2,a2,a3
    469c:	0685                	addi	a3,a3,1
    469e:	06c2                	slli	a3,a3,0x10
    46a0:	82c1                	srli	a3,a3,0x10
    46a2:	962e                	add	a2,a2,a1
    46a4:	a208                	sb	a0,0(a2)
    46a6:	2bb2                	lhu	a2,18(a5)
    46a8:	fec6e6e3          	bltu	a3,a2,4694 <Paint_Clear+0xaa>
    46ac:	0705                	addi	a4,a4,1
    46ae:	0742                	slli	a4,a4,0x10
    46b0:	8341                	srli	a4,a4,0x10
    46b2:	bfe9                	j	468c <Paint_Clear+0xa2>
    46b4:	4681                	li	a3,0
    46b6:	bfc5                	j	46a6 <Paint_Clear+0xbc>

000046b8 <Paint_DrawPoint>:
    46b8:	badfb2ef          	jal	t0,264 <__riscv_save_4>
    46bc:	200087b7          	lui	a5,0x20008
    46c0:	84ae                	mv	s1,a1
    46c2:	78878593          	addi	a1,a5,1928 # 20008788 <Paint>
    46c6:	8932                	mv	s2,a2
    46c8:	21d2                	lhu	a2,4(a1)
    46ca:	1141                	addi	sp,sp,-16
    46cc:	78878413          	addi	s0,a5,1928
    46d0:	00a66563          	bltu	a2,a0,46da <Paint_DrawPoint+0x22>
    46d4:	21fe                	lhu	a5,6(a1)
    46d6:	0297f463          	bgeu	a5,s1,46fe <Paint_DrawPoint+0x46>
    46da:	85aa                	mv	a1,a0
    46dc:	00008537          	lui	a0,0x8
    46e0:	a6450513          	addi	a0,a0,-1436 # 7a64 <Font24CN_Table+0x700>
    46e4:	1ec010ef          	jal	ra,58d0 <iprintf>
    46e8:	2072                	lhu	a2,6(s0)
    46ea:	00008537          	lui	a0,0x8
    46ee:	85a6                	mv	a1,s1
    46f0:	a8850513          	addi	a0,a0,-1400 # 7a88 <Font24CN_Table+0x724>
    46f4:	1dc010ef          	jal	ra,58d0 <iprintf>
    46f8:	0141                	addi	sp,sp,16
    46fa:	b9ffb06f          	j	298 <__riscv_restore_4>
    46fe:	4785                	li	a5,1
    4700:	02f70063          	beq	a4,a5,4720 <Paint_DrawPoint+0x68>
    4704:	157d                	addi	a0,a0,-1
    4706:	01051413          	slli	s0,a0,0x10
    470a:	8041                	srli	s0,s0,0x10
    470c:	4701                	li	a4,0
    470e:	14fd                	addi	s1,s1,-1
    4710:	fed774e3          	bgeu	a4,a3,46f8 <Paint_DrawPoint+0x40>
    4714:	01071a13          	slli	s4,a4,0x10
    4718:	4781                	li	a5,0
    471a:	010a5a13          	srli	s4,s4,0x10
    471e:	a041                	j	479e <Paint_DrawPoint+0xe6>
    4720:	00169a93          	slli	s5,a3,0x1
    4724:	06c2                	slli	a3,a3,0x10
    4726:	82c1                	srli	a3,a3,0x10
    4728:	8d15                	sub	a0,a0,a3
    472a:	01051413          	slli	s0,a0,0x10
    472e:	1afd                	addi	s5,s5,-1
    4730:	8041                	srli	s0,s0,0x10
    4732:	4701                	li	a4,0
    4734:	8c95                	sub	s1,s1,a3
    4736:	fd5771e3          	bgeu	a4,s5,46f8 <Paint_DrawPoint+0x40>
    473a:	01071a13          	slli	s4,a4,0x10
    473e:	4781                	li	a5,0
    4740:	010a5a13          	srli	s4,s4,0x10
    4744:	a00d                	j	4766 <Paint_DrawPoint+0xae>
    4746:	01079993          	slli	s3,a5,0x10
    474a:	0109d993          	srli	s3,s3,0x10
    474e:	009985b3          	add	a1,s3,s1
    4752:	05c2                	slli	a1,a1,0x10
    4754:	864a                	mv	a2,s2
    4756:	81c1                	srli	a1,a1,0x10
    4758:	8522                	mv	a0,s0
    475a:	d1bff0ef          	jal	ra,4474 <Paint_SetPixel>
    475e:	00198793          	addi	a5,s3,1
    4762:	07c2                	slli	a5,a5,0x10
    4764:	87c1                	srai	a5,a5,0x10
    4766:	ff57e0e3          	bltu	a5,s5,4746 <Paint_DrawPoint+0x8e>
    476a:	0405                	addi	s0,s0,1
    476c:	001a0713          	addi	a4,s4,1
    4770:	0442                	slli	s0,s0,0x10
    4772:	0742                	slli	a4,a4,0x10
    4774:	8041                	srli	s0,s0,0x10
    4776:	8741                	srai	a4,a4,0x10
    4778:	bf7d                	j	4736 <Paint_DrawPoint+0x7e>
    477a:	01079993          	slli	s3,a5,0x10
    477e:	0109d993          	srli	s3,s3,0x10
    4782:	009985b3          	add	a1,s3,s1
    4786:	05c2                	slli	a1,a1,0x10
    4788:	864a                	mv	a2,s2
    478a:	81c1                	srli	a1,a1,0x10
    478c:	8522                	mv	a0,s0
    478e:	c636                	sw	a3,12(sp)
    4790:	ce5ff0ef          	jal	ra,4474 <Paint_SetPixel>
    4794:	00198793          	addi	a5,s3,1
    4798:	46b2                	lw	a3,12(sp)
    479a:	07c2                	slli	a5,a5,0x10
    479c:	87c1                	srai	a5,a5,0x10
    479e:	fcd7eee3          	bltu	a5,a3,477a <Paint_DrawPoint+0xc2>
    47a2:	0405                	addi	s0,s0,1
    47a4:	001a0713          	addi	a4,s4,1
    47a8:	0442                	slli	s0,s0,0x10
    47aa:	0742                	slli	a4,a4,0x10
    47ac:	8041                	srli	s0,s0,0x10
    47ae:	8741                	srai	a4,a4,0x10
    47b0:	b785                	j	4710 <Paint_DrawPoint+0x58>

000047b2 <Paint_DrawLine>:
    47b2:	a9dfb2ef          	jal	t0,24e <__riscv_save_12>
    47b6:	8bbe                	mv	s7,a5
    47b8:	200087b7          	lui	a5,0x20008
    47bc:	1141                	addi	sp,sp,-16
    47be:	78878793          	addi	a5,a5,1928 # 20008788 <Paint>
    47c2:	c23a                	sw	a4,4(sp)
    47c4:	23da                	lhu	a4,4(a5)
    47c6:	0ca76263          	bltu	a4,a0,488a <Paint_DrawLine+0xd8>
    47ca:	23fe                	lhu	a5,6(a5)
    47cc:	842e                	mv	s0,a1
    47ce:	0ab7ee63          	bltu	a5,a1,488a <Paint_DrawLine+0xd8>
    47d2:	8c32                	mv	s8,a2
    47d4:	0ac76b63          	bltu	a4,a2,488a <Paint_DrawLine+0xd8>
    47d8:	8cb6                	mv	s9,a3
    47da:	0ad7e863          	bltu	a5,a3,488a <Paint_DrawLine+0xd8>
    47de:	40a60933          	sub	s2,a2,a0
    47e2:	41f95793          	srai	a5,s2,0x1f
    47e6:	0127c933          	xor	s2,a5,s2
    47ea:	40b689b3          	sub	s3,a3,a1
    47ee:	40f90933          	sub	s2,s2,a5
    47f2:	41f9d793          	srai	a5,s3,0x1f
    47f6:	0137c9b3          	xor	s3,a5,s3
    47fa:	40f989b3          	sub	s3,s3,a5
    47fe:	413007b3          	neg	a5,s3
    4802:	c03e                	sw	a5,0(sp)
    4804:	84aa                	mv	s1,a0
    4806:	4b05                	li	s6,1
    4808:	00c56363          	bltu	a0,a2,480e <Paint_DrawLine+0x5c>
    480c:	5b7d                	li	s6,-1
    480e:	4a85                	li	s5,1
    4810:	01946363          	bltu	s0,s9,4816 <Paint_DrawLine+0x64>
    4814:	5afd                	li	s5,-1
    4816:	41390a33          	sub	s4,s2,s3
    481a:	4781                	li	a5,0
    481c:	4d05                	li	s10,1
    481e:	4d8d                	li	s11,3
    4820:	0785                	addi	a5,a5,1
    4822:	07e2                	slli	a5,a5,0x18
    4824:	87e1                	srai	a5,a5,0x18
    4826:	05a81663          	bne	a6,s10,4872 <Paint_DrawLine+0xc0>
    482a:	03b7e733          	rem	a4,a5,s11
    482e:	e331                	bnez	a4,4872 <Paint_DrawLine+0xc0>
    4830:	4705                	li	a4,1
    4832:	86de                	mv	a3,s7
    4834:	4605                	li	a2,1
    4836:	85a2                	mv	a1,s0
    4838:	8526                	mv	a0,s1
    483a:	c442                	sw	a6,8(sp)
    483c:	e7dff0ef          	jal	ra,46b8 <Paint_DrawPoint>
    4840:	4822                	lw	a6,8(sp)
    4842:	4781                	li	a5,0
    4844:	4682                	lw	a3,0(sp)
    4846:	001a1713          	slli	a4,s4,0x1
    484a:	00d74963          	blt	a4,a3,485c <Paint_DrawLine+0xaa>
    484e:	029c0e63          	beq	s8,s1,488a <Paint_DrawLine+0xd8>
    4852:	94da                	add	s1,s1,s6
    4854:	04c2                	slli	s1,s1,0x10
    4856:	413a0a33          	sub	s4,s4,s3
    485a:	80c1                	srli	s1,s1,0x10
    485c:	001a1713          	slli	a4,s4,0x1
    4860:	fce940e3          	blt	s2,a4,4820 <Paint_DrawLine+0x6e>
    4864:	028c8363          	beq	s9,s0,488a <Paint_DrawLine+0xd8>
    4868:	9456                	add	s0,s0,s5
    486a:	0442                	slli	s0,s0,0x10
    486c:	9a4a                	add	s4,s4,s2
    486e:	8041                	srli	s0,s0,0x10
    4870:	bf45                	j	4820 <Paint_DrawLine+0x6e>
    4872:	4612                	lw	a2,4(sp)
    4874:	4705                	li	a4,1
    4876:	86de                	mv	a3,s7
    4878:	85a2                	mv	a1,s0
    487a:	8526                	mv	a0,s1
    487c:	c642                	sw	a6,12(sp)
    487e:	c43e                	sw	a5,8(sp)
    4880:	e39ff0ef          	jal	ra,46b8 <Paint_DrawPoint>
    4884:	4832                	lw	a6,12(sp)
    4886:	47a2                	lw	a5,8(sp)
    4888:	bf75                	j	4844 <Paint_DrawLine+0x92>
    488a:	0141                	addi	sp,sp,16
    488c:	9fffb06f          	j	28a <__riscv_restore_12>

00004890 <Paint_DrawRectangle>:
    4890:	9d5fb2ef          	jal	t0,264 <__riscv_save_4>
    4894:	89b6                	mv	s3,a3
    4896:	200086b7          	lui	a3,0x20008
    489a:	78868693          	addi	a3,a3,1928 # 20008788 <Paint>
    489e:	0046d883          	lhu	a7,4(a3)
    48a2:	06a8ed63          	bltu	a7,a0,491c <Paint_DrawRectangle+0x8c>
    48a6:	22f6                	lhu	a3,6(a3)
    48a8:	842e                	mv	s0,a1
    48aa:	06b6e963          	bltu	a3,a1,491c <Paint_DrawRectangle+0x8c>
    48ae:	84b2                	mv	s1,a2
    48b0:	06c8e663          	bltu	a7,a2,491c <Paint_DrawRectangle+0x8c>
    48b4:	0736e463          	bltu	a3,s3,491c <Paint_DrawRectangle+0x8c>
    48b8:	892a                	mv	s2,a0
    48ba:	8a3a                	mv	s4,a4
    48bc:	8abe                	mv	s5,a5
    48be:	04081d63          	bnez	a6,4918 <Paint_DrawRectangle+0x88>
    48c2:	86ae                	mv	a3,a1
    48c4:	eefff0ef          	jal	ra,47b2 <Paint_DrawLine>
    48c8:	87d6                	mv	a5,s5
    48ca:	8752                	mv	a4,s4
    48cc:	86ce                	mv	a3,s3
    48ce:	864a                	mv	a2,s2
    48d0:	85a2                	mv	a1,s0
    48d2:	854a                	mv	a0,s2
    48d4:	4801                	li	a6,0
    48d6:	eddff0ef          	jal	ra,47b2 <Paint_DrawLine>
    48da:	87d6                	mv	a5,s5
    48dc:	8752                	mv	a4,s4
    48de:	86a2                	mv	a3,s0
    48e0:	8626                	mv	a2,s1
    48e2:	85ce                	mv	a1,s3
    48e4:	8526                	mv	a0,s1
    48e6:	4801                	li	a6,0
    48e8:	ecbff0ef          	jal	ra,47b2 <Paint_DrawLine>
    48ec:	4801                	li	a6,0
    48ee:	87d6                	mv	a5,s5
    48f0:	8752                	mv	a4,s4
    48f2:	86ce                	mv	a3,s3
    48f4:	864a                	mv	a2,s2
    48f6:	85ce                	mv	a1,s3
    48f8:	8526                	mv	a0,s1
    48fa:	eb9ff0ef          	jal	ra,47b2 <Paint_DrawLine>
    48fe:	a839                	j	491c <Paint_DrawRectangle+0x8c>
    4900:	86a2                	mv	a3,s0
    4902:	85a2                	mv	a1,s0
    4904:	0405                	addi	s0,s0,1
    4906:	4801                	li	a6,0
    4908:	87d6                	mv	a5,s5
    490a:	8752                	mv	a4,s4
    490c:	8626                	mv	a2,s1
    490e:	854a                	mv	a0,s2
    4910:	0442                	slli	s0,s0,0x10
    4912:	ea1ff0ef          	jal	ra,47b2 <Paint_DrawLine>
    4916:	8041                	srli	s0,s0,0x10
    4918:	ff3464e3          	bltu	s0,s3,4900 <Paint_DrawRectangle+0x70>
    491c:	97dfb06f          	j	298 <__riscv_restore_4>

00004920 <Paint_DrawString_CN>:
    4920:	92ffb2ef          	jal	t0,24e <__riscv_save_12>
    4924:	1141                	addi	sp,sp,-16
    4926:	c62e                	sw	a1,12(sp)
    4928:	8932                	mv	s2,a2
    492a:	8b36                	mv	s6,a3
    492c:	89ba                	mv	s3,a4
    492e:	8a3e                	mv	s4,a5
    4930:	84aa                	mv	s1,a0
    4932:	08000c13          	li	s8,128
    4936:	4c85                	li	s9,1
    4938:	00094603          	lbu	a2,0(s2)
    493c:	e601                	bnez	a2,4944 <Paint_DrawString_CN+0x24>
    493e:	0141                	addi	sp,sp,16
    4940:	94bfb06f          	j	28a <__riscv_restore_12>
    4944:	01861713          	slli	a4,a2,0x18
    4948:	8761                	srai	a4,a4,0x18
    494a:	004b5583          	lhu	a1,4(s6)
    494e:	4781                	li	a5,0
    4950:	0a075763          	bgez	a4,49fe <Paint_DrawString_CN+0xde>
    4954:	4701                	li	a4,0
    4956:	02b75d63          	bge	a4,a1,4990 <Paint_DrawString_CN+0x70>
    495a:	0a700793          	li	a5,167
    495e:	02f70433          	mul	s0,a4,a5
    4962:	000b2783          	lw	a5,0(s6)
    4966:	943e                	add	s0,s0,a5
    4968:	201c                	lbu	a5,0(s0)
    496a:	12c79363          	bne	a5,a2,4a90 <Paint_DrawString_CN+0x170>
    496e:	00194503          	lbu	a0,1(s2)
    4972:	301c                	lbu	a5,1(s0)
    4974:	10f51e63          	bne	a0,a5,4a90 <Paint_DrawString_CN+0x170>
    4978:	00294503          	lbu	a0,2(s2)
    497c:	203c                	lbu	a5,2(s0)
    497e:	10f51963          	bne	a0,a5,4a90 <Paint_DrawString_CN+0x170>
    4982:	4db2                	lw	s11,12(sp)
    4984:	040d                	addi	s0,s0,3
    4986:	4a81                	li	s5,0
    4988:	00ab5783          	lhu	a5,10(s6)
    498c:	10fac063          	blt	s5,a5,4a8c <Paint_DrawString_CN+0x16c>
    4990:	090d                	addi	s2,s2,3
    4992:	008b5783          	lhu	a5,8(s6)
    4996:	a851                	j	4a2a <Paint_DrawString_CN+0x10a>
    4998:	00040603          	lb	a2,0(s0)
    499c:	007dfd13          	andi	s10,s11,7
    49a0:	41ac55b3          	sra	a1,s8,s10
    49a4:	8e6d                	and	a2,a2,a1
    49a6:	039a1f63          	bne	s4,s9,49e4 <Paint_DrawString_CN+0xc4>
    49aa:	ca09                	beqz	a2,49bc <Paint_DrawString_CN+0x9c>
    49ac:	01b48533          	add	a0,s1,s11
    49b0:	0542                	slli	a0,a0,0x10
    49b2:	864e                	mv	a2,s3
    49b4:	85de                	mv	a1,s7
    49b6:	8141                	srli	a0,a0,0x10
    49b8:	abdff0ef          	jal	ra,4474 <Paint_SetPixel>
    49bc:	479d                	li	a5,7
    49be:	00fd1363          	bne	s10,a5,49c4 <Paint_DrawString_CN+0xa4>
    49c2:	0405                	addi	s0,s0,1
    49c4:	0d85                	addi	s11,s11,1
    49c6:	008b5603          	lhu	a2,8(s6)
    49ca:	fccdc7e3          	blt	s11,a2,4998 <Paint_DrawString_CN+0x78>
    49ce:	8a1d                	andi	a2,a2,7
    49d0:	c211                	beqz	a2,49d4 <Paint_DrawString_CN+0xb4>
    49d2:	0405                	addi	s0,s0,1
    49d4:	001b8793          	addi	a5,s7,1
    49d8:	01079b93          	slli	s7,a5,0x10
    49dc:	0a85                	addi	s5,s5,1
    49de:	010bdb93          	srli	s7,s7,0x10
    49e2:	a82d                	j	4a1c <Paint_DrawString_CN+0xfc>
    49e4:	009d8533          	add	a0,s11,s1
    49e8:	0542                	slli	a0,a0,0x10
    49ea:	8141                	srli	a0,a0,0x10
    49ec:	c601                	beqz	a2,49f4 <Paint_DrawString_CN+0xd4>
    49ee:	864e                	mv	a2,s3
    49f0:	85de                	mv	a1,s7
    49f2:	b7d9                	j	49b8 <Paint_DrawString_CN+0x98>
    49f4:	8652                	mv	a2,s4
    49f6:	bfed                	j	49f0 <Paint_DrawString_CN+0xd0>
    49f8:	4d81                	li	s11,0
    49fa:	b7f1                	j	49c6 <Paint_DrawString_CN+0xa6>
    49fc:	0785                	addi	a5,a5,1
    49fe:	02b7d363          	bge	a5,a1,4a24 <Paint_DrawString_CN+0x104>
    4a02:	0a700713          	li	a4,167
    4a06:	02e78433          	mul	s0,a5,a4
    4a0a:	000b2703          	lw	a4,0(s6)
    4a0e:	943a                	add	s0,s0,a4
    4a10:	2018                	lbu	a4,0(s0)
    4a12:	fec715e3          	bne	a4,a2,49fc <Paint_DrawString_CN+0xdc>
    4a16:	4bb2                	lw	s7,12(sp)
    4a18:	040d                	addi	s0,s0,3
    4a1a:	4a81                	li	s5,0
    4a1c:	00ab5703          	lhu	a4,10(s6)
    4a20:	fceacce3          	blt	s5,a4,49f8 <Paint_DrawString_CN+0xd8>
    4a24:	006b5783          	lhu	a5,6(s6)
    4a28:	0905                	addi	s2,s2,1
    4a2a:	94be                	add	s1,s1,a5
    4a2c:	b731                	j	4938 <Paint_DrawString_CN+0x18>
    4a2e:	00040703          	lb	a4,0(s0)
    4a32:	007bfd13          	andi	s10,s7,7
    4a36:	41ac5633          	sra	a2,s8,s10
    4a3a:	8f71                	and	a4,a4,a2
    4a3c:	039a1f63          	bne	s4,s9,4a7a <Paint_DrawString_CN+0x15a>
    4a40:	cb09                	beqz	a4,4a52 <Paint_DrawString_CN+0x132>
    4a42:	01748533          	add	a0,s1,s7
    4a46:	0542                	slli	a0,a0,0x10
    4a48:	864e                	mv	a2,s3
    4a4a:	85ee                	mv	a1,s11
    4a4c:	8141                	srli	a0,a0,0x10
    4a4e:	a27ff0ef          	jal	ra,4474 <Paint_SetPixel>
    4a52:	479d                	li	a5,7
    4a54:	00fd1363          	bne	s10,a5,4a5a <Paint_DrawString_CN+0x13a>
    4a58:	0405                	addi	s0,s0,1
    4a5a:	0b85                	addi	s7,s7,1
    4a5c:	008b5703          	lhu	a4,8(s6)
    4a60:	fcebc7e3          	blt	s7,a4,4a2e <Paint_DrawString_CN+0x10e>
    4a64:	8b1d                	andi	a4,a4,7
    4a66:	c311                	beqz	a4,4a6a <Paint_DrawString_CN+0x14a>
    4a68:	0405                	addi	s0,s0,1
    4a6a:	001d8813          	addi	a6,s11,1
    4a6e:	01081d93          	slli	s11,a6,0x10
    4a72:	0a85                	addi	s5,s5,1
    4a74:	010ddd93          	srli	s11,s11,0x10
    4a78:	bf01                	j	4988 <Paint_DrawString_CN+0x68>
    4a7a:	009b8533          	add	a0,s7,s1
    4a7e:	0542                	slli	a0,a0,0x10
    4a80:	8141                	srli	a0,a0,0x10
    4a82:	864e                	mv	a2,s3
    4a84:	e311                	bnez	a4,4a88 <Paint_DrawString_CN+0x168>
    4a86:	8652                	mv	a2,s4
    4a88:	85ee                	mv	a1,s11
    4a8a:	b7d1                	j	4a4e <Paint_DrawString_CN+0x12e>
    4a8c:	4b81                	li	s7,0
    4a8e:	b7f9                	j	4a5c <Paint_DrawString_CN+0x13c>
    4a90:	0705                	addi	a4,a4,1
    4a92:	b5d1                	j	4956 <Paint_DrawString_CN+0x36>

00004a94 <Delay_Init>:
    4a94:	200007b7          	lui	a5,0x20000
    4a98:	0b07a783          	lw	a5,176(a5) # 200000b0 <SystemCoreClock>
    4a9c:	007a1737          	lui	a4,0x7a1
    4aa0:	20070713          	addi	a4,a4,512 # 7a1200 <_data_lma+0x7995b4>
    4aa4:	02e7d7b3          	divu	a5,a5,a4
    4aa8:	0ff7f793          	andi	a5,a5,255
    4aac:	8ef18a23          	sb	a5,-1804(gp) # 200001a4 <p_us>
    4ab0:	3e800713          	li	a4,1000
    4ab4:	02e787b3          	mul	a5,a5,a4
    4ab8:	8ef19923          	sh	a5,-1806(gp) # 200001a2 <p_ms>
    4abc:	8082                	ret

00004abe <USART_Printf_Init>:
    4abe:	fc0fb2ef          	jal	t0,27e <__riscv_save_0>
    4ac2:	842a                	mv	s0,a0
    4ac4:	6511                	lui	a0,0x4
    4ac6:	1101                	addi	sp,sp,-32
    4ac8:	4585                	li	a1,1
    4aca:	0511                	addi	a0,a0,4
    4acc:	b9efc0ef          	jal	ra,e6a <RCC_APB2PeriphClockCmd>
    4ad0:	20000793          	li	a5,512
    4ad4:	827c                	sh	a5,4(sp)
    4ad6:	40011537          	lui	a0,0x40011
    4ada:	478d                	li	a5,3
    4adc:	c43e                	sw	a5,8(sp)
    4ade:	004c                	addi	a1,sp,4
    4ae0:	47e1                	li	a5,24
    4ae2:	80050513          	addi	a0,a0,-2048 # 40010800 <_eusrstack+0x20000800>
    4ae6:	c63e                	sw	a5,12(sp)
    4ae8:	8d4fc0ef          	jal	ra,bbc <GPIO_Init>
    4aec:	c822                	sw	s0,16(sp)
    4aee:	40014437          	lui	s0,0x40014
    4af2:	000807b7          	lui	a5,0x80
    4af6:	080c                	addi	a1,sp,16
    4af8:	80040513          	addi	a0,s0,-2048 # 40013800 <_eusrstack+0x20003800>
    4afc:	cc3e                	sw	a5,24(sp)
    4afe:	ca02                	sw	zero,20(sp)
    4b00:	00011e23          	sh	zero,28(sp)
    4b04:	ba2fc0ef          	jal	ra,ea6 <USART_Init>
    4b08:	4585                	li	a1,1
    4b0a:	80040513          	addi	a0,s0,-2048
    4b0e:	c26fc0ef          	jal	ra,f34 <USART_Cmd>
    4b12:	6105                	addi	sp,sp,32
    4b14:	f8efb06f          	j	2a2 <__riscv_restore_0>

00004b18 <_write>:
    4b18:	f4cfb2ef          	jal	t0,264 <__riscv_save_4>
    4b1c:	400144b7          	lui	s1,0x40014
    4b20:	89ae                	mv	s3,a1
    4b22:	8932                	mv	s2,a2
    4b24:	4401                	li	s0,0
    4b26:	80048493          	addi	s1,s1,-2048 # 40013800 <_eusrstack+0x20003800>
    4b2a:	01244563          	blt	s0,s2,4b34 <_write+0x1c>
    4b2e:	854a                	mv	a0,s2
    4b30:	f68fb06f          	j	298 <__riscv_restore_4>
    4b34:	04000593          	li	a1,64
    4b38:	8526                	mv	a0,s1
    4b3a:	c56fc0ef          	jal	ra,f90 <USART_GetFlagStatus>
    4b3e:	d97d                	beqz	a0,4b34 <_write+0x1c>
    4b40:	008987b3          	add	a5,s3,s0
    4b44:	00078583          	lb	a1,0(a5) # 80000 <_data_lma+0x783b4>
    4b48:	8526                	mv	a0,s1
    4b4a:	0405                	addi	s0,s0,1
    4b4c:	05c2                	slli	a1,a1,0x10
    4b4e:	81c1                	srli	a1,a1,0x10
    4b50:	c30fc0ef          	jal	ra,f80 <USART_SendData>
    4b54:	bfd9                	j	4b2a <_write+0x12>

00004b56 <_sbrk>:
    4b56:	81018713          	addi	a4,gp,-2032 # 200000c0 <curbrk.5275>
    4b5a:	431c                	lw	a5,0(a4)
    4b5c:	200086b7          	lui	a3,0x20008
    4b60:	7a468693          	addi	a3,a3,1956 # 200087a4 <_ebss>
    4b64:	953e                	add	a0,a0,a5
    4b66:	00d56b63          	bltu	a0,a3,4b7c <_sbrk+0x26>
    4b6a:	200106b7          	lui	a3,0x20010
    4b6e:	80068693          	addi	a3,a3,-2048 # 2000f800 <_heap_end>
    4b72:	00a6e563          	bltu	a3,a0,4b7c <_sbrk+0x26>
    4b76:	c308                	sw	a0,0(a4)
    4b78:	853e                	mv	a0,a5
    4b7a:	8082                	ret
    4b7c:	57fd                	li	a5,-1
    4b7e:	bfed                	j	4b78 <_sbrk+0x22>

00004b80 <__get_MEPC>:
    4b80:	34102573          	csrr	a0,mepc
    4b84:	8082                	ret

00004b86 <__get_MCAUSE>:
    4b86:	34202573          	csrr	a0,mcause
    4b8a:	8082                	ret

00004b8c <__get_MTVAL>:
    4b8c:	34302573          	csrr	a0,mtval
    4b90:	8082                	ret

00004b92 <__clzsi2>:
    4b92:	67c1                	lui	a5,0x10
    4b94:	02f57c63          	bgeu	a0,a5,4bcc <__clzsi2+0x3a>
    4b98:	0ff00793          	li	a5,255
    4b9c:	02000713          	li	a4,32
    4ba0:	00a7eb63          	bltu	a5,a0,4bb6 <__clzsi2+0x24>
    4ba4:	00003797          	auipc	a5,0x3
    4ba8:	f0c78793          	addi	a5,a5,-244 # 7ab0 <__clz_tab>
    4bac:	97aa                	add	a5,a5,a0
    4bae:	2388                	lbu	a0,0(a5)
    4bb0:	40a70533          	sub	a0,a4,a0
    4bb4:	8082                	ret
    4bb6:	8121                	srli	a0,a0,0x8
    4bb8:	00003797          	auipc	a5,0x3
    4bbc:	ef878793          	addi	a5,a5,-264 # 7ab0 <__clz_tab>
    4bc0:	97aa                	add	a5,a5,a0
    4bc2:	2388                	lbu	a0,0(a5)
    4bc4:	4761                	li	a4,24
    4bc6:	40a70533          	sub	a0,a4,a0
    4bca:	8082                	ret
    4bcc:	010007b7          	lui	a5,0x1000
    4bd0:	00f56d63          	bltu	a0,a5,4bea <__clzsi2+0x58>
    4bd4:	8161                	srli	a0,a0,0x18
    4bd6:	00003797          	auipc	a5,0x3
    4bda:	eda78793          	addi	a5,a5,-294 # 7ab0 <__clz_tab>
    4bde:	97aa                	add	a5,a5,a0
    4be0:	2388                	lbu	a0,0(a5)
    4be2:	4721                	li	a4,8
    4be4:	40a70533          	sub	a0,a4,a0
    4be8:	8082                	ret
    4bea:	8141                	srli	a0,a0,0x10
    4bec:	00003797          	auipc	a5,0x3
    4bf0:	ec478793          	addi	a5,a5,-316 # 7ab0 <__clz_tab>
    4bf4:	97aa                	add	a5,a5,a0
    4bf6:	2388                	lbu	a0,0(a5)
    4bf8:	4741                	li	a4,16
    4bfa:	40a70533          	sub	a0,a4,a0
    4bfe:	8082                	ret

00004c00 <__udivdi3>:
    4c00:	87b6                	mv	a5,a3
    4c02:	88b2                	mv	a7,a2
    4c04:	832a                	mv	t1,a0
    4c06:	882e                	mv	a6,a1
    4c08:	14069b63          	bnez	a3,4d5e <__udivdi3+0x15e>
    4c0c:	0ac5f863          	bgeu	a1,a2,4cbc <__udivdi3+0xbc>
    4c10:	6741                	lui	a4,0x10
    4c12:	1ae66b63          	bltu	a2,a4,4dc8 <__udivdi3+0x1c8>
    4c16:	010007b7          	lui	a5,0x1000
    4c1a:	34f66063          	bltu	a2,a5,4f5a <__udivdi3+0x35a>
    4c1e:	01865693          	srli	a3,a2,0x18
    4c22:	47e1                	li	a5,24
    4c24:	00003717          	auipc	a4,0x3
    4c28:	e8c70713          	addi	a4,a4,-372 # 7ab0 <__clz_tab>
    4c2c:	9736                	add	a4,a4,a3
    4c2e:	2318                	lbu	a4,0(a4)
    4c30:	97ba                	add	a5,a5,a4
    4c32:	02000713          	li	a4,32
    4c36:	8f1d                	sub	a4,a4,a5
    4c38:	cb19                	beqz	a4,4c4e <__udivdi3+0x4e>
    4c3a:	00e59833          	sll	a6,a1,a4
    4c3e:	00f557b3          	srl	a5,a0,a5
    4c42:	00e618b3          	sll	a7,a2,a4
    4c46:	0107e833          	or	a6,a5,a6
    4c4a:	00e51333          	sll	t1,a0,a4
    4c4e:	0108d613          	srli	a2,a7,0x10
    4c52:	02c85533          	divu	a0,a6,a2
    4c56:	01089693          	slli	a3,a7,0x10
    4c5a:	82c1                	srli	a3,a3,0x10
    4c5c:	01035793          	srli	a5,t1,0x10
    4c60:	02c87733          	remu	a4,a6,a2
    4c64:	02a685b3          	mul	a1,a3,a0
    4c68:	0742                	slli	a4,a4,0x10
    4c6a:	00f76833          	or	a6,a4,a5
    4c6e:	00b87a63          	bgeu	a6,a1,4c82 <__udivdi3+0x82>
    4c72:	9846                	add	a6,a6,a7
    4c74:	fff50793          	addi	a5,a0,-1
    4c78:	01186463          	bltu	a6,a7,4c80 <__udivdi3+0x80>
    4c7c:	30b86563          	bltu	a6,a1,4f86 <__udivdi3+0x386>
    4c80:	853e                	mv	a0,a5
    4c82:	40b80833          	sub	a6,a6,a1
    4c86:	02c85733          	divu	a4,a6,a2
    4c8a:	0342                	slli	t1,t1,0x10
    4c8c:	01035313          	srli	t1,t1,0x10
    4c90:	02c87833          	remu	a6,a6,a2
    4c94:	02e686b3          	mul	a3,a3,a4
    4c98:	0842                	slli	a6,a6,0x10
    4c9a:	00686833          	or	a6,a6,t1
    4c9e:	00d87b63          	bgeu	a6,a3,4cb4 <__udivdi3+0xb4>
    4ca2:	9846                	add	a6,a6,a7
    4ca4:	fff70793          	addi	a5,a4,-1
    4ca8:	01186563          	bltu	a6,a7,4cb2 <__udivdi3+0xb2>
    4cac:	1779                	addi	a4,a4,-2
    4cae:	00d86363          	bltu	a6,a3,4cb4 <__udivdi3+0xb4>
    4cb2:	873e                	mv	a4,a5
    4cb4:	0542                	slli	a0,a0,0x10
    4cb6:	8d59                	or	a0,a0,a4
    4cb8:	4581                	li	a1,0
    4cba:	8082                	ret
    4cbc:	e601                	bnez	a2,4cc4 <__udivdi3+0xc4>
    4cbe:	4705                	li	a4,1
    4cc0:	02c758b3          	divu	a7,a4,a2
    4cc4:	6741                	lui	a4,0x10
    4cc6:	0ee8e863          	bltu	a7,a4,4db6 <__udivdi3+0x1b6>
    4cca:	010007b7          	lui	a5,0x1000
    4cce:	28f8ea63          	bltu	a7,a5,4f62 <__udivdi3+0x362>
    4cd2:	0188d693          	srli	a3,a7,0x18
    4cd6:	47e1                	li	a5,24
    4cd8:	00003717          	auipc	a4,0x3
    4cdc:	dd870713          	addi	a4,a4,-552 # 7ab0 <__clz_tab>
    4ce0:	9736                	add	a4,a4,a3
    4ce2:	2314                	lbu	a3,0(a4)
    4ce4:	96be                	add	a3,a3,a5
    4ce6:	02000793          	li	a5,32
    4cea:	8f95                	sub	a5,a5,a3
    4cec:	e7fd                	bnez	a5,4dda <__udivdi3+0x1da>
    4cee:	01089e93          	slli	t4,a7,0x10
    4cf2:	41158733          	sub	a4,a1,a7
    4cf6:	0108df13          	srli	t5,a7,0x10
    4cfa:	010ede93          	srli	t4,t4,0x10
    4cfe:	4585                	li	a1,1
    4d00:	01035793          	srli	a5,t1,0x10
    4d04:	03e75533          	divu	a0,a4,t5
    4d08:	03e77733          	remu	a4,a4,t5
    4d0c:	03d506b3          	mul	a3,a0,t4
    4d10:	0742                	slli	a4,a4,0x10
    4d12:	8fd9                	or	a5,a5,a4
    4d14:	00d7fa63          	bgeu	a5,a3,4d28 <__udivdi3+0x128>
    4d18:	97c6                	add	a5,a5,a7
    4d1a:	fff50713          	addi	a4,a0,-1
    4d1e:	0117e463          	bltu	a5,a7,4d26 <__udivdi3+0x126>
    4d22:	26d7e563          	bltu	a5,a3,4f8c <__udivdi3+0x38c>
    4d26:	853a                	mv	a0,a4
    4d28:	8f95                	sub	a5,a5,a3
    4d2a:	03e7d733          	divu	a4,a5,t5
    4d2e:	0342                	slli	t1,t1,0x10
    4d30:	01035313          	srli	t1,t1,0x10
    4d34:	03e7f7b3          	remu	a5,a5,t5
    4d38:	03d70eb3          	mul	t4,a4,t4
    4d3c:	07c2                	slli	a5,a5,0x10
    4d3e:	0067e7b3          	or	a5,a5,t1
    4d42:	01d7fb63          	bgeu	a5,t4,4d58 <__udivdi3+0x158>
    4d46:	97c6                	add	a5,a5,a7
    4d48:	fff70693          	addi	a3,a4,-1
    4d4c:	0117e563          	bltu	a5,a7,4d56 <__udivdi3+0x156>
    4d50:	1779                	addi	a4,a4,-2
    4d52:	01d7e363          	bltu	a5,t4,4d58 <__udivdi3+0x158>
    4d56:	8736                	mv	a4,a3
    4d58:	0542                	slli	a0,a0,0x10
    4d5a:	8d59                	or	a0,a0,a4
    4d5c:	8082                	ret
    4d5e:	04d5e163          	bltu	a1,a3,4da0 <__udivdi3+0x1a0>
    4d62:	67c1                	lui	a5,0x10
    4d64:	04f6e163          	bltu	a3,a5,4da6 <__udivdi3+0x1a6>
    4d68:	010007b7          	lui	a5,0x1000
    4d6c:	1ef6e363          	bltu	a3,a5,4f52 <__udivdi3+0x352>
    4d70:	0186d713          	srli	a4,a3,0x18
    4d74:	4861                	li	a6,24
    4d76:	00003797          	auipc	a5,0x3
    4d7a:	d3a78793          	addi	a5,a5,-710 # 7ab0 <__clz_tab>
    4d7e:	97ba                	add	a5,a5,a4
    4d80:	2398                	lbu	a4,0(a5)
    4d82:	02000e13          	li	t3,32
    4d86:	9742                	add	a4,a4,a6
    4d88:	40ee0e33          	sub	t3,t3,a4
    4d8c:	0c0e1a63          	bnez	t3,4e60 <__udivdi3+0x260>
    4d90:	1cb6ed63          	bltu	a3,a1,4f6a <__udivdi3+0x36a>
    4d94:	00c53533          	sltu	a0,a0,a2
    4d98:	00154513          	xori	a0,a0,1
    4d9c:	4581                	li	a1,0
    4d9e:	8082                	ret
    4da0:	4581                	li	a1,0
    4da2:	4501                	li	a0,0
    4da4:	8082                	ret
    4da6:	0ff00793          	li	a5,255
    4daa:	1cd7f363          	bgeu	a5,a3,4f70 <__udivdi3+0x370>
    4dae:	0086d713          	srli	a4,a3,0x8
    4db2:	4821                	li	a6,8
    4db4:	b7c9                	j	4d76 <__udivdi3+0x176>
    4db6:	0ff00713          	li	a4,255
    4dba:	86c6                	mv	a3,a7
    4dbc:	f1177ee3          	bgeu	a4,a7,4cd8 <__udivdi3+0xd8>
    4dc0:	0088d693          	srli	a3,a7,0x8
    4dc4:	47a1                	li	a5,8
    4dc6:	bf09                	j	4cd8 <__udivdi3+0xd8>
    4dc8:	0ff00713          	li	a4,255
    4dcc:	86b2                	mv	a3,a2
    4dce:	e4c77be3          	bgeu	a4,a2,4c24 <__udivdi3+0x24>
    4dd2:	00865693          	srli	a3,a2,0x8
    4dd6:	47a1                	li	a5,8
    4dd8:	b5b1                	j	4c24 <__udivdi3+0x24>
    4dda:	00f898b3          	sll	a7,a7,a5
    4dde:	00d5d633          	srl	a2,a1,a3
    4de2:	0108df13          	srli	t5,a7,0x10
    4de6:	03e65e33          	divu	t3,a2,t5
    4dea:	00f59733          	sll	a4,a1,a5
    4dee:	00d556b3          	srl	a3,a0,a3
    4df2:	8f55                	or	a4,a4,a3
    4df4:	01089e93          	slli	t4,a7,0x10
    4df8:	010ede93          	srli	t4,t4,0x10
    4dfc:	00f51333          	sll	t1,a0,a5
    4e00:	01075593          	srli	a1,a4,0x10
    4e04:	03e676b3          	remu	a3,a2,t5
    4e08:	03ce87b3          	mul	a5,t4,t3
    4e0c:	06c2                	slli	a3,a3,0x10
    4e0e:	8ecd                	or	a3,a3,a1
    4e10:	00f6fb63          	bgeu	a3,a5,4e26 <__udivdi3+0x226>
    4e14:	96c6                	add	a3,a3,a7
    4e16:	fffe0613          	addi	a2,t3,-1
    4e1a:	1716e463          	bltu	a3,a7,4f82 <__udivdi3+0x382>
    4e1e:	16f6f263          	bgeu	a3,a5,4f82 <__udivdi3+0x382>
    4e22:	1e79                	addi	t3,t3,-2
    4e24:	96c6                	add	a3,a3,a7
    4e26:	8e9d                	sub	a3,a3,a5
    4e28:	03e6d633          	divu	a2,a3,t5
    4e2c:	01071793          	slli	a5,a4,0x10
    4e30:	83c1                	srli	a5,a5,0x10
    4e32:	03e6f6b3          	remu	a3,a3,t5
    4e36:	02ce8533          	mul	a0,t4,a2
    4e3a:	01069713          	slli	a4,a3,0x10
    4e3e:	8f5d                	or	a4,a4,a5
    4e40:	00a77b63          	bgeu	a4,a0,4e56 <__udivdi3+0x256>
    4e44:	9746                	add	a4,a4,a7
    4e46:	fff60793          	addi	a5,a2,-1
    4e4a:	13176863          	bltu	a4,a7,4f7a <__udivdi3+0x37a>
    4e4e:	12a77663          	bgeu	a4,a0,4f7a <__udivdi3+0x37a>
    4e52:	1679                	addi	a2,a2,-2
    4e54:	9746                	add	a4,a4,a7
    4e56:	010e1593          	slli	a1,t3,0x10
    4e5a:	8f09                	sub	a4,a4,a0
    4e5c:	8dd1                	or	a1,a1,a2
    4e5e:	b54d                	j	4d00 <__udivdi3+0x100>
    4e60:	00e657b3          	srl	a5,a2,a4
    4e64:	01c696b3          	sll	a3,a3,t3
    4e68:	8edd                	or	a3,a3,a5
    4e6a:	00e5d333          	srl	t1,a1,a4
    4e6e:	0106df13          	srli	t5,a3,0x10
    4e72:	03e357b3          	divu	a5,t1,t5
    4e76:	01069e93          	slli	t4,a3,0x10
    4e7a:	010ede93          	srli	t4,t4,0x10
    4e7e:	01c59833          	sll	a6,a1,t3
    4e82:	00e55733          	srl	a4,a0,a4
    4e86:	01076833          	or	a6,a4,a6
    4e8a:	01085893          	srli	a7,a6,0x10
    4e8e:	01c61633          	sll	a2,a2,t3
    4e92:	03e37333          	remu	t1,t1,t5
    4e96:	02fe85b3          	mul	a1,t4,a5
    4e9a:	0342                	slli	t1,t1,0x10
    4e9c:	011368b3          	or	a7,t1,a7
    4ea0:	00b8fb63          	bgeu	a7,a1,4eb6 <__udivdi3+0x2b6>
    4ea4:	98b6                	add	a7,a7,a3
    4ea6:	fff78713          	addi	a4,a5,-1
    4eaa:	0cd8ea63          	bltu	a7,a3,4f7e <__udivdi3+0x37e>
    4eae:	0cb8f863          	bgeu	a7,a1,4f7e <__udivdi3+0x37e>
    4eb2:	17f9                	addi	a5,a5,-2
    4eb4:	98b6                	add	a7,a7,a3
    4eb6:	40b888b3          	sub	a7,a7,a1
    4eba:	03e8d733          	divu	a4,a7,t5
    4ebe:	0842                	slli	a6,a6,0x10
    4ec0:	01085813          	srli	a6,a6,0x10
    4ec4:	03e8f8b3          	remu	a7,a7,t5
    4ec8:	02ee8333          	mul	t1,t4,a4
    4ecc:	08c2                	slli	a7,a7,0x10
    4ece:	0108e5b3          	or	a1,a7,a6
    4ed2:	0065fb63          	bgeu	a1,t1,4ee8 <__udivdi3+0x2e8>
    4ed6:	95b6                	add	a1,a1,a3
    4ed8:	fff70813          	addi	a6,a4,-1
    4edc:	08d5ed63          	bltu	a1,a3,4f76 <__udivdi3+0x376>
    4ee0:	0865fb63          	bgeu	a1,t1,4f76 <__udivdi3+0x376>
    4ee4:	1779                	addi	a4,a4,-2
    4ee6:	95b6                	add	a1,a1,a3
    4ee8:	07c2                	slli	a5,a5,0x10
    4eea:	6f41                	lui	t5,0x10
    4eec:	8fd9                	or	a5,a5,a4
    4eee:	ffff0713          	addi	a4,t5,-1 # ffff <_data_lma+0x83b3>
    4ef2:	00e7f6b3          	and	a3,a5,a4
    4ef6:	0107d893          	srli	a7,a5,0x10
    4efa:	8f71                	and	a4,a4,a2
    4efc:	8241                	srli	a2,a2,0x10
    4efe:	02e68eb3          	mul	t4,a3,a4
    4f02:	406585b3          	sub	a1,a1,t1
    4f06:	02c686b3          	mul	a3,a3,a2
    4f0a:	010ed813          	srli	a6,t4,0x10
    4f0e:	02e88733          	mul	a4,a7,a4
    4f12:	96ba                	add	a3,a3,a4
    4f14:	96c2                	add	a3,a3,a6
    4f16:	02c88633          	mul	a2,a7,a2
    4f1a:	00e6f363          	bgeu	a3,a4,4f20 <__udivdi3+0x320>
    4f1e:	967a                	add	a2,a2,t5
    4f20:	0106d893          	srli	a7,a3,0x10
    4f24:	9646                	add	a2,a2,a7
    4f26:	02c5e263          	bltu	a1,a2,4f4a <__udivdi3+0x34a>
    4f2a:	00c58563          	beq	a1,a2,4f34 <__udivdi3+0x334>
    4f2e:	853e                	mv	a0,a5
    4f30:	4581                	li	a1,0
    4f32:	8082                	ret
    4f34:	6741                	lui	a4,0x10
    4f36:	177d                	addi	a4,a4,-1
    4f38:	8ef9                	and	a3,a3,a4
    4f3a:	06c2                	slli	a3,a3,0x10
    4f3c:	00eefeb3          	and	t4,t4,a4
    4f40:	01c51533          	sll	a0,a0,t3
    4f44:	96f6                	add	a3,a3,t4
    4f46:	fed574e3          	bgeu	a0,a3,4f2e <__udivdi3+0x32e>
    4f4a:	fff78513          	addi	a0,a5,-1
    4f4e:	4581                	li	a1,0
    4f50:	8082                	ret
    4f52:	0106d713          	srli	a4,a3,0x10
    4f56:	4841                	li	a6,16
    4f58:	bd39                	j	4d76 <__udivdi3+0x176>
    4f5a:	01065693          	srli	a3,a2,0x10
    4f5e:	47c1                	li	a5,16
    4f60:	b1d1                	j	4c24 <__udivdi3+0x24>
    4f62:	0108d693          	srli	a3,a7,0x10
    4f66:	47c1                	li	a5,16
    4f68:	bb85                	j	4cd8 <__udivdi3+0xd8>
    4f6a:	4581                	li	a1,0
    4f6c:	4505                	li	a0,1
    4f6e:	8082                	ret
    4f70:	8736                	mv	a4,a3
    4f72:	4801                	li	a6,0
    4f74:	b509                	j	4d76 <__udivdi3+0x176>
    4f76:	8742                	mv	a4,a6
    4f78:	bf85                	j	4ee8 <__udivdi3+0x2e8>
    4f7a:	863e                	mv	a2,a5
    4f7c:	bde9                	j	4e56 <__udivdi3+0x256>
    4f7e:	87ba                	mv	a5,a4
    4f80:	bf1d                	j	4eb6 <__udivdi3+0x2b6>
    4f82:	8e32                	mv	t3,a2
    4f84:	b54d                	j	4e26 <__udivdi3+0x226>
    4f86:	1579                	addi	a0,a0,-2
    4f88:	9846                	add	a6,a6,a7
    4f8a:	b9e5                	j	4c82 <__udivdi3+0x82>
    4f8c:	1579                	addi	a0,a0,-2
    4f8e:	97c6                	add	a5,a5,a7
    4f90:	bb61                	j	4d28 <__udivdi3+0x128>

00004f92 <__umoddi3>:
    4f92:	87b6                	mv	a5,a3
    4f94:	8832                	mv	a6,a2
    4f96:	832a                	mv	t1,a0
    4f98:	872e                	mv	a4,a1
    4f9a:	8e2e                	mv	t3,a1
    4f9c:	14069163          	bnez	a3,50de <__umoddi3+0x14c>
    4fa0:	0ac5f063          	bgeu	a1,a2,5040 <__umoddi3+0xae>
    4fa4:	6741                	lui	a4,0x10
    4fa6:	1ae67663          	bgeu	a2,a4,5152 <__umoddi3+0x1c0>
    4faa:	0ff00713          	li	a4,255
    4fae:	86b2                	mv	a3,a2
    4fb0:	00c77563          	bgeu	a4,a2,4fba <__umoddi3+0x28>
    4fb4:	00865693          	srli	a3,a2,0x8
    4fb8:	47a1                	li	a5,8
    4fba:	00003717          	auipc	a4,0x3
    4fbe:	af670713          	addi	a4,a4,-1290 # 7ab0 <__clz_tab>
    4fc2:	9736                	add	a4,a4,a3
    4fc4:	2318                	lbu	a4,0(a4)
    4fc6:	02000893          	li	a7,32
    4fca:	97ba                	add	a5,a5,a4
    4fcc:	40f888b3          	sub	a7,a7,a5
    4fd0:	00088c63          	beqz	a7,4fe8 <__umoddi3+0x56>
    4fd4:	011595b3          	sll	a1,a1,a7
    4fd8:	00f557b3          	srl	a5,a0,a5
    4fdc:	01161833          	sll	a6,a2,a7
    4fe0:	00b7ee33          	or	t3,a5,a1
    4fe4:	01151333          	sll	t1,a0,a7
    4fe8:	01085613          	srli	a2,a6,0x10
    4fec:	02ce57b3          	divu	a5,t3,a2
    4ff0:	01081513          	slli	a0,a6,0x10
    4ff4:	8141                	srli	a0,a0,0x10
    4ff6:	01035693          	srli	a3,t1,0x10
    4ffa:	02ce7e33          	remu	t3,t3,a2
    4ffe:	02f507b3          	mul	a5,a0,a5
    5002:	0e42                	slli	t3,t3,0x10
    5004:	00de6733          	or	a4,t3,a3
    5008:	00f77863          	bgeu	a4,a5,5018 <__umoddi3+0x86>
    500c:	9742                	add	a4,a4,a6
    500e:	01076563          	bltu	a4,a6,5018 <__umoddi3+0x86>
    5012:	00f77363          	bgeu	a4,a5,5018 <__umoddi3+0x86>
    5016:	9742                	add	a4,a4,a6
    5018:	8f1d                	sub	a4,a4,a5
    501a:	02c756b3          	divu	a3,a4,a2
    501e:	01031793          	slli	a5,t1,0x10
    5022:	83c1                	srli	a5,a5,0x10
    5024:	02c77733          	remu	a4,a4,a2
    5028:	02d50533          	mul	a0,a0,a3
    502c:	0742                	slli	a4,a4,0x10
    502e:	8fd9                	or	a5,a5,a4
    5030:	08a7eb63          	bltu	a5,a0,50c6 <__umoddi3+0x134>
    5034:	40a78533          	sub	a0,a5,a0
    5038:	01155533          	srl	a0,a0,a7
    503c:	4581                	li	a1,0
    503e:	8082                	ret
    5040:	e601                	bnez	a2,5048 <__umoddi3+0xb6>
    5042:	4705                	li	a4,1
    5044:	02c75833          	divu	a6,a4,a2
    5048:	6741                	lui	a4,0x10
    504a:	0ee86b63          	bltu	a6,a4,5140 <__umoddi3+0x1ae>
    504e:	010007b7          	lui	a5,0x1000
    5052:	2af86463          	bltu	a6,a5,52fa <__umoddi3+0x368>
    5056:	01885693          	srli	a3,a6,0x18
    505a:	47e1                	li	a5,24
    505c:	00003717          	auipc	a4,0x3
    5060:	a5470713          	addi	a4,a4,-1452 # 7ab0 <__clz_tab>
    5064:	9736                	add	a4,a4,a3
    5066:	2318                	lbu	a4,0(a4)
    5068:	02000893          	li	a7,32
    506c:	97ba                	add	a5,a5,a4
    506e:	40f888b3          	sub	a7,a7,a5
    5072:	1e089a63          	bnez	a7,5266 <__umoddi3+0x2d4>
    5076:	01081e13          	slli	t3,a6,0x10
    507a:	410585b3          	sub	a1,a1,a6
    507e:	01085613          	srli	a2,a6,0x10
    5082:	010e5e13          	srli	t3,t3,0x10
    5086:	01035713          	srli	a4,t1,0x10
    508a:	02c5d6b3          	divu	a3,a1,a2
    508e:	02c5f5b3          	remu	a1,a1,a2
    5092:	03c686b3          	mul	a3,a3,t3
    5096:	05c2                	slli	a1,a1,0x10
    5098:	8f4d                	or	a4,a4,a1
    509a:	00d77763          	bgeu	a4,a3,50a8 <__umoddi3+0x116>
    509e:	9742                	add	a4,a4,a6
    50a0:	01076463          	bltu	a4,a6,50a8 <__umoddi3+0x116>
    50a4:	26d76a63          	bltu	a4,a3,5318 <__umoddi3+0x386>
    50a8:	8f15                	sub	a4,a4,a3
    50aa:	02c75533          	divu	a0,a4,a2
    50ae:	0342                	slli	t1,t1,0x10
    50b0:	01035313          	srli	t1,t1,0x10
    50b4:	02c77733          	remu	a4,a4,a2
    50b8:	03c50533          	mul	a0,a0,t3
    50bc:	0742                	slli	a4,a4,0x10
    50be:	006767b3          	or	a5,a4,t1
    50c2:	00a7f863          	bgeu	a5,a0,50d2 <__umoddi3+0x140>
    50c6:	97c2                	add	a5,a5,a6
    50c8:	0107e563          	bltu	a5,a6,50d2 <__umoddi3+0x140>
    50cc:	00a7f363          	bgeu	a5,a0,50d2 <__umoddi3+0x140>
    50d0:	97c2                	add	a5,a5,a6
    50d2:	40a78533          	sub	a0,a5,a0
    50d6:	01155533          	srl	a0,a0,a7
    50da:	4581                	li	a1,0
    50dc:	8082                	ret
    50de:	882a                	mv	a6,a0
    50e0:	f4d5efe3          	bltu	a1,a3,503e <__umoddi3+0xac>
    50e4:	67c1                	lui	a5,0x10
    50e6:	04f6e563          	bltu	a3,a5,5130 <__umoddi3+0x19e>
    50ea:	010007b7          	lui	a5,0x1000
    50ee:	20f6e263          	bltu	a3,a5,52f2 <__umoddi3+0x360>
    50f2:	0186d313          	srli	t1,a3,0x18
    50f6:	48e1                	li	a7,24
    50f8:	00003797          	auipc	a5,0x3
    50fc:	9b878793          	addi	a5,a5,-1608 # 7ab0 <__clz_tab>
    5100:	979a                	add	a5,a5,t1
    5102:	0007ce03          	lbu	t3,0(a5)
    5106:	02000313          	li	t1,32
    510a:	9e46                	add	t3,t3,a7
    510c:	41c30333          	sub	t1,t1,t3
    5110:	04031963          	bnez	t1,5162 <__umoddi3+0x1d0>
    5114:	00b6e463          	bltu	a3,a1,511c <__umoddi3+0x18a>
    5118:	00c56963          	bltu	a0,a2,512a <__umoddi3+0x198>
    511c:	40c50833          	sub	a6,a0,a2
    5120:	8d95                	sub	a1,a1,a3
    5122:	01053733          	sltu	a4,a0,a6
    5126:	40e58733          	sub	a4,a1,a4
    512a:	8542                	mv	a0,a6
    512c:	85ba                	mv	a1,a4
    512e:	8082                	ret
    5130:	0ff00793          	li	a5,255
    5134:	1cd7fb63          	bgeu	a5,a3,530a <__umoddi3+0x378>
    5138:	0086d313          	srli	t1,a3,0x8
    513c:	48a1                	li	a7,8
    513e:	bf6d                	j	50f8 <__umoddi3+0x166>
    5140:	0ff00713          	li	a4,255
    5144:	86c2                	mv	a3,a6
    5146:	f1077be3          	bgeu	a4,a6,505c <__umoddi3+0xca>
    514a:	00885693          	srli	a3,a6,0x8
    514e:	47a1                	li	a5,8
    5150:	b731                	j	505c <__umoddi3+0xca>
    5152:	010007b7          	lui	a5,0x1000
    5156:	1af66663          	bltu	a2,a5,5302 <__umoddi3+0x370>
    515a:	01865693          	srli	a3,a2,0x18
    515e:	47e1                	li	a5,24
    5160:	bda9                	j	4fba <__umoddi3+0x28>
    5162:	01c657b3          	srl	a5,a2,t3
    5166:	006696b3          	sll	a3,a3,t1
    516a:	8edd                	or	a3,a3,a5
    516c:	01c5d8b3          	srl	a7,a1,t3
    5170:	0106d713          	srli	a4,a3,0x10
    5174:	02e8deb3          	divu	t4,a7,a4
    5178:	01069f13          	slli	t5,a3,0x10
    517c:	01c557b3          	srl	a5,a0,t3
    5180:	010f5f13          	srli	t5,t5,0x10
    5184:	006595b3          	sll	a1,a1,t1
    5188:	8ddd                	or	a1,a1,a5
    518a:	0105d813          	srli	a6,a1,0x10
    518e:	00661633          	sll	a2,a2,t1
    5192:	00651533          	sll	a0,a0,t1
    5196:	02e8f8b3          	remu	a7,a7,a4
    519a:	03df07b3          	mul	a5,t5,t4
    519e:	08c2                	slli	a7,a7,0x10
    51a0:	0108e833          	or	a6,a7,a6
    51a4:	00f87b63          	bgeu	a6,a5,51ba <__umoddi3+0x228>
    51a8:	9836                	add	a6,a6,a3
    51aa:	fffe8893          	addi	a7,t4,-1
    51ae:	16d86363          	bltu	a6,a3,5314 <__umoddi3+0x382>
    51b2:	16f87163          	bgeu	a6,a5,5314 <__umoddi3+0x382>
    51b6:	1ef9                	addi	t4,t4,-2
    51b8:	9836                	add	a6,a6,a3
    51ba:	40f80833          	sub	a6,a6,a5
    51be:	02e857b3          	divu	a5,a6,a4
    51c2:	05c2                	slli	a1,a1,0x10
    51c4:	81c1                	srli	a1,a1,0x10
    51c6:	02e87833          	remu	a6,a6,a4
    51ca:	02ff0f33          	mul	t5,t5,a5
    51ce:	01081713          	slli	a4,a6,0x10
    51d2:	8f4d                	or	a4,a4,a1
    51d4:	01e77b63          	bgeu	a4,t5,51ea <__umoddi3+0x258>
    51d8:	9736                	add	a4,a4,a3
    51da:	fff78593          	addi	a1,a5,-1 # ffffff <_data_lma+0xff83b3>
    51de:	12d76963          	bltu	a4,a3,5310 <__umoddi3+0x37e>
    51e2:	13e77763          	bgeu	a4,t5,5310 <__umoddi3+0x37e>
    51e6:	17f9                	addi	a5,a5,-2
    51e8:	9736                	add	a4,a4,a3
    51ea:	0ec2                	slli	t4,t4,0x10
    51ec:	62c1                	lui	t0,0x10
    51ee:	00feeeb3          	or	t4,t4,a5
    51f2:	fff28813          	addi	a6,t0,-1 # ffff <_data_lma+0x83b3>
    51f6:	010ef8b3          	and	a7,t4,a6
    51fa:	01065593          	srli	a1,a2,0x10
    51fe:	010ede93          	srli	t4,t4,0x10
    5202:	01067833          	and	a6,a2,a6
    5206:	03088fb3          	mul	t6,a7,a6
    520a:	41e70733          	sub	a4,a4,t5
    520e:	030e8833          	mul	a6,t4,a6
    5212:	010fd793          	srli	a5,t6,0x10
    5216:	02b888b3          	mul	a7,a7,a1
    521a:	98c2                	add	a7,a7,a6
    521c:	97c6                	add	a5,a5,a7
    521e:	02be8eb3          	mul	t4,t4,a1
    5222:	0107f363          	bgeu	a5,a6,5228 <__umoddi3+0x296>
    5226:	9e96                	add	t4,t4,t0
    5228:	6841                	lui	a6,0x10
    522a:	187d                	addi	a6,a6,-1
    522c:	0107d593          	srli	a1,a5,0x10
    5230:	0107f7b3          	and	a5,a5,a6
    5234:	07c2                	slli	a5,a5,0x10
    5236:	010fffb3          	and	t6,t6,a6
    523a:	95f6                	add	a1,a1,t4
    523c:	97fe                	add	a5,a5,t6
    523e:	0ab76263          	bltu	a4,a1,52e2 <__umoddi3+0x350>
    5242:	08b70e63          	beq	a4,a1,52de <__umoddi3+0x34c>
    5246:	40f507b3          	sub	a5,a0,a5
    524a:	00f53533          	sltu	a0,a0,a5
    524e:	40b705b3          	sub	a1,a4,a1
    5252:	8d89                	sub	a1,a1,a0
    5254:	01c59e33          	sll	t3,a1,t3
    5258:	0067d533          	srl	a0,a5,t1
    525c:	00ae6533          	or	a0,t3,a0
    5260:	0065d5b3          	srl	a1,a1,t1
    5264:	8082                	ret
    5266:	01181833          	sll	a6,a6,a7
    526a:	00f5d733          	srl	a4,a1,a5
    526e:	01085613          	srli	a2,a6,0x10
    5272:	02c756b3          	divu	a3,a4,a2
    5276:	01081e13          	slli	t3,a6,0x10
    527a:	00f557b3          	srl	a5,a0,a5
    527e:	010e5e13          	srli	t3,t3,0x10
    5282:	011595b3          	sll	a1,a1,a7
    5286:	8ddd                	or	a1,a1,a5
    5288:	0105de93          	srli	t4,a1,0x10
    528c:	01151333          	sll	t1,a0,a7
    5290:	02c77733          	remu	a4,a4,a2
    5294:	02de07b3          	mul	a5,t3,a3
    5298:	01071693          	slli	a3,a4,0x10
    529c:	01d6e6b3          	or	a3,a3,t4
    52a0:	00f6f863          	bgeu	a3,a5,52b0 <__umoddi3+0x31e>
    52a4:	96c2                	add	a3,a3,a6
    52a6:	0106e563          	bltu	a3,a6,52b0 <__umoddi3+0x31e>
    52aa:	00f6f363          	bgeu	a3,a5,52b0 <__umoddi3+0x31e>
    52ae:	96c2                	add	a3,a3,a6
    52b0:	8e9d                	sub	a3,a3,a5
    52b2:	02c6d733          	divu	a4,a3,a2
    52b6:	01059793          	slli	a5,a1,0x10
    52ba:	83c1                	srli	a5,a5,0x10
    52bc:	02c6f6b3          	remu	a3,a3,a2
    52c0:	02ee0733          	mul	a4,t3,a4
    52c4:	01069593          	slli	a1,a3,0x10
    52c8:	8ddd                	or	a1,a1,a5
    52ca:	00e5f863          	bgeu	a1,a4,52da <__umoddi3+0x348>
    52ce:	95c2                	add	a1,a1,a6
    52d0:	0105e563          	bltu	a1,a6,52da <__umoddi3+0x348>
    52d4:	00e5f363          	bgeu	a1,a4,52da <__umoddi3+0x348>
    52d8:	95c2                	add	a1,a1,a6
    52da:	8d99                	sub	a1,a1,a4
    52dc:	b36d                	j	5086 <__umoddi3+0xf4>
    52de:	f6f574e3          	bgeu	a0,a5,5246 <__umoddi3+0x2b4>
    52e2:	40c78633          	sub	a2,a5,a2
    52e6:	00c7b7b3          	sltu	a5,a5,a2
    52ea:	97b6                	add	a5,a5,a3
    52ec:	8d9d                	sub	a1,a1,a5
    52ee:	87b2                	mv	a5,a2
    52f0:	bf99                	j	5246 <__umoddi3+0x2b4>
    52f2:	0106d313          	srli	t1,a3,0x10
    52f6:	48c1                	li	a7,16
    52f8:	b501                	j	50f8 <__umoddi3+0x166>
    52fa:	01085693          	srli	a3,a6,0x10
    52fe:	47c1                	li	a5,16
    5300:	bbb1                	j	505c <__umoddi3+0xca>
    5302:	01065693          	srli	a3,a2,0x10
    5306:	47c1                	li	a5,16
    5308:	b94d                	j	4fba <__umoddi3+0x28>
    530a:	8336                	mv	t1,a3
    530c:	4881                	li	a7,0
    530e:	b3ed                	j	50f8 <__umoddi3+0x166>
    5310:	87ae                	mv	a5,a1
    5312:	bde1                	j	51ea <__umoddi3+0x258>
    5314:	8ec6                	mv	t4,a7
    5316:	b555                	j	51ba <__umoddi3+0x228>
    5318:	9742                	add	a4,a4,a6
    531a:	b379                	j	50a8 <__umoddi3+0x116>

0000531c <std>:
    531c:	1141                	addi	sp,sp,-16
    531e:	c422                	sw	s0,8(sp)
    5320:	c606                	sw	ra,12(sp)
    5322:	842a                	mv	s0,a0
    5324:	a54e                	sh	a1,12(a0)
    5326:	a572                	sh	a2,14(a0)
    5328:	00052023          	sw	zero,0(a0)
    532c:	00052223          	sw	zero,4(a0)
    5330:	00052423          	sw	zero,8(a0)
    5334:	06052223          	sw	zero,100(a0)
    5338:	00052823          	sw	zero,16(a0)
    533c:	00052a23          	sw	zero,20(a0)
    5340:	00052c23          	sw	zero,24(a0)
    5344:	4621                	li	a2,8
    5346:	4581                	li	a1,0
    5348:	05c50513          	addi	a0,a0,92
    534c:	f63fa0ef          	jal	ra,2ae <memset>
    5350:	00000797          	auipc	a5,0x0
    5354:	71c78793          	addi	a5,a5,1820 # 5a6c <__sread>
    5358:	d05c                	sw	a5,36(s0)
    535a:	00000797          	auipc	a5,0x0
    535e:	74078793          	addi	a5,a5,1856 # 5a9a <__swrite>
    5362:	d41c                	sw	a5,40(s0)
    5364:	00000797          	auipc	a5,0x0
    5368:	77e78793          	addi	a5,a5,1918 # 5ae2 <__sseek>
    536c:	d45c                	sw	a5,44(s0)
    536e:	00000797          	auipc	a5,0x0
    5372:	7a478793          	addi	a5,a5,1956 # 5b12 <__sclose>
    5376:	d000                	sw	s0,32(s0)
    5378:	d81c                	sw	a5,48(s0)
    537a:	40b2                	lw	ra,12(sp)
    537c:	4422                	lw	s0,8(sp)
    537e:	0141                	addi	sp,sp,16
    5380:	8082                	ret

00005382 <_cleanup_r>:
    5382:	00001597          	auipc	a1,0x1
    5386:	b2458593          	addi	a1,a1,-1244 # 5ea6 <_fflush_r>
    538a:	aa91                	j	54de <_fwalk_reent>

0000538c <__sfmoreglue>:
    538c:	1141                	addi	sp,sp,-16
    538e:	c226                	sw	s1,4(sp)
    5390:	06800613          	li	a2,104
    5394:	fff58493          	addi	s1,a1,-1
    5398:	02c484b3          	mul	s1,s1,a2
    539c:	c04a                	sw	s2,0(sp)
    539e:	892e                	mv	s2,a1
    53a0:	c422                	sw	s0,8(sp)
    53a2:	c606                	sw	ra,12(sp)
    53a4:	07448593          	addi	a1,s1,116
    53a8:	2999                	jal	57fe <_malloc_r>
    53aa:	842a                	mv	s0,a0
    53ac:	cd01                	beqz	a0,53c4 <__sfmoreglue+0x38>
    53ae:	00052023          	sw	zero,0(a0)
    53b2:	01252223          	sw	s2,4(a0)
    53b6:	0531                	addi	a0,a0,12
    53b8:	c408                	sw	a0,8(s0)
    53ba:	06848613          	addi	a2,s1,104
    53be:	4581                	li	a1,0
    53c0:	eeffa0ef          	jal	ra,2ae <memset>
    53c4:	8522                	mv	a0,s0
    53c6:	40b2                	lw	ra,12(sp)
    53c8:	4422                	lw	s0,8(sp)
    53ca:	4492                	lw	s1,4(sp)
    53cc:	4902                	lw	s2,0(sp)
    53ce:	0141                	addi	sp,sp,16
    53d0:	8082                	ret

000053d2 <__sinit>:
    53d2:	4d1c                	lw	a5,24(a0)
    53d4:	e7a5                	bnez	a5,543c <__sinit+0x6a>
    53d6:	1141                	addi	sp,sp,-16
    53d8:	c606                	sw	ra,12(sp)
    53da:	c422                	sw	s0,8(sp)
    53dc:	00000797          	auipc	a5,0x0
    53e0:	fa678793          	addi	a5,a5,-90 # 5382 <_cleanup_r>
    53e4:	d51c                	sw	a5,40(a0)
    53e6:	81c18793          	addi	a5,gp,-2020 # 200000cc <_global_impure_ptr>
    53ea:	439c                	lw	a5,0(a5)
    53ec:	04052423          	sw	zero,72(a0)
    53f0:	04052623          	sw	zero,76(a0)
    53f4:	04052823          	sw	zero,80(a0)
    53f8:	00f51463          	bne	a0,a5,5400 <__sinit+0x2e>
    53fc:	4785                	li	a5,1
    53fe:	cd1c                	sw	a5,24(a0)
    5400:	842a                	mv	s0,a0
    5402:	2835                	jal	543e <__sfp>
    5404:	c048                	sw	a0,4(s0)
    5406:	8522                	mv	a0,s0
    5408:	281d                	jal	543e <__sfp>
    540a:	c408                	sw	a0,8(s0)
    540c:	8522                	mv	a0,s0
    540e:	2805                	jal	543e <__sfp>
    5410:	c448                	sw	a0,12(s0)
    5412:	4048                	lw	a0,4(s0)
    5414:	4601                	li	a2,0
    5416:	4591                	li	a1,4
    5418:	f05ff0ef          	jal	ra,531c <std>
    541c:	4408                	lw	a0,8(s0)
    541e:	4605                	li	a2,1
    5420:	45a5                	li	a1,9
    5422:	efbff0ef          	jal	ra,531c <std>
    5426:	4448                	lw	a0,12(s0)
    5428:	4609                	li	a2,2
    542a:	45c9                	li	a1,18
    542c:	ef1ff0ef          	jal	ra,531c <std>
    5430:	4785                	li	a5,1
    5432:	cc1c                	sw	a5,24(s0)
    5434:	40b2                	lw	ra,12(sp)
    5436:	4422                	lw	s0,8(sp)
    5438:	0141                	addi	sp,sp,16
    543a:	8082                	ret
    543c:	8082                	ret

0000543e <__sfp>:
    543e:	1141                	addi	sp,sp,-16
    5440:	81c18793          	addi	a5,gp,-2020 # 200000cc <_global_impure_ptr>
    5444:	c226                	sw	s1,4(sp)
    5446:	4384                	lw	s1,0(a5)
    5448:	c04a                	sw	s2,0(sp)
    544a:	c606                	sw	ra,12(sp)
    544c:	4c9c                	lw	a5,24(s1)
    544e:	c422                	sw	s0,8(sp)
    5450:	892a                	mv	s2,a0
    5452:	e781                	bnez	a5,545a <__sfp+0x1c>
    5454:	8526                	mv	a0,s1
    5456:	f7dff0ef          	jal	ra,53d2 <__sinit>
    545a:	04848493          	addi	s1,s1,72
    545e:	4480                	lw	s0,8(s1)
    5460:	40dc                	lw	a5,4(s1)
    5462:	17fd                	addi	a5,a5,-1
    5464:	0007d663          	bgez	a5,5470 <__sfp+0x32>
    5468:	409c                	lw	a5,0(s1)
    546a:	cfb9                	beqz	a5,54c8 <__sfp+0x8a>
    546c:	4084                	lw	s1,0(s1)
    546e:	bfc5                	j	545e <__sfp+0x20>
    5470:	00c41703          	lh	a4,12(s0)
    5474:	e739                	bnez	a4,54c2 <__sfp+0x84>
    5476:	77c1                	lui	a5,0xffff0
    5478:	0785                	addi	a5,a5,1
    547a:	06042223          	sw	zero,100(s0)
    547e:	00042023          	sw	zero,0(s0)
    5482:	00042223          	sw	zero,4(s0)
    5486:	00042423          	sw	zero,8(s0)
    548a:	c45c                	sw	a5,12(s0)
    548c:	00042823          	sw	zero,16(s0)
    5490:	00042a23          	sw	zero,20(s0)
    5494:	00042c23          	sw	zero,24(s0)
    5498:	4621                	li	a2,8
    549a:	4581                	li	a1,0
    549c:	05c40513          	addi	a0,s0,92
    54a0:	e0ffa0ef          	jal	ra,2ae <memset>
    54a4:	02042a23          	sw	zero,52(s0)
    54a8:	02042c23          	sw	zero,56(s0)
    54ac:	04042423          	sw	zero,72(s0)
    54b0:	04042623          	sw	zero,76(s0)
    54b4:	8522                	mv	a0,s0
    54b6:	40b2                	lw	ra,12(sp)
    54b8:	4422                	lw	s0,8(sp)
    54ba:	4492                	lw	s1,4(sp)
    54bc:	4902                	lw	s2,0(sp)
    54be:	0141                	addi	sp,sp,16
    54c0:	8082                	ret
    54c2:	06840413          	addi	s0,s0,104
    54c6:	bf71                	j	5462 <__sfp+0x24>
    54c8:	4591                	li	a1,4
    54ca:	854a                	mv	a0,s2
    54cc:	ec1ff0ef          	jal	ra,538c <__sfmoreglue>
    54d0:	c088                	sw	a0,0(s1)
    54d2:	fd49                	bnez	a0,546c <__sfp+0x2e>
    54d4:	47b1                	li	a5,12
    54d6:	00f92023          	sw	a5,0(s2)
    54da:	4401                	li	s0,0
    54dc:	bfe1                	j	54b4 <__sfp+0x76>

000054de <_fwalk_reent>:
    54de:	7179                	addi	sp,sp,-48
    54e0:	d422                	sw	s0,40(sp)
    54e2:	d04a                	sw	s2,32(sp)
    54e4:	cc52                	sw	s4,24(sp)
    54e6:	ca56                	sw	s5,20(sp)
    54e8:	c85a                	sw	s6,16(sp)
    54ea:	c65e                	sw	s7,12(sp)
    54ec:	d606                	sw	ra,44(sp)
    54ee:	d226                	sw	s1,36(sp)
    54f0:	ce4e                	sw	s3,28(sp)
    54f2:	8a2a                	mv	s4,a0
    54f4:	8aae                	mv	s5,a1
    54f6:	04850413          	addi	s0,a0,72
    54fa:	4901                	li	s2,0
    54fc:	4b05                	li	s6,1
    54fe:	5bfd                	li	s7,-1
    5500:	ec09                	bnez	s0,551a <_fwalk_reent+0x3c>
    5502:	50b2                	lw	ra,44(sp)
    5504:	5422                	lw	s0,40(sp)
    5506:	854a                	mv	a0,s2
    5508:	5492                	lw	s1,36(sp)
    550a:	5902                	lw	s2,32(sp)
    550c:	49f2                	lw	s3,28(sp)
    550e:	4a62                	lw	s4,24(sp)
    5510:	4ad2                	lw	s5,20(sp)
    5512:	4b42                	lw	s6,16(sp)
    5514:	4bb2                	lw	s7,12(sp)
    5516:	6145                	addi	sp,sp,48
    5518:	8082                	ret
    551a:	4404                	lw	s1,8(s0)
    551c:	00442983          	lw	s3,4(s0)
    5520:	19fd                	addi	s3,s3,-1
    5522:	0009d463          	bgez	s3,552a <_fwalk_reent+0x4c>
    5526:	4000                	lw	s0,0(s0)
    5528:	bfe1                	j	5500 <_fwalk_reent+0x22>
    552a:	24de                	lhu	a5,12(s1)
    552c:	00fb7b63          	bgeu	s6,a5,5542 <_fwalk_reent+0x64>
    5530:	00e49783          	lh	a5,14(s1)
    5534:	01778763          	beq	a5,s7,5542 <_fwalk_reent+0x64>
    5538:	85a6                	mv	a1,s1
    553a:	8552                	mv	a0,s4
    553c:	9a82                	jalr	s5
    553e:	00a96933          	or	s2,s2,a0
    5542:	06848493          	addi	s1,s1,104
    5546:	bfe9                	j	5520 <_fwalk_reent+0x42>

00005548 <__swhatbuf_r>:
    5548:	7119                	addi	sp,sp,-128
    554a:	daa6                	sw	s1,116(sp)
    554c:	84ae                	mv	s1,a1
    554e:	00e59583          	lh	a1,14(a1)
    5552:	dca2                	sw	s0,120(sp)
    5554:	de86                	sw	ra,124(sp)
    5556:	8432                	mv	s0,a2
    5558:	0005db63          	bgez	a1,556e <__swhatbuf_r+0x26>
    555c:	24de                	lhu	a5,12(s1)
    555e:	0006a023          	sw	zero,0(a3)
    5562:	0807f793          	andi	a5,a5,128
    5566:	e785                	bnez	a5,558e <__swhatbuf_r+0x46>
    5568:	40000793          	li	a5,1024
    556c:	a01d                	j	5592 <__swhatbuf_r+0x4a>
    556e:	0830                	addi	a2,sp,24
    5570:	c636                	sw	a3,12(sp)
    5572:	19d000ef          	jal	ra,5f0e <_fstat_r>
    5576:	46b2                	lw	a3,12(sp)
    5578:	fe0542e3          	bltz	a0,555c <__swhatbuf_r+0x14>
    557c:	4772                	lw	a4,28(sp)
    557e:	67bd                	lui	a5,0xf
    5580:	8ff9                	and	a5,a5,a4
    5582:	7779                	lui	a4,0xffffe
    5584:	97ba                	add	a5,a5,a4
    5586:	0017b793          	seqz	a5,a5
    558a:	c29c                	sw	a5,0(a3)
    558c:	bff1                	j	5568 <__swhatbuf_r+0x20>
    558e:	04000793          	li	a5,64
    5592:	c01c                	sw	a5,0(s0)
    5594:	50f6                	lw	ra,124(sp)
    5596:	5466                	lw	s0,120(sp)
    5598:	54d6                	lw	s1,116(sp)
    559a:	4501                	li	a0,0
    559c:	6109                	addi	sp,sp,128
    559e:	8082                	ret

000055a0 <__smakebuf_r>:
    55a0:	25de                	lhu	a5,12(a1)
    55a2:	1101                	addi	sp,sp,-32
    55a4:	cc22                	sw	s0,24(sp)
    55a6:	ce06                	sw	ra,28(sp)
    55a8:	ca26                	sw	s1,20(sp)
    55aa:	c84a                	sw	s2,16(sp)
    55ac:	8b89                	andi	a5,a5,2
    55ae:	842e                	mv	s0,a1
    55b0:	cf89                	beqz	a5,55ca <__smakebuf_r+0x2a>
    55b2:	04740793          	addi	a5,s0,71
    55b6:	c01c                	sw	a5,0(s0)
    55b8:	c81c                	sw	a5,16(s0)
    55ba:	4785                	li	a5,1
    55bc:	c85c                	sw	a5,20(s0)
    55be:	40f2                	lw	ra,28(sp)
    55c0:	4462                	lw	s0,24(sp)
    55c2:	44d2                	lw	s1,20(sp)
    55c4:	4942                	lw	s2,16(sp)
    55c6:	6105                	addi	sp,sp,32
    55c8:	8082                	ret
    55ca:	0074                	addi	a3,sp,12
    55cc:	0030                	addi	a2,sp,8
    55ce:	84aa                	mv	s1,a0
    55d0:	f79ff0ef          	jal	ra,5548 <__swhatbuf_r>
    55d4:	45a2                	lw	a1,8(sp)
    55d6:	892a                	mv	s2,a0
    55d8:	8526                	mv	a0,s1
    55da:	2415                	jal	57fe <_malloc_r>
    55dc:	e919                	bnez	a0,55f2 <__smakebuf_r+0x52>
    55de:	00c41783          	lh	a5,12(s0)
    55e2:	2007f713          	andi	a4,a5,512
    55e6:	ff61                	bnez	a4,55be <__smakebuf_r+0x1e>
    55e8:	9bf1                	andi	a5,a5,-4
    55ea:	0027e793          	ori	a5,a5,2
    55ee:	a45e                	sh	a5,12(s0)
    55f0:	b7c9                	j	55b2 <__smakebuf_r+0x12>
    55f2:	00000797          	auipc	a5,0x0
    55f6:	d9078793          	addi	a5,a5,-624 # 5382 <_cleanup_r>
    55fa:	d49c                	sw	a5,40(s1)
    55fc:	245e                	lhu	a5,12(s0)
    55fe:	c008                	sw	a0,0(s0)
    5600:	c808                	sw	a0,16(s0)
    5602:	0807e793          	ori	a5,a5,128
    5606:	a45e                	sh	a5,12(s0)
    5608:	47a2                	lw	a5,8(sp)
    560a:	c85c                	sw	a5,20(s0)
    560c:	47b2                	lw	a5,12(sp)
    560e:	cf81                	beqz	a5,5626 <__smakebuf_r+0x86>
    5610:	00e41583          	lh	a1,14(s0)
    5614:	8526                	mv	a0,s1
    5616:	12d000ef          	jal	ra,5f42 <_isatty_r>
    561a:	c511                	beqz	a0,5626 <__smakebuf_r+0x86>
    561c:	245e                	lhu	a5,12(s0)
    561e:	9bf1                	andi	a5,a5,-4
    5620:	0017e793          	ori	a5,a5,1
    5624:	a45e                	sh	a5,12(s0)
    5626:	245e                	lhu	a5,12(s0)
    5628:	00f96933          	or	s2,s2,a5
    562c:	01241623          	sh	s2,12(s0)
    5630:	b779                	j	55be <__smakebuf_r+0x1e>

00005632 <malloc>:
    5632:	81418793          	addi	a5,gp,-2028 # 200000c4 <_impure_ptr>
    5636:	85aa                	mv	a1,a0
    5638:	4388                	lw	a0,0(a5)
    563a:	a2d1                	j	57fe <_malloc_r>

0000563c <free>:
    563c:	81418793          	addi	a5,gp,-2028 # 200000c4 <_impure_ptr>
    5640:	85aa                	mv	a1,a0
    5642:	4388                	lw	a0,0(a5)
    5644:	aa09                	j	5756 <_free_r>

00005646 <memchr>:
    5646:	0ff5f593          	andi	a1,a1,255
    564a:	962a                	add	a2,a2,a0
    564c:	00c51463          	bne	a0,a2,5654 <memchr+0xe>
    5650:	4501                	li	a0,0
    5652:	8082                	ret
    5654:	211c                	lbu	a5,0(a0)
    5656:	feb78ee3          	beq	a5,a1,5652 <memchr+0xc>
    565a:	0505                	addi	a0,a0,1
    565c:	bfc5                	j	564c <memchr+0x6>

0000565e <memcpy>:
    565e:	00a5c7b3          	xor	a5,a1,a0
    5662:	8b8d                	andi	a5,a5,3
    5664:	00c50733          	add	a4,a0,a2
    5668:	e781                	bnez	a5,5670 <memcpy+0x12>
    566a:	478d                	li	a5,3
    566c:	00c7ed63          	bltu	a5,a2,5686 <memcpy+0x28>
    5670:	87aa                	mv	a5,a0
    5672:	08e57e63          	bgeu	a0,a4,570e <memcpy+0xb0>
    5676:	2194                	lbu	a3,0(a1)
    5678:	0785                	addi	a5,a5,1
    567a:	0585                	addi	a1,a1,1
    567c:	fed78fa3          	sb	a3,-1(a5)
    5680:	fee7ebe3          	bltu	a5,a4,5676 <memcpy+0x18>
    5684:	8082                	ret
    5686:	00357693          	andi	a3,a0,3
    568a:	87aa                	mv	a5,a0
    568c:	ca89                	beqz	a3,569e <memcpy+0x40>
    568e:	2194                	lbu	a3,0(a1)
    5690:	0785                	addi	a5,a5,1
    5692:	0585                	addi	a1,a1,1
    5694:	fed78fa3          	sb	a3,-1(a5)
    5698:	0037f693          	andi	a3,a5,3
    569c:	bfc5                	j	568c <memcpy+0x2e>
    569e:	ffc77693          	andi	a3,a4,-4
    56a2:	fe068613          	addi	a2,a3,-32
    56a6:	06c7f063          	bgeu	a5,a2,5706 <memcpy+0xa8>
    56aa:	0005a383          	lw	t2,0(a1)
    56ae:	0045a283          	lw	t0,4(a1)
    56b2:	0085af83          	lw	t6,8(a1)
    56b6:	00c5af03          	lw	t5,12(a1)
    56ba:	0105ae83          	lw	t4,16(a1)
    56be:	0145ae03          	lw	t3,20(a1)
    56c2:	0185a303          	lw	t1,24(a1)
    56c6:	01c5a883          	lw	a7,28(a1)
    56ca:	02458593          	addi	a1,a1,36
    56ce:	0077a023          	sw	t2,0(a5)
    56d2:	ffc5a803          	lw	a6,-4(a1)
    56d6:	0057a223          	sw	t0,4(a5)
    56da:	01f7a423          	sw	t6,8(a5)
    56de:	01e7a623          	sw	t5,12(a5)
    56e2:	01d7a823          	sw	t4,16(a5)
    56e6:	01c7aa23          	sw	t3,20(a5)
    56ea:	0067ac23          	sw	t1,24(a5)
    56ee:	0117ae23          	sw	a7,28(a5)
    56f2:	02478793          	addi	a5,a5,36
    56f6:	ff07ae23          	sw	a6,-4(a5)
    56fa:	b775                	j	56a6 <memcpy+0x48>
    56fc:	4190                	lw	a2,0(a1)
    56fe:	0791                	addi	a5,a5,4
    5700:	0591                	addi	a1,a1,4
    5702:	fec7ae23          	sw	a2,-4(a5)
    5706:	fed7ebe3          	bltu	a5,a3,56fc <memcpy+0x9e>
    570a:	f6e7e6e3          	bltu	a5,a4,5676 <memcpy+0x18>
    570e:	8082                	ret

00005710 <memmove>:
    5710:	04a5f163          	bgeu	a1,a0,5752 <memmove+0x42>
    5714:	00c586b3          	add	a3,a1,a2
    5718:	02d57d63          	bgeu	a0,a3,5752 <memmove+0x42>
    571c:	fff64593          	not	a1,a2
    5720:	4781                	li	a5,0
    5722:	17fd                	addi	a5,a5,-1
    5724:	00f59363          	bne	a1,a5,572a <memmove+0x1a>
    5728:	8082                	ret
    572a:	00f68733          	add	a4,a3,a5
    572e:	00074803          	lbu	a6,0(a4) # ffffe000 <_eusrstack+0xdffee000>
    5732:	00c78733          	add	a4,a5,a2
    5736:	972a                	add	a4,a4,a0
    5738:	01070023          	sb	a6,0(a4)
    573c:	b7dd                	j	5722 <memmove+0x12>
    573e:	00f58733          	add	a4,a1,a5
    5742:	2314                	lbu	a3,0(a4)
    5744:	00f50733          	add	a4,a0,a5
    5748:	0785                	addi	a5,a5,1
    574a:	a314                	sb	a3,0(a4)
    574c:	fef619e3          	bne	a2,a5,573e <memmove+0x2e>
    5750:	8082                	ret
    5752:	4781                	li	a5,0
    5754:	bfe5                	j	574c <memmove+0x3c>

00005756 <_free_r>:
    5756:	c1dd                	beqz	a1,57fc <_free_r+0xa6>
    5758:	ffc5a783          	lw	a5,-4(a1)
    575c:	1141                	addi	sp,sp,-16
    575e:	c422                	sw	s0,8(sp)
    5760:	c606                	sw	ra,12(sp)
    5762:	c226                	sw	s1,4(sp)
    5764:	ffc58413          	addi	s0,a1,-4
    5768:	0007d363          	bgez	a5,576e <_free_r+0x18>
    576c:	943e                	add	s0,s0,a5
    576e:	84aa                	mv	s1,a0
    5770:	03b000ef          	jal	ra,5faa <__malloc_lock>
    5774:	8f818793          	addi	a5,gp,-1800 # 200001a8 <__malloc_free_list>
    5778:	439c                	lw	a5,0(a5)
    577a:	ef81                	bnez	a5,5792 <_free_r+0x3c>
    577c:	00042223          	sw	zero,4(s0)
    5780:	8e81ac23          	sw	s0,-1800(gp) # 200001a8 <__malloc_free_list>
    5784:	4422                	lw	s0,8(sp)
    5786:	40b2                	lw	ra,12(sp)
    5788:	8526                	mv	a0,s1
    578a:	4492                	lw	s1,4(sp)
    578c:	0141                	addi	sp,sp,16
    578e:	01f0006f          	j	5fac <__malloc_unlock>
    5792:	00f47e63          	bgeu	s0,a5,57ae <_free_r+0x58>
    5796:	4014                	lw	a3,0(s0)
    5798:	00d40733          	add	a4,s0,a3
    579c:	00e79663          	bne	a5,a4,57a8 <_free_r+0x52>
    57a0:	4398                	lw	a4,0(a5)
    57a2:	43dc                	lw	a5,4(a5)
    57a4:	9736                	add	a4,a4,a3
    57a6:	c018                	sw	a4,0(s0)
    57a8:	c05c                	sw	a5,4(s0)
    57aa:	bfd9                	j	5780 <_free_r+0x2a>
    57ac:	87ba                	mv	a5,a4
    57ae:	43d8                	lw	a4,4(a5)
    57b0:	c319                	beqz	a4,57b6 <_free_r+0x60>
    57b2:	fee47de3          	bgeu	s0,a4,57ac <_free_r+0x56>
    57b6:	4394                	lw	a3,0(a5)
    57b8:	00d78633          	add	a2,a5,a3
    57bc:	00861f63          	bne	a2,s0,57da <_free_r+0x84>
    57c0:	4010                	lw	a2,0(s0)
    57c2:	96b2                	add	a3,a3,a2
    57c4:	c394                	sw	a3,0(a5)
    57c6:	00d78633          	add	a2,a5,a3
    57ca:	fac71de3          	bne	a4,a2,5784 <_free_r+0x2e>
    57ce:	4310                	lw	a2,0(a4)
    57d0:	4358                	lw	a4,4(a4)
    57d2:	96b2                	add	a3,a3,a2
    57d4:	c394                	sw	a3,0(a5)
    57d6:	c3d8                	sw	a4,4(a5)
    57d8:	b775                	j	5784 <_free_r+0x2e>
    57da:	00c47563          	bgeu	s0,a2,57e4 <_free_r+0x8e>
    57de:	47b1                	li	a5,12
    57e0:	c09c                	sw	a5,0(s1)
    57e2:	b74d                	j	5784 <_free_r+0x2e>
    57e4:	4010                	lw	a2,0(s0)
    57e6:	00c406b3          	add	a3,s0,a2
    57ea:	00d71663          	bne	a4,a3,57f6 <_free_r+0xa0>
    57ee:	4314                	lw	a3,0(a4)
    57f0:	4358                	lw	a4,4(a4)
    57f2:	96b2                	add	a3,a3,a2
    57f4:	c014                	sw	a3,0(s0)
    57f6:	c058                	sw	a4,4(s0)
    57f8:	c3c0                	sw	s0,4(a5)
    57fa:	b769                	j	5784 <_free_r+0x2e>
    57fc:	8082                	ret

000057fe <_malloc_r>:
    57fe:	1101                	addi	sp,sp,-32
    5800:	ca26                	sw	s1,20(sp)
    5802:	00358493          	addi	s1,a1,3
    5806:	98f1                	andi	s1,s1,-4
    5808:	ce06                	sw	ra,28(sp)
    580a:	cc22                	sw	s0,24(sp)
    580c:	c84a                	sw	s2,16(sp)
    580e:	c64e                	sw	s3,12(sp)
    5810:	04a1                	addi	s1,s1,8
    5812:	47b1                	li	a5,12
    5814:	04f4f363          	bgeu	s1,a5,585a <_malloc_r+0x5c>
    5818:	44b1                	li	s1,12
    581a:	04b4e263          	bltu	s1,a1,585e <_malloc_r+0x60>
    581e:	892a                	mv	s2,a0
    5820:	78a000ef          	jal	ra,5faa <__malloc_lock>
    5824:	8f818793          	addi	a5,gp,-1800 # 200001a8 <__malloc_free_list>
    5828:	4398                	lw	a4,0(a5)
    582a:	843a                	mv	s0,a4
    582c:	e039                	bnez	s0,5872 <_malloc_r+0x74>
    582e:	8fc18793          	addi	a5,gp,-1796 # 200001ac <__malloc_sbrk_start>
    5832:	439c                	lw	a5,0(a5)
    5834:	e791                	bnez	a5,5840 <_malloc_r+0x42>
    5836:	4581                	li	a1,0
    5838:	854a                	mv	a0,s2
    583a:	2a75                	jal	59f6 <_sbrk_r>
    583c:	8ea1ae23          	sw	a0,-1796(gp) # 200001ac <__malloc_sbrk_start>
    5840:	85a6                	mv	a1,s1
    5842:	854a                	mv	a0,s2
    5844:	2a4d                	jal	59f6 <_sbrk_r>
    5846:	59fd                	li	s3,-1
    5848:	07351863          	bne	a0,s3,58b8 <_malloc_r+0xba>
    584c:	47b1                	li	a5,12
    584e:	00f92023          	sw	a5,0(s2)
    5852:	854a                	mv	a0,s2
    5854:	758000ef          	jal	ra,5fac <__malloc_unlock>
    5858:	a029                	j	5862 <_malloc_r+0x64>
    585a:	fc04d0e3          	bgez	s1,581a <_malloc_r+0x1c>
    585e:	47b1                	li	a5,12
    5860:	c11c                	sw	a5,0(a0)
    5862:	4501                	li	a0,0
    5864:	40f2                	lw	ra,28(sp)
    5866:	4462                	lw	s0,24(sp)
    5868:	44d2                	lw	s1,20(sp)
    586a:	4942                	lw	s2,16(sp)
    586c:	49b2                	lw	s3,12(sp)
    586e:	6105                	addi	sp,sp,32
    5870:	8082                	ret
    5872:	401c                	lw	a5,0(s0)
    5874:	8f85                	sub	a5,a5,s1
    5876:	0207ce63          	bltz	a5,58b2 <_malloc_r+0xb4>
    587a:	46ad                	li	a3,11
    587c:	00f6f663          	bgeu	a3,a5,5888 <_malloc_r+0x8a>
    5880:	c01c                	sw	a5,0(s0)
    5882:	943e                	add	s0,s0,a5
    5884:	c004                	sw	s1,0(s0)
    5886:	a031                	j	5892 <_malloc_r+0x94>
    5888:	405c                	lw	a5,4(s0)
    588a:	02871263          	bne	a4,s0,58ae <_malloc_r+0xb0>
    588e:	8ef1ac23          	sw	a5,-1800(gp) # 200001a8 <__malloc_free_list>
    5892:	854a                	mv	a0,s2
    5894:	2f21                	jal	5fac <__malloc_unlock>
    5896:	00b40513          	addi	a0,s0,11
    589a:	00440793          	addi	a5,s0,4
    589e:	9961                	andi	a0,a0,-8
    58a0:	40f50733          	sub	a4,a0,a5
    58a4:	d361                	beqz	a4,5864 <_malloc_r+0x66>
    58a6:	943a                	add	s0,s0,a4
    58a8:	8f89                	sub	a5,a5,a0
    58aa:	c01c                	sw	a5,0(s0)
    58ac:	bf65                	j	5864 <_malloc_r+0x66>
    58ae:	c35c                	sw	a5,4(a4)
    58b0:	b7cd                	j	5892 <_malloc_r+0x94>
    58b2:	8722                	mv	a4,s0
    58b4:	4040                	lw	s0,4(s0)
    58b6:	bf9d                	j	582c <_malloc_r+0x2e>
    58b8:	00350413          	addi	s0,a0,3
    58bc:	9871                	andi	s0,s0,-4
    58be:	fc8503e3          	beq	a0,s0,5884 <_malloc_r+0x86>
    58c2:	40a405b3          	sub	a1,s0,a0
    58c6:	854a                	mv	a0,s2
    58c8:	223d                	jal	59f6 <_sbrk_r>
    58ca:	fb351de3          	bne	a0,s3,5884 <_malloc_r+0x86>
    58ce:	bfbd                	j	584c <_malloc_r+0x4e>

000058d0 <iprintf>:
    58d0:	7139                	addi	sp,sp,-64
    58d2:	da3e                	sw	a5,52(sp)
    58d4:	d22e                	sw	a1,36(sp)
    58d6:	d432                	sw	a2,40(sp)
    58d8:	d636                	sw	a3,44(sp)
    58da:	d83a                	sw	a4,48(sp)
    58dc:	dc42                	sw	a6,56(sp)
    58de:	de46                	sw	a7,60(sp)
    58e0:	81418793          	addi	a5,gp,-2028 # 200000c4 <_impure_ptr>
    58e4:	cc22                	sw	s0,24(sp)
    58e6:	4380                	lw	s0,0(a5)
    58e8:	ca26                	sw	s1,20(sp)
    58ea:	ce06                	sw	ra,28(sp)
    58ec:	84aa                	mv	s1,a0
    58ee:	c411                	beqz	s0,58fa <iprintf+0x2a>
    58f0:	4c1c                	lw	a5,24(s0)
    58f2:	e781                	bnez	a5,58fa <iprintf+0x2a>
    58f4:	8522                	mv	a0,s0
    58f6:	addff0ef          	jal	ra,53d2 <__sinit>
    58fa:	440c                	lw	a1,8(s0)
    58fc:	1054                	addi	a3,sp,36
    58fe:	8626                	mv	a2,s1
    5900:	8522                	mv	a0,s0
    5902:	c636                	sw	a3,12(sp)
    5904:	2bd000ef          	jal	ra,63c0 <_vfiprintf_r>
    5908:	40f2                	lw	ra,28(sp)
    590a:	4462                	lw	s0,24(sp)
    590c:	44d2                	lw	s1,20(sp)
    590e:	6121                	addi	sp,sp,64
    5910:	8082                	ret

00005912 <_puts_r>:
    5912:	1101                	addi	sp,sp,-32
    5914:	ca26                	sw	s1,20(sp)
    5916:	c84a                	sw	s2,16(sp)
    5918:	ce06                	sw	ra,28(sp)
    591a:	cc22                	sw	s0,24(sp)
    591c:	c64e                	sw	s3,12(sp)
    591e:	c452                	sw	s4,8(sp)
    5920:	84aa                	mv	s1,a0
    5922:	892e                	mv	s2,a1
    5924:	c509                	beqz	a0,592e <_puts_r+0x1c>
    5926:	4d1c                	lw	a5,24(a0)
    5928:	e399                	bnez	a5,592e <_puts_r+0x1c>
    592a:	aa9ff0ef          	jal	ra,53d2 <__sinit>
    592e:	4c9c                	lw	a5,24(s1)
    5930:	4480                	lw	s0,8(s1)
    5932:	e781                	bnez	a5,593a <_puts_r+0x28>
    5934:	8526                	mv	a0,s1
    5936:	a9dff0ef          	jal	ra,53d2 <__sinit>
    593a:	00002797          	auipc	a5,0x2
    593e:	29678793          	addi	a5,a5,662 # 7bd0 <__sf_fake_stdin>
    5942:	02f41b63          	bne	s0,a5,5978 <_puts_r+0x66>
    5946:	40c0                	lw	s0,4(s1)
    5948:	245e                	lhu	a5,12(s0)
    594a:	8ba1                	andi	a5,a5,8
    594c:	c7b1                	beqz	a5,5998 <_puts_r+0x86>
    594e:	481c                	lw	a5,16(s0)
    5950:	c7a1                	beqz	a5,5998 <_puts_r+0x86>
    5952:	59fd                	li	s3,-1
    5954:	4a29                	li	s4,10
    5956:	441c                	lw	a5,8(s0)
    5958:	00094583          	lbu	a1,0(s2)
    595c:	17fd                	addi	a5,a5,-1
    595e:	e9b1                	bnez	a1,59b2 <_puts_r+0xa0>
    5960:	c41c                	sw	a5,8(s0)
    5962:	0607dd63          	bgez	a5,59dc <_puts_r+0xca>
    5966:	8622                	mv	a2,s0
    5968:	45a9                	li	a1,10
    596a:	8526                	mv	a0,s1
    596c:	22c5                	jal	5b4c <__swbuf_r>
    596e:	57fd                	li	a5,-1
    5970:	02f50863          	beq	a0,a5,59a0 <_puts_r+0x8e>
    5974:	4529                	li	a0,10
    5976:	a035                	j	59a2 <_puts_r+0x90>
    5978:	00002797          	auipc	a5,0x2
    597c:	27878793          	addi	a5,a5,632 # 7bf0 <__sf_fake_stdout>
    5980:	00f41463          	bne	s0,a5,5988 <_puts_r+0x76>
    5984:	4480                	lw	s0,8(s1)
    5986:	b7c9                	j	5948 <_puts_r+0x36>
    5988:	00002797          	auipc	a5,0x2
    598c:	22878793          	addi	a5,a5,552 # 7bb0 <__sf_fake_stderr>
    5990:	faf41ce3          	bne	s0,a5,5948 <_puts_r+0x36>
    5994:	44c0                	lw	s0,12(s1)
    5996:	bf4d                	j	5948 <_puts_r+0x36>
    5998:	85a2                	mv	a1,s0
    599a:	8526                	mv	a0,s1
    599c:	2455                	jal	5c40 <__swsetup_r>
    599e:	d955                	beqz	a0,5952 <_puts_r+0x40>
    59a0:	557d                	li	a0,-1
    59a2:	40f2                	lw	ra,28(sp)
    59a4:	4462                	lw	s0,24(sp)
    59a6:	44d2                	lw	s1,20(sp)
    59a8:	4942                	lw	s2,16(sp)
    59aa:	49b2                	lw	s3,12(sp)
    59ac:	4a22                	lw	s4,8(sp)
    59ae:	6105                	addi	sp,sp,32
    59b0:	8082                	ret
    59b2:	c41c                	sw	a5,8(s0)
    59b4:	0905                	addi	s2,s2,1
    59b6:	0007d763          	bgez	a5,59c4 <_puts_r+0xb2>
    59ba:	4c18                	lw	a4,24(s0)
    59bc:	00e7ca63          	blt	a5,a4,59d0 <_puts_r+0xbe>
    59c0:	01458863          	beq	a1,s4,59d0 <_puts_r+0xbe>
    59c4:	401c                	lw	a5,0(s0)
    59c6:	00178713          	addi	a4,a5,1
    59ca:	c018                	sw	a4,0(s0)
    59cc:	a38c                	sb	a1,0(a5)
    59ce:	b761                	j	5956 <_puts_r+0x44>
    59d0:	8622                	mv	a2,s0
    59d2:	8526                	mv	a0,s1
    59d4:	2aa5                	jal	5b4c <__swbuf_r>
    59d6:	f93510e3          	bne	a0,s3,5956 <_puts_r+0x44>
    59da:	b7d9                	j	59a0 <_puts_r+0x8e>
    59dc:	401c                	lw	a5,0(s0)
    59de:	00178713          	addi	a4,a5,1
    59e2:	c018                	sw	a4,0(s0)
    59e4:	4729                	li	a4,10
    59e6:	a398                	sb	a4,0(a5)
    59e8:	b771                	j	5974 <_puts_r+0x62>

000059ea <puts>:
    59ea:	81418793          	addi	a5,gp,-2028 # 200000c4 <_impure_ptr>
    59ee:	85aa                	mv	a1,a0
    59f0:	4388                	lw	a0,0(a5)
    59f2:	f21ff06f          	j	5912 <_puts_r>

000059f6 <_sbrk_r>:
    59f6:	1141                	addi	sp,sp,-16
    59f8:	c422                	sw	s0,8(sp)
    59fa:	842a                	mv	s0,a0
    59fc:	852e                	mv	a0,a1
    59fe:	20003797          	auipc	a5,0x20003
    5a02:	da07a123          	sw	zero,-606(a5) # 200087a0 <errno>
    5a06:	c606                	sw	ra,12(sp)
    5a08:	94eff0ef          	jal	ra,4b56 <_sbrk>
    5a0c:	57fd                	li	a5,-1
    5a0e:	00f51963          	bne	a0,a5,5a20 <_sbrk_r+0x2a>
    5a12:	20003797          	auipc	a5,0x20003
    5a16:	d8e78793          	addi	a5,a5,-626 # 200087a0 <errno>
    5a1a:	439c                	lw	a5,0(a5)
    5a1c:	c391                	beqz	a5,5a20 <_sbrk_r+0x2a>
    5a1e:	c01c                	sw	a5,0(s0)
    5a20:	40b2                	lw	ra,12(sp)
    5a22:	4422                	lw	s0,8(sp)
    5a24:	0141                	addi	sp,sp,16
    5a26:	8082                	ret

00005a28 <siprintf>:
    5a28:	7135                	addi	sp,sp,-160
    5a2a:	cb3e                	sw	a5,148(sp)
    5a2c:	800007b7          	lui	a5,0x80000
    5a30:	fff7c793          	not	a5,a5
    5a34:	ce3e                	sw	a5,28(sp)
    5a36:	c83e                	sw	a5,16(sp)
    5a38:	77c1                	lui	a5,0xffff0
    5a3a:	20878793          	addi	a5,a5,520 # ffff0208 <_eusrstack+0xdffe0208>
    5a3e:	c532                	sw	a2,136(sp)
    5a40:	c736                	sw	a3,140(sp)
    5a42:	c93a                	sw	a4,144(sp)
    5a44:	cd42                	sw	a6,152(sp)
    5a46:	cf46                	sw	a7,156(sp)
    5a48:	ca3e                	sw	a5,20(sp)
    5a4a:	81418793          	addi	a5,gp,-2028 # 200000c4 <_impure_ptr>
    5a4e:	c42a                	sw	a0,8(sp)
    5a50:	cc2a                	sw	a0,24(sp)
    5a52:	4388                	lw	a0,0(a5)
    5a54:	0134                	addi	a3,sp,136
    5a56:	862e                	mv	a2,a1
    5a58:	002c                	addi	a1,sp,8
    5a5a:	de86                	sw	ra,124(sp)
    5a5c:	c236                	sw	a3,4(sp)
    5a5e:	2579                	jal	60ec <_svfiprintf_r>
    5a60:	47a2                	lw	a5,8(sp)
    5a62:	00078023          	sb	zero,0(a5)
    5a66:	50f6                	lw	ra,124(sp)
    5a68:	610d                	addi	sp,sp,160
    5a6a:	8082                	ret

00005a6c <__sread>:
    5a6c:	1141                	addi	sp,sp,-16
    5a6e:	c422                	sw	s0,8(sp)
    5a70:	842e                	mv	s0,a1
    5a72:	00e59583          	lh	a1,14(a1)
    5a76:	c606                	sw	ra,12(sp)
    5a78:	787000ef          	jal	ra,69fe <_read_r>
    5a7c:	00054963          	bltz	a0,5a8e <__sread+0x22>
    5a80:	487c                	lw	a5,84(s0)
    5a82:	97aa                	add	a5,a5,a0
    5a84:	c87c                	sw	a5,84(s0)
    5a86:	40b2                	lw	ra,12(sp)
    5a88:	4422                	lw	s0,8(sp)
    5a8a:	0141                	addi	sp,sp,16
    5a8c:	8082                	ret
    5a8e:	245e                	lhu	a5,12(s0)
    5a90:	777d                	lui	a4,0xfffff
    5a92:	177d                	addi	a4,a4,-1
    5a94:	8ff9                	and	a5,a5,a4
    5a96:	a45e                	sh	a5,12(s0)
    5a98:	b7fd                	j	5a86 <__sread+0x1a>

00005a9a <__swrite>:
    5a9a:	25de                	lhu	a5,12(a1)
    5a9c:	1101                	addi	sp,sp,-32
    5a9e:	cc22                	sw	s0,24(sp)
    5aa0:	ca26                	sw	s1,20(sp)
    5aa2:	c84a                	sw	s2,16(sp)
    5aa4:	c64e                	sw	s3,12(sp)
    5aa6:	ce06                	sw	ra,28(sp)
    5aa8:	1007f793          	andi	a5,a5,256
    5aac:	84aa                	mv	s1,a0
    5aae:	842e                	mv	s0,a1
    5ab0:	8932                	mv	s2,a2
    5ab2:	89b6                	mv	s3,a3
    5ab4:	c791                	beqz	a5,5ac0 <__swrite+0x26>
    5ab6:	00e59583          	lh	a1,14(a1)
    5aba:	4689                	li	a3,2
    5abc:	4601                	li	a2,0
    5abe:	295d                	jal	5f74 <_lseek_r>
    5ac0:	245e                	lhu	a5,12(s0)
    5ac2:	777d                	lui	a4,0xfffff
    5ac4:	177d                	addi	a4,a4,-1
    5ac6:	8ff9                	and	a5,a5,a4
    5ac8:	a45e                	sh	a5,12(s0)
    5aca:	00e41583          	lh	a1,14(s0)
    5ace:	4462                	lw	s0,24(sp)
    5ad0:	40f2                	lw	ra,28(sp)
    5ad2:	86ce                	mv	a3,s3
    5ad4:	864a                	mv	a2,s2
    5ad6:	49b2                	lw	s3,12(sp)
    5ad8:	4942                	lw	s2,16(sp)
    5ada:	8526                	mv	a0,s1
    5adc:	44d2                	lw	s1,20(sp)
    5ade:	6105                	addi	sp,sp,32
    5ae0:	a22d                	j	5c0a <_write_r>

00005ae2 <__sseek>:
    5ae2:	1141                	addi	sp,sp,-16
    5ae4:	c422                	sw	s0,8(sp)
    5ae6:	842e                	mv	s0,a1
    5ae8:	00e59583          	lh	a1,14(a1)
    5aec:	c606                	sw	ra,12(sp)
    5aee:	2159                	jal	5f74 <_lseek_r>
    5af0:	57fd                	li	a5,-1
    5af2:	245a                	lhu	a4,12(s0)
    5af4:	00f51a63          	bne	a0,a5,5b08 <__sseek+0x26>
    5af8:	77fd                	lui	a5,0xfffff
    5afa:	17fd                	addi	a5,a5,-1
    5afc:	8ff9                	and	a5,a5,a4
    5afe:	a45e                	sh	a5,12(s0)
    5b00:	40b2                	lw	ra,12(sp)
    5b02:	4422                	lw	s0,8(sp)
    5b04:	0141                	addi	sp,sp,16
    5b06:	8082                	ret
    5b08:	6785                	lui	a5,0x1
    5b0a:	8fd9                	or	a5,a5,a4
    5b0c:	a45e                	sh	a5,12(s0)
    5b0e:	c868                	sw	a0,84(s0)
    5b10:	bfc5                	j	5b00 <__sseek+0x1e>

00005b12 <__sclose>:
    5b12:	00e59583          	lh	a1,14(a1)
    5b16:	a435                	j	5d42 <_close_r>

00005b18 <strstr>:
    5b18:	2118                	lbu	a4,0(a0)
    5b1a:	219c                	lbu	a5,0(a1)
    5b1c:	e701                	bnez	a4,5b24 <strstr+0xc>
    5b1e:	c391                	beqz	a5,5b22 <strstr+0xa>
    5b20:	4501                	li	a0,0
    5b22:	8082                	ret
    5b24:	4781                	li	a5,0
    5b26:	a039                	j	5b34 <strstr+0x1c>
    5b28:	311c                	lbu	a5,1(a0)
    5b2a:	00150713          	addi	a4,a0,1
    5b2e:	dbed                	beqz	a5,5b20 <strstr+0x8>
    5b30:	4781                	li	a5,0
    5b32:	853a                	mv	a0,a4
    5b34:	00f58733          	add	a4,a1,a5
    5b38:	2318                	lbu	a4,0(a4)
    5b3a:	d765                	beqz	a4,5b22 <strstr+0xa>
    5b3c:	00f506b3          	add	a3,a0,a5
    5b40:	2294                	lbu	a3,0(a3)
    5b42:	fee693e3          	bne	a3,a4,5b28 <strstr+0x10>
    5b46:	0785                	addi	a5,a5,1
    5b48:	872a                	mv	a4,a0
    5b4a:	b7e5                	j	5b32 <strstr+0x1a>

00005b4c <__swbuf_r>:
    5b4c:	1101                	addi	sp,sp,-32
    5b4e:	cc22                	sw	s0,24(sp)
    5b50:	ca26                	sw	s1,20(sp)
    5b52:	c84a                	sw	s2,16(sp)
    5b54:	ce06                	sw	ra,28(sp)
    5b56:	c64e                	sw	s3,12(sp)
    5b58:	84aa                	mv	s1,a0
    5b5a:	892e                	mv	s2,a1
    5b5c:	8432                	mv	s0,a2
    5b5e:	c509                	beqz	a0,5b68 <__swbuf_r+0x1c>
    5b60:	4d1c                	lw	a5,24(a0)
    5b62:	e399                	bnez	a5,5b68 <__swbuf_r+0x1c>
    5b64:	86fff0ef          	jal	ra,53d2 <__sinit>
    5b68:	00002797          	auipc	a5,0x2
    5b6c:	06878793          	addi	a5,a5,104 # 7bd0 <__sf_fake_stdin>
    5b70:	06f41763          	bne	s0,a5,5bde <__swbuf_r+0x92>
    5b74:	40c0                	lw	s0,4(s1)
    5b76:	4c1c                	lw	a5,24(s0)
    5b78:	c41c                	sw	a5,8(s0)
    5b7a:	245e                	lhu	a5,12(s0)
    5b7c:	8ba1                	andi	a5,a5,8
    5b7e:	c3c1                	beqz	a5,5bfe <__swbuf_r+0xb2>
    5b80:	481c                	lw	a5,16(s0)
    5b82:	cfb5                	beqz	a5,5bfe <__swbuf_r+0xb2>
    5b84:	481c                	lw	a5,16(s0)
    5b86:	4008                	lw	a0,0(s0)
    5b88:	0ff97993          	andi	s3,s2,255
    5b8c:	0ff97913          	andi	s2,s2,255
    5b90:	8d1d                	sub	a0,a0,a5
    5b92:	485c                	lw	a5,20(s0)
    5b94:	00f54663          	blt	a0,a5,5ba0 <__swbuf_r+0x54>
    5b98:	85a2                	mv	a1,s0
    5b9a:	8526                	mv	a0,s1
    5b9c:	2629                	jal	5ea6 <_fflush_r>
    5b9e:	e525                	bnez	a0,5c06 <__swbuf_r+0xba>
    5ba0:	441c                	lw	a5,8(s0)
    5ba2:	0505                	addi	a0,a0,1
    5ba4:	17fd                	addi	a5,a5,-1
    5ba6:	c41c                	sw	a5,8(s0)
    5ba8:	401c                	lw	a5,0(s0)
    5baa:	00178713          	addi	a4,a5,1
    5bae:	c018                	sw	a4,0(s0)
    5bb0:	01378023          	sb	s3,0(a5)
    5bb4:	485c                	lw	a5,20(s0)
    5bb6:	00a78863          	beq	a5,a0,5bc6 <__swbuf_r+0x7a>
    5bba:	245e                	lhu	a5,12(s0)
    5bbc:	8b85                	andi	a5,a5,1
    5bbe:	cb81                	beqz	a5,5bce <__swbuf_r+0x82>
    5bc0:	47a9                	li	a5,10
    5bc2:	00f91663          	bne	s2,a5,5bce <__swbuf_r+0x82>
    5bc6:	85a2                	mv	a1,s0
    5bc8:	8526                	mv	a0,s1
    5bca:	2cf1                	jal	5ea6 <_fflush_r>
    5bcc:	ed0d                	bnez	a0,5c06 <__swbuf_r+0xba>
    5bce:	40f2                	lw	ra,28(sp)
    5bd0:	4462                	lw	s0,24(sp)
    5bd2:	854a                	mv	a0,s2
    5bd4:	44d2                	lw	s1,20(sp)
    5bd6:	4942                	lw	s2,16(sp)
    5bd8:	49b2                	lw	s3,12(sp)
    5bda:	6105                	addi	sp,sp,32
    5bdc:	8082                	ret
    5bde:	00002797          	auipc	a5,0x2
    5be2:	01278793          	addi	a5,a5,18 # 7bf0 <__sf_fake_stdout>
    5be6:	00f41463          	bne	s0,a5,5bee <__swbuf_r+0xa2>
    5bea:	4480                	lw	s0,8(s1)
    5bec:	b769                	j	5b76 <__swbuf_r+0x2a>
    5bee:	00002797          	auipc	a5,0x2
    5bf2:	fc278793          	addi	a5,a5,-62 # 7bb0 <__sf_fake_stderr>
    5bf6:	f8f410e3          	bne	s0,a5,5b76 <__swbuf_r+0x2a>
    5bfa:	44c0                	lw	s0,12(s1)
    5bfc:	bfad                	j	5b76 <__swbuf_r+0x2a>
    5bfe:	85a2                	mv	a1,s0
    5c00:	8526                	mv	a0,s1
    5c02:	283d                	jal	5c40 <__swsetup_r>
    5c04:	d141                	beqz	a0,5b84 <__swbuf_r+0x38>
    5c06:	597d                	li	s2,-1
    5c08:	b7d9                	j	5bce <__swbuf_r+0x82>

00005c0a <_write_r>:
    5c0a:	1141                	addi	sp,sp,-16
    5c0c:	c422                	sw	s0,8(sp)
    5c0e:	842a                	mv	s0,a0
    5c10:	852e                	mv	a0,a1
    5c12:	85b2                	mv	a1,a2
    5c14:	8636                	mv	a2,a3
    5c16:	20003797          	auipc	a5,0x20003
    5c1a:	b807a523          	sw	zero,-1142(a5) # 200087a0 <errno>
    5c1e:	c606                	sw	ra,12(sp)
    5c20:	ef9fe0ef          	jal	ra,4b18 <_write>
    5c24:	57fd                	li	a5,-1
    5c26:	00f51963          	bne	a0,a5,5c38 <_write_r+0x2e>
    5c2a:	20003797          	auipc	a5,0x20003
    5c2e:	b7678793          	addi	a5,a5,-1162 # 200087a0 <errno>
    5c32:	439c                	lw	a5,0(a5)
    5c34:	c391                	beqz	a5,5c38 <_write_r+0x2e>
    5c36:	c01c                	sw	a5,0(s0)
    5c38:	40b2                	lw	ra,12(sp)
    5c3a:	4422                	lw	s0,8(sp)
    5c3c:	0141                	addi	sp,sp,16
    5c3e:	8082                	ret

00005c40 <__swsetup_r>:
    5c40:	1141                	addi	sp,sp,-16
    5c42:	81418793          	addi	a5,gp,-2028 # 200000c4 <_impure_ptr>
    5c46:	c226                	sw	s1,4(sp)
    5c48:	4384                	lw	s1,0(a5)
    5c4a:	c422                	sw	s0,8(sp)
    5c4c:	c04a                	sw	s2,0(sp)
    5c4e:	c606                	sw	ra,12(sp)
    5c50:	892a                	mv	s2,a0
    5c52:	842e                	mv	s0,a1
    5c54:	c491                	beqz	s1,5c60 <__swsetup_r+0x20>
    5c56:	4c9c                	lw	a5,24(s1)
    5c58:	e781                	bnez	a5,5c60 <__swsetup_r+0x20>
    5c5a:	8526                	mv	a0,s1
    5c5c:	f76ff0ef          	jal	ra,53d2 <__sinit>
    5c60:	00002797          	auipc	a5,0x2
    5c64:	f7078793          	addi	a5,a5,-144 # 7bd0 <__sf_fake_stdin>
    5c68:	02f41b63          	bne	s0,a5,5c9e <__swsetup_r+0x5e>
    5c6c:	40c0                	lw	s0,4(s1)
    5c6e:	00c41703          	lh	a4,12(s0)
    5c72:	01071793          	slli	a5,a4,0x10
    5c76:	83c1                	srli	a5,a5,0x10
    5c78:	0087f693          	andi	a3,a5,8
    5c7c:	eab5                	bnez	a3,5cf0 <__swsetup_r+0xb0>
    5c7e:	0107f693          	andi	a3,a5,16
    5c82:	ee95                	bnez	a3,5cbe <__swsetup_r+0x7e>
    5c84:	47a5                	li	a5,9
    5c86:	00f92023          	sw	a5,0(s2)
    5c8a:	04076713          	ori	a4,a4,64
    5c8e:	a45a                	sh	a4,12(s0)
    5c90:	557d                	li	a0,-1
    5c92:	40b2                	lw	ra,12(sp)
    5c94:	4422                	lw	s0,8(sp)
    5c96:	4492                	lw	s1,4(sp)
    5c98:	4902                	lw	s2,0(sp)
    5c9a:	0141                	addi	sp,sp,16
    5c9c:	8082                	ret
    5c9e:	00002797          	auipc	a5,0x2
    5ca2:	f5278793          	addi	a5,a5,-174 # 7bf0 <__sf_fake_stdout>
    5ca6:	00f41463          	bne	s0,a5,5cae <__swsetup_r+0x6e>
    5caa:	4480                	lw	s0,8(s1)
    5cac:	b7c9                	j	5c6e <__swsetup_r+0x2e>
    5cae:	00002797          	auipc	a5,0x2
    5cb2:	f0278793          	addi	a5,a5,-254 # 7bb0 <__sf_fake_stderr>
    5cb6:	faf41ce3          	bne	s0,a5,5c6e <__swsetup_r+0x2e>
    5cba:	44c0                	lw	s0,12(s1)
    5cbc:	bf4d                	j	5c6e <__swsetup_r+0x2e>
    5cbe:	8b91                	andi	a5,a5,4
    5cc0:	c785                	beqz	a5,5ce8 <__swsetup_r+0xa8>
    5cc2:	584c                	lw	a1,52(s0)
    5cc4:	c991                	beqz	a1,5cd8 <__swsetup_r+0x98>
    5cc6:	04440793          	addi	a5,s0,68
    5cca:	00f58563          	beq	a1,a5,5cd4 <__swsetup_r+0x94>
    5cce:	854a                	mv	a0,s2
    5cd0:	a87ff0ef          	jal	ra,5756 <_free_r>
    5cd4:	02042a23          	sw	zero,52(s0)
    5cd8:	245e                	lhu	a5,12(s0)
    5cda:	00042223          	sw	zero,4(s0)
    5cde:	fdb7f793          	andi	a5,a5,-37
    5ce2:	a45e                	sh	a5,12(s0)
    5ce4:	481c                	lw	a5,16(s0)
    5ce6:	c01c                	sw	a5,0(s0)
    5ce8:	245e                	lhu	a5,12(s0)
    5cea:	0087e793          	ori	a5,a5,8
    5cee:	a45e                	sh	a5,12(s0)
    5cf0:	481c                	lw	a5,16(s0)
    5cf2:	ef81                	bnez	a5,5d0a <__swsetup_r+0xca>
    5cf4:	245e                	lhu	a5,12(s0)
    5cf6:	20000713          	li	a4,512
    5cfa:	2807f793          	andi	a5,a5,640
    5cfe:	00e78663          	beq	a5,a4,5d0a <__swsetup_r+0xca>
    5d02:	85a2                	mv	a1,s0
    5d04:	854a                	mv	a0,s2
    5d06:	89bff0ef          	jal	ra,55a0 <__smakebuf_r>
    5d0a:	245e                	lhu	a5,12(s0)
    5d0c:	0017f713          	andi	a4,a5,1
    5d10:	c31d                	beqz	a4,5d36 <__swsetup_r+0xf6>
    5d12:	485c                	lw	a5,20(s0)
    5d14:	00042423          	sw	zero,8(s0)
    5d18:	40f007b3          	neg	a5,a5
    5d1c:	cc1c                	sw	a5,24(s0)
    5d1e:	481c                	lw	a5,16(s0)
    5d20:	4501                	li	a0,0
    5d22:	fba5                	bnez	a5,5c92 <__swsetup_r+0x52>
    5d24:	00c41783          	lh	a5,12(s0)
    5d28:	0807f713          	andi	a4,a5,128
    5d2c:	d33d                	beqz	a4,5c92 <__swsetup_r+0x52>
    5d2e:	0407e793          	ori	a5,a5,64
    5d32:	a45e                	sh	a5,12(s0)
    5d34:	bfb1                	j	5c90 <__swsetup_r+0x50>
    5d36:	8b89                	andi	a5,a5,2
    5d38:	4701                	li	a4,0
    5d3a:	e391                	bnez	a5,5d3e <__swsetup_r+0xfe>
    5d3c:	4858                	lw	a4,20(s0)
    5d3e:	c418                	sw	a4,8(s0)
    5d40:	bff9                	j	5d1e <__swsetup_r+0xde>

00005d42 <_close_r>:
    5d42:	1141                	addi	sp,sp,-16
    5d44:	c422                	sw	s0,8(sp)
    5d46:	842a                	mv	s0,a0
    5d48:	852e                	mv	a0,a1
    5d4a:	20003797          	auipc	a5,0x20003
    5d4e:	a407ab23          	sw	zero,-1450(a5) # 200087a0 <errno>
    5d52:	c606                	sw	ra,12(sp)
    5d54:	4f3000ef          	jal	ra,6a46 <_close>
    5d58:	57fd                	li	a5,-1
    5d5a:	00f51963          	bne	a0,a5,5d6c <_close_r+0x2a>
    5d5e:	20003797          	auipc	a5,0x20003
    5d62:	a4278793          	addi	a5,a5,-1470 # 200087a0 <errno>
    5d66:	439c                	lw	a5,0(a5)
    5d68:	c391                	beqz	a5,5d6c <_close_r+0x2a>
    5d6a:	c01c                	sw	a5,0(s0)
    5d6c:	40b2                	lw	ra,12(sp)
    5d6e:	4422                	lw	s0,8(sp)
    5d70:	0141                	addi	sp,sp,16
    5d72:	8082                	ret

00005d74 <__sflush_r>:
    5d74:	25de                	lhu	a5,12(a1)
    5d76:	1101                	addi	sp,sp,-32
    5d78:	cc22                	sw	s0,24(sp)
    5d7a:	ca26                	sw	s1,20(sp)
    5d7c:	ce06                	sw	ra,28(sp)
    5d7e:	c84a                	sw	s2,16(sp)
    5d80:	c64e                	sw	s3,12(sp)
    5d82:	0087f713          	andi	a4,a5,8
    5d86:	84aa                	mv	s1,a0
    5d88:	842e                	mv	s0,a1
    5d8a:	ef61                	bnez	a4,5e62 <__sflush_r+0xee>
    5d8c:	41d8                	lw	a4,4(a1)
    5d8e:	00e04d63          	bgtz	a4,5da8 <__sflush_r+0x34>
    5d92:	41b8                	lw	a4,64(a1)
    5d94:	00e04a63          	bgtz	a4,5da8 <__sflush_r+0x34>
    5d98:	4501                	li	a0,0
    5d9a:	40f2                	lw	ra,28(sp)
    5d9c:	4462                	lw	s0,24(sp)
    5d9e:	44d2                	lw	s1,20(sp)
    5da0:	4942                	lw	s2,16(sp)
    5da2:	49b2                	lw	s3,12(sp)
    5da4:	6105                	addi	sp,sp,32
    5da6:	8082                	ret
    5da8:	5458                	lw	a4,44(s0)
    5daa:	d77d                	beqz	a4,5d98 <__sflush_r+0x24>
    5dac:	0004a903          	lw	s2,0(s1)
    5db0:	01379693          	slli	a3,a5,0x13
    5db4:	0004a023          	sw	zero,0(s1)
    5db8:	0606dc63          	bgez	a3,5e30 <__sflush_r+0xbc>
    5dbc:	4870                	lw	a2,84(s0)
    5dbe:	245e                	lhu	a5,12(s0)
    5dc0:	8b91                	andi	a5,a5,4
    5dc2:	c799                	beqz	a5,5dd0 <__sflush_r+0x5c>
    5dc4:	405c                	lw	a5,4(s0)
    5dc6:	8e1d                	sub	a2,a2,a5
    5dc8:	585c                	lw	a5,52(s0)
    5dca:	c399                	beqz	a5,5dd0 <__sflush_r+0x5c>
    5dcc:	403c                	lw	a5,64(s0)
    5dce:	8e1d                	sub	a2,a2,a5
    5dd0:	545c                	lw	a5,44(s0)
    5dd2:	500c                	lw	a1,32(s0)
    5dd4:	4681                	li	a3,0
    5dd6:	8526                	mv	a0,s1
    5dd8:	9782                	jalr	a5
    5dda:	57fd                	li	a5,-1
    5ddc:	245a                	lhu	a4,12(s0)
    5dde:	00f51d63          	bne	a0,a5,5df8 <__sflush_r+0x84>
    5de2:	4094                	lw	a3,0(s1)
    5de4:	47f5                	li	a5,29
    5de6:	06d7e963          	bltu	a5,a3,5e58 <__sflush_r+0xe4>
    5dea:	204007b7          	lui	a5,0x20400
    5dee:	0785                	addi	a5,a5,1
    5df0:	00d7d7b3          	srl	a5,a5,a3
    5df4:	8b85                	andi	a5,a5,1
    5df6:	c3ad                	beqz	a5,5e58 <__sflush_r+0xe4>
    5df8:	481c                	lw	a5,16(s0)
    5dfa:	00042223          	sw	zero,4(s0)
    5dfe:	c01c                	sw	a5,0(s0)
    5e00:	01371793          	slli	a5,a4,0x13
    5e04:	0007d863          	bgez	a5,5e14 <__sflush_r+0xa0>
    5e08:	57fd                	li	a5,-1
    5e0a:	00f51463          	bne	a0,a5,5e12 <__sflush_r+0x9e>
    5e0e:	409c                	lw	a5,0(s1)
    5e10:	e391                	bnez	a5,5e14 <__sflush_r+0xa0>
    5e12:	c868                	sw	a0,84(s0)
    5e14:	584c                	lw	a1,52(s0)
    5e16:	0124a023          	sw	s2,0(s1)
    5e1a:	ddbd                	beqz	a1,5d98 <__sflush_r+0x24>
    5e1c:	04440793          	addi	a5,s0,68
    5e20:	00f58563          	beq	a1,a5,5e2a <__sflush_r+0xb6>
    5e24:	8526                	mv	a0,s1
    5e26:	931ff0ef          	jal	ra,5756 <_free_r>
    5e2a:	02042a23          	sw	zero,52(s0)
    5e2e:	b7ad                	j	5d98 <__sflush_r+0x24>
    5e30:	500c                	lw	a1,32(s0)
    5e32:	4601                	li	a2,0
    5e34:	4685                	li	a3,1
    5e36:	8526                	mv	a0,s1
    5e38:	9702                	jalr	a4
    5e3a:	57fd                	li	a5,-1
    5e3c:	862a                	mv	a2,a0
    5e3e:	f8f510e3          	bne	a0,a5,5dbe <__sflush_r+0x4a>
    5e42:	409c                	lw	a5,0(s1)
    5e44:	dfad                	beqz	a5,5dbe <__sflush_r+0x4a>
    5e46:	4775                	li	a4,29
    5e48:	00e78563          	beq	a5,a4,5e52 <__sflush_r+0xde>
    5e4c:	4759                	li	a4,22
    5e4e:	04e79363          	bne	a5,a4,5e94 <__sflush_r+0x120>
    5e52:	0124a023          	sw	s2,0(s1)
    5e56:	b789                	j	5d98 <__sflush_r+0x24>
    5e58:	04076713          	ori	a4,a4,64
    5e5c:	a45a                	sh	a4,12(s0)
    5e5e:	557d                	li	a0,-1
    5e60:	bf2d                	j	5d9a <__sflush_r+0x26>
    5e62:	0105a983          	lw	s3,16(a1)
    5e66:	f20989e3          	beqz	s3,5d98 <__sflush_r+0x24>
    5e6a:	0005a903          	lw	s2,0(a1)
    5e6e:	8b8d                	andi	a5,a5,3
    5e70:	0135a023          	sw	s3,0(a1)
    5e74:	41390933          	sub	s2,s2,s3
    5e78:	4701                	li	a4,0
    5e7a:	e391                	bnez	a5,5e7e <__sflush_r+0x10a>
    5e7c:	49d8                	lw	a4,20(a1)
    5e7e:	c418                	sw	a4,8(s0)
    5e80:	f1205ce3          	blez	s2,5d98 <__sflush_r+0x24>
    5e84:	541c                	lw	a5,40(s0)
    5e86:	500c                	lw	a1,32(s0)
    5e88:	86ca                	mv	a3,s2
    5e8a:	864e                	mv	a2,s3
    5e8c:	8526                	mv	a0,s1
    5e8e:	9782                	jalr	a5
    5e90:	00a04763          	bgtz	a0,5e9e <__sflush_r+0x12a>
    5e94:	245e                	lhu	a5,12(s0)
    5e96:	0407e793          	ori	a5,a5,64
    5e9a:	a45e                	sh	a5,12(s0)
    5e9c:	b7c9                	j	5e5e <__sflush_r+0xea>
    5e9e:	99aa                	add	s3,s3,a0
    5ea0:	40a90933          	sub	s2,s2,a0
    5ea4:	bff1                	j	5e80 <__sflush_r+0x10c>

00005ea6 <_fflush_r>:
    5ea6:	499c                	lw	a5,16(a1)
    5ea8:	c3ad                	beqz	a5,5f0a <_fflush_r+0x64>
    5eaa:	1101                	addi	sp,sp,-32
    5eac:	cc22                	sw	s0,24(sp)
    5eae:	ce06                	sw	ra,28(sp)
    5eb0:	842a                	mv	s0,a0
    5eb2:	c519                	beqz	a0,5ec0 <_fflush_r+0x1a>
    5eb4:	4d1c                	lw	a5,24(a0)
    5eb6:	e789                	bnez	a5,5ec0 <_fflush_r+0x1a>
    5eb8:	c62e                	sw	a1,12(sp)
    5eba:	d18ff0ef          	jal	ra,53d2 <__sinit>
    5ebe:	45b2                	lw	a1,12(sp)
    5ec0:	00002797          	auipc	a5,0x2
    5ec4:	d1078793          	addi	a5,a5,-752 # 7bd0 <__sf_fake_stdin>
    5ec8:	00f59c63          	bne	a1,a5,5ee0 <_fflush_r+0x3a>
    5ecc:	404c                	lw	a1,4(s0)
    5ece:	00c59783          	lh	a5,12(a1)
    5ed2:	c79d                	beqz	a5,5f00 <_fflush_r+0x5a>
    5ed4:	8522                	mv	a0,s0
    5ed6:	4462                	lw	s0,24(sp)
    5ed8:	40f2                	lw	ra,28(sp)
    5eda:	6105                	addi	sp,sp,32
    5edc:	e99ff06f          	j	5d74 <__sflush_r>
    5ee0:	00002797          	auipc	a5,0x2
    5ee4:	d1078793          	addi	a5,a5,-752 # 7bf0 <__sf_fake_stdout>
    5ee8:	00f59463          	bne	a1,a5,5ef0 <_fflush_r+0x4a>
    5eec:	440c                	lw	a1,8(s0)
    5eee:	b7c5                	j	5ece <_fflush_r+0x28>
    5ef0:	00002797          	auipc	a5,0x2
    5ef4:	cc078793          	addi	a5,a5,-832 # 7bb0 <__sf_fake_stderr>
    5ef8:	fcf59be3          	bne	a1,a5,5ece <_fflush_r+0x28>
    5efc:	444c                	lw	a1,12(s0)
    5efe:	bfc1                	j	5ece <_fflush_r+0x28>
    5f00:	40f2                	lw	ra,28(sp)
    5f02:	4462                	lw	s0,24(sp)
    5f04:	4501                	li	a0,0
    5f06:	6105                	addi	sp,sp,32
    5f08:	8082                	ret
    5f0a:	4501                	li	a0,0
    5f0c:	8082                	ret

00005f0e <_fstat_r>:
    5f0e:	1141                	addi	sp,sp,-16
    5f10:	c422                	sw	s0,8(sp)
    5f12:	842a                	mv	s0,a0
    5f14:	852e                	mv	a0,a1
    5f16:	85b2                	mv	a1,a2
    5f18:	20003797          	auipc	a5,0x20003
    5f1c:	8807a423          	sw	zero,-1912(a5) # 200087a0 <errno>
    5f20:	c606                	sw	ra,12(sp)
    5f22:	335000ef          	jal	ra,6a56 <_fstat>
    5f26:	57fd                	li	a5,-1
    5f28:	00f51963          	bne	a0,a5,5f3a <_fstat_r+0x2c>
    5f2c:	20003797          	auipc	a5,0x20003
    5f30:	87478793          	addi	a5,a5,-1932 # 200087a0 <errno>
    5f34:	439c                	lw	a5,0(a5)
    5f36:	c391                	beqz	a5,5f3a <_fstat_r+0x2c>
    5f38:	c01c                	sw	a5,0(s0)
    5f3a:	40b2                	lw	ra,12(sp)
    5f3c:	4422                	lw	s0,8(sp)
    5f3e:	0141                	addi	sp,sp,16
    5f40:	8082                	ret

00005f42 <_isatty_r>:
    5f42:	1141                	addi	sp,sp,-16
    5f44:	c422                	sw	s0,8(sp)
    5f46:	842a                	mv	s0,a0
    5f48:	852e                	mv	a0,a1
    5f4a:	20003797          	auipc	a5,0x20003
    5f4e:	8407ab23          	sw	zero,-1962(a5) # 200087a0 <errno>
    5f52:	c606                	sw	ra,12(sp)
    5f54:	313000ef          	jal	ra,6a66 <_isatty>
    5f58:	57fd                	li	a5,-1
    5f5a:	00f51963          	bne	a0,a5,5f6c <_isatty_r+0x2a>
    5f5e:	20003797          	auipc	a5,0x20003
    5f62:	84278793          	addi	a5,a5,-1982 # 200087a0 <errno>
    5f66:	439c                	lw	a5,0(a5)
    5f68:	c391                	beqz	a5,5f6c <_isatty_r+0x2a>
    5f6a:	c01c                	sw	a5,0(s0)
    5f6c:	40b2                	lw	ra,12(sp)
    5f6e:	4422                	lw	s0,8(sp)
    5f70:	0141                	addi	sp,sp,16
    5f72:	8082                	ret

00005f74 <_lseek_r>:
    5f74:	1141                	addi	sp,sp,-16
    5f76:	c422                	sw	s0,8(sp)
    5f78:	842a                	mv	s0,a0
    5f7a:	852e                	mv	a0,a1
    5f7c:	85b2                	mv	a1,a2
    5f7e:	8636                	mv	a2,a3
    5f80:	20003797          	auipc	a5,0x20003
    5f84:	8207a023          	sw	zero,-2016(a5) # 200087a0 <errno>
    5f88:	c606                	sw	ra,12(sp)
    5f8a:	2ed000ef          	jal	ra,6a76 <_lseek>
    5f8e:	57fd                	li	a5,-1
    5f90:	00f51963          	bne	a0,a5,5fa2 <_lseek_r+0x2e>
    5f94:	20003797          	auipc	a5,0x20003
    5f98:	80c78793          	addi	a5,a5,-2036 # 200087a0 <errno>
    5f9c:	439c                	lw	a5,0(a5)
    5f9e:	c391                	beqz	a5,5fa2 <_lseek_r+0x2e>
    5fa0:	c01c                	sw	a5,0(s0)
    5fa2:	40b2                	lw	ra,12(sp)
    5fa4:	4422                	lw	s0,8(sp)
    5fa6:	0141                	addi	sp,sp,16
    5fa8:	8082                	ret

00005faa <__malloc_lock>:
    5faa:	8082                	ret

00005fac <__malloc_unlock>:
    5fac:	8082                	ret

00005fae <_realloc_r>:
    5fae:	e581                	bnez	a1,5fb6 <_realloc_r+0x8>
    5fb0:	85b2                	mv	a1,a2
    5fb2:	84dff06f          	j	57fe <_malloc_r>
    5fb6:	1101                	addi	sp,sp,-32
    5fb8:	cc22                	sw	s0,24(sp)
    5fba:	ce06                	sw	ra,28(sp)
    5fbc:	ca26                	sw	s1,20(sp)
    5fbe:	c84a                	sw	s2,16(sp)
    5fc0:	c64e                	sw	s3,12(sp)
    5fc2:	8432                	mv	s0,a2
    5fc4:	ee01                	bnez	a2,5fdc <_realloc_r+0x2e>
    5fc6:	f90ff0ef          	jal	ra,5756 <_free_r>
    5fca:	4901                	li	s2,0
    5fcc:	40f2                	lw	ra,28(sp)
    5fce:	4462                	lw	s0,24(sp)
    5fd0:	854a                	mv	a0,s2
    5fd2:	44d2                	lw	s1,20(sp)
    5fd4:	4942                	lw	s2,16(sp)
    5fd6:	49b2                	lw	s3,12(sp)
    5fd8:	6105                	addi	sp,sp,32
    5fda:	8082                	ret
    5fdc:	84ae                	mv	s1,a1
    5fde:	89aa                	mv	s3,a0
    5fe0:	253000ef          	jal	ra,6a32 <_malloc_usable_size_r>
    5fe4:	8926                	mv	s2,s1
    5fe6:	fe8573e3          	bgeu	a0,s0,5fcc <_realloc_r+0x1e>
    5fea:	85a2                	mv	a1,s0
    5fec:	854e                	mv	a0,s3
    5fee:	811ff0ef          	jal	ra,57fe <_malloc_r>
    5ff2:	892a                	mv	s2,a0
    5ff4:	dd61                	beqz	a0,5fcc <_realloc_r+0x1e>
    5ff6:	85a6                	mv	a1,s1
    5ff8:	8622                	mv	a2,s0
    5ffa:	e64ff0ef          	jal	ra,565e <memcpy>
    5ffe:	85a6                	mv	a1,s1
    6000:	854e                	mv	a0,s3
    6002:	f54ff0ef          	jal	ra,5756 <_free_r>
    6006:	b7d9                	j	5fcc <_realloc_r+0x1e>

00006008 <__ssputs_r>:
    6008:	1101                	addi	sp,sp,-32
    600a:	c84a                	sw	s2,16(sp)
    600c:	0085a903          	lw	s2,8(a1)
    6010:	cc22                	sw	s0,24(sp)
    6012:	c452                	sw	s4,8(sp)
    6014:	c05a                	sw	s6,0(sp)
    6016:	ce06                	sw	ra,28(sp)
    6018:	ca26                	sw	s1,20(sp)
    601a:	c64e                	sw	s3,12(sp)
    601c:	c256                	sw	s5,4(sp)
    601e:	842e                	mv	s0,a1
    6020:	8b32                	mv	s6,a2
    6022:	8a36                	mv	s4,a3
    6024:	0926e963          	bltu	a3,s2,60b6 <__ssputs_r+0xae>
    6028:	25de                	lhu	a5,12(a1)
    602a:	4807f713          	andi	a4,a5,1152
    602e:	c351                	beqz	a4,60b2 <__ssputs_r+0xaa>
    6030:	4004                	lw	s1,0(s0)
    6032:	498c                	lw	a1,16(a1)
    6034:	4858                	lw	a4,20(s0)
    6036:	8aaa                	mv	s5,a0
    6038:	40b489b3          	sub	s3,s1,a1
    603c:	448d                	li	s1,3
    603e:	02e484b3          	mul	s1,s1,a4
    6042:	4709                	li	a4,2
    6044:	02e4c4b3          	div	s1,s1,a4
    6048:	00168713          	addi	a4,a3,1
    604c:	974e                	add	a4,a4,s3
    604e:	00e4f363          	bgeu	s1,a4,6054 <__ssputs_r+0x4c>
    6052:	84ba                	mv	s1,a4
    6054:	4007f793          	andi	a5,a5,1024
    6058:	cfbd                	beqz	a5,60d6 <__ssputs_r+0xce>
    605a:	85a6                	mv	a1,s1
    605c:	8556                	mv	a0,s5
    605e:	fa0ff0ef          	jal	ra,57fe <_malloc_r>
    6062:	892a                	mv	s2,a0
    6064:	e11d                	bnez	a0,608a <__ssputs_r+0x82>
    6066:	47b1                	li	a5,12
    6068:	00faa023          	sw	a5,0(s5)
    606c:	245e                	lhu	a5,12(s0)
    606e:	557d                	li	a0,-1
    6070:	0407e793          	ori	a5,a5,64
    6074:	a45e                	sh	a5,12(s0)
    6076:	40f2                	lw	ra,28(sp)
    6078:	4462                	lw	s0,24(sp)
    607a:	44d2                	lw	s1,20(sp)
    607c:	4942                	lw	s2,16(sp)
    607e:	49b2                	lw	s3,12(sp)
    6080:	4a22                	lw	s4,8(sp)
    6082:	4a92                	lw	s5,4(sp)
    6084:	4b02                	lw	s6,0(sp)
    6086:	6105                	addi	sp,sp,32
    6088:	8082                	ret
    608a:	480c                	lw	a1,16(s0)
    608c:	864e                	mv	a2,s3
    608e:	dd0ff0ef          	jal	ra,565e <memcpy>
    6092:	245e                	lhu	a5,12(s0)
    6094:	b7f7f793          	andi	a5,a5,-1153
    6098:	0807e793          	ori	a5,a5,128
    609c:	a45e                	sh	a5,12(s0)
    609e:	01242823          	sw	s2,16(s0)
    60a2:	c844                	sw	s1,20(s0)
    60a4:	994e                	add	s2,s2,s3
    60a6:	413484b3          	sub	s1,s1,s3
    60aa:	01242023          	sw	s2,0(s0)
    60ae:	c404                	sw	s1,8(s0)
    60b0:	8952                	mv	s2,s4
    60b2:	012a7363          	bgeu	s4,s2,60b8 <__ssputs_r+0xb0>
    60b6:	8952                	mv	s2,s4
    60b8:	4008                	lw	a0,0(s0)
    60ba:	864a                	mv	a2,s2
    60bc:	85da                	mv	a1,s6
    60be:	e52ff0ef          	jal	ra,5710 <memmove>
    60c2:	441c                	lw	a5,8(s0)
    60c4:	4501                	li	a0,0
    60c6:	412787b3          	sub	a5,a5,s2
    60ca:	c41c                	sw	a5,8(s0)
    60cc:	401c                	lw	a5,0(s0)
    60ce:	993e                	add	s2,s2,a5
    60d0:	01242023          	sw	s2,0(s0)
    60d4:	b74d                	j	6076 <__ssputs_r+0x6e>
    60d6:	8626                	mv	a2,s1
    60d8:	8556                	mv	a0,s5
    60da:	ed5ff0ef          	jal	ra,5fae <_realloc_r>
    60de:	892a                	mv	s2,a0
    60e0:	fd5d                	bnez	a0,609e <__ssputs_r+0x96>
    60e2:	480c                	lw	a1,16(s0)
    60e4:	8556                	mv	a0,s5
    60e6:	e70ff0ef          	jal	ra,5756 <_free_r>
    60ea:	bfb5                	j	6066 <__ssputs_r+0x5e>

000060ec <_svfiprintf_r>:
    60ec:	25de                	lhu	a5,12(a1)
    60ee:	7171                	addi	sp,sp,-176
    60f0:	d326                	sw	s1,164(sp)
    60f2:	d14a                	sw	s2,160(sp)
    60f4:	cf4e                	sw	s3,156(sp)
    60f6:	d706                	sw	ra,172(sp)
    60f8:	d522                	sw	s0,168(sp)
    60fa:	cd52                	sw	s4,152(sp)
    60fc:	cb56                	sw	s5,148(sp)
    60fe:	c95a                	sw	s6,144(sp)
    6100:	c75e                	sw	s7,140(sp)
    6102:	c562                	sw	s8,136(sp)
    6104:	c366                	sw	s9,132(sp)
    6106:	0807f793          	andi	a5,a5,128
    610a:	89aa                	mv	s3,a0
    610c:	892e                	mv	s2,a1
    610e:	84b2                	mv	s1,a2
    6110:	c3b9                	beqz	a5,6156 <_svfiprintf_r+0x6a>
    6112:	499c                	lw	a5,16(a1)
    6114:	e3a9                	bnez	a5,6156 <_svfiprintf_r+0x6a>
    6116:	04000593          	li	a1,64
    611a:	c636                	sw	a3,12(sp)
    611c:	ee2ff0ef          	jal	ra,57fe <_malloc_r>
    6120:	00a92023          	sw	a0,0(s2)
    6124:	00a92823          	sw	a0,16(s2)
    6128:	46b2                	lw	a3,12(sp)
    612a:	e115                	bnez	a0,614e <_svfiprintf_r+0x62>
    612c:	47b1                	li	a5,12
    612e:	00f9a023          	sw	a5,0(s3)
    6132:	557d                	li	a0,-1
    6134:	50ba                	lw	ra,172(sp)
    6136:	542a                	lw	s0,168(sp)
    6138:	549a                	lw	s1,164(sp)
    613a:	590a                	lw	s2,160(sp)
    613c:	49fa                	lw	s3,156(sp)
    613e:	4a6a                	lw	s4,152(sp)
    6140:	4ada                	lw	s5,148(sp)
    6142:	4b4a                	lw	s6,144(sp)
    6144:	4bba                	lw	s7,140(sp)
    6146:	4c2a                	lw	s8,136(sp)
    6148:	4c9a                	lw	s9,132(sp)
    614a:	614d                	addi	sp,sp,176
    614c:	8082                	ret
    614e:	04000793          	li	a5,64
    6152:	00f92a23          	sw	a5,20(s2)
    6156:	02000793          	li	a5,32
    615a:	02f10ca3          	sb	a5,57(sp)
    615e:	03000793          	li	a5,48
    6162:	da02                	sw	zero,52(sp)
    6164:	02f10d23          	sb	a5,58(sp)
    6168:	ce36                	sw	a3,28(sp)
    616a:	02500b93          	li	s7,37
    616e:	00002a97          	auipc	s5,0x2
    6172:	aa2a8a93          	addi	s5,s5,-1374 # 7c10 <__sf_fake_stdout+0x20>
    6176:	4c05                	li	s8,1
    6178:	4b29                	li	s6,10
    617a:	8426                	mv	s0,s1
    617c:	201c                	lbu	a5,0(s0)
    617e:	c399                	beqz	a5,6184 <_svfiprintf_r+0x98>
    6180:	09779963          	bne	a5,s7,6212 <_svfiprintf_r+0x126>
    6184:	40940cb3          	sub	s9,s0,s1
    6188:	000c8e63          	beqz	s9,61a4 <_svfiprintf_r+0xb8>
    618c:	86e6                	mv	a3,s9
    618e:	8626                	mv	a2,s1
    6190:	85ca                	mv	a1,s2
    6192:	854e                	mv	a0,s3
    6194:	e75ff0ef          	jal	ra,6008 <__ssputs_r>
    6198:	57fd                	li	a5,-1
    619a:	18f50b63          	beq	a0,a5,6330 <_svfiprintf_r+0x244>
    619e:	56d2                	lw	a3,52(sp)
    61a0:	96e6                	add	a3,a3,s9
    61a2:	da36                	sw	a3,52(sp)
    61a4:	201c                	lbu	a5,0(s0)
    61a6:	18078563          	beqz	a5,6330 <_svfiprintf_r+0x244>
    61aa:	57fd                	li	a5,-1
    61ac:	00140493          	addi	s1,s0,1
    61b0:	d002                	sw	zero,32(sp)
    61b2:	d602                	sw	zero,44(sp)
    61b4:	d23e                	sw	a5,36(sp)
    61b6:	d402                	sw	zero,40(sp)
    61b8:	060101a3          	sb	zero,99(sp)
    61bc:	dc82                	sw	zero,120(sp)
    61be:	208c                	lbu	a1,0(s1)
    61c0:	4615                	li	a2,5
    61c2:	8556                	mv	a0,s5
    61c4:	c82ff0ef          	jal	ra,5646 <memchr>
    61c8:	00148413          	addi	s0,s1,1
    61cc:	5782                	lw	a5,32(sp)
    61ce:	e521                	bnez	a0,6216 <_svfiprintf_r+0x12a>
    61d0:	0107f713          	andi	a4,a5,16
    61d4:	c709                	beqz	a4,61de <_svfiprintf_r+0xf2>
    61d6:	02000713          	li	a4,32
    61da:	06e101a3          	sb	a4,99(sp)
    61de:	0087f713          	andi	a4,a5,8
    61e2:	c709                	beqz	a4,61ec <_svfiprintf_r+0x100>
    61e4:	02b00713          	li	a4,43
    61e8:	06e101a3          	sb	a4,99(sp)
    61ec:	2094                	lbu	a3,0(s1)
    61ee:	02a00713          	li	a4,42
    61f2:	02e68a63          	beq	a3,a4,6226 <_svfiprintf_r+0x13a>
    61f6:	57b2                	lw	a5,44(sp)
    61f8:	8426                	mv	s0,s1
    61fa:	4681                	li	a3,0
    61fc:	4625                	li	a2,9
    61fe:	2018                	lbu	a4,0(s0)
    6200:	00140593          	addi	a1,s0,1
    6204:	fd070713          	addi	a4,a4,-48 # ffffefd0 <_eusrstack+0xdffeefd0>
    6208:	06e67263          	bgeu	a2,a4,626c <_svfiprintf_r+0x180>
    620c:	c68d                	beqz	a3,6236 <_svfiprintf_r+0x14a>
    620e:	d63e                	sw	a5,44(sp)
    6210:	a01d                	j	6236 <_svfiprintf_r+0x14a>
    6212:	0405                	addi	s0,s0,1
    6214:	b7a5                	j	617c <_svfiprintf_r+0x90>
    6216:	41550533          	sub	a0,a0,s5
    621a:	00ac1533          	sll	a0,s8,a0
    621e:	8fc9                	or	a5,a5,a0
    6220:	d03e                	sw	a5,32(sp)
    6222:	84a2                	mv	s1,s0
    6224:	bf69                	j	61be <_svfiprintf_r+0xd2>
    6226:	4772                	lw	a4,28(sp)
    6228:	00470693          	addi	a3,a4,4
    622c:	4318                	lw	a4,0(a4)
    622e:	ce36                	sw	a3,28(sp)
    6230:	02074763          	bltz	a4,625e <_svfiprintf_r+0x172>
    6234:	d63a                	sw	a4,44(sp)
    6236:	2018                	lbu	a4,0(s0)
    6238:	02e00793          	li	a5,46
    623c:	04f71d63          	bne	a4,a5,6296 <_svfiprintf_r+0x1aa>
    6240:	3018                	lbu	a4,1(s0)
    6242:	02a00793          	li	a5,42
    6246:	02f71b63          	bne	a4,a5,627c <_svfiprintf_r+0x190>
    624a:	47f2                	lw	a5,28(sp)
    624c:	0409                	addi	s0,s0,2
    624e:	00478713          	addi	a4,a5,4
    6252:	439c                	lw	a5,0(a5)
    6254:	ce3a                	sw	a4,28(sp)
    6256:	0207c163          	bltz	a5,6278 <_svfiprintf_r+0x18c>
    625a:	d23e                	sw	a5,36(sp)
    625c:	a82d                	j	6296 <_svfiprintf_r+0x1aa>
    625e:	40e00733          	neg	a4,a4
    6262:	0027e793          	ori	a5,a5,2
    6266:	d63a                	sw	a4,44(sp)
    6268:	d03e                	sw	a5,32(sp)
    626a:	b7f1                	j	6236 <_svfiprintf_r+0x14a>
    626c:	036787b3          	mul	a5,a5,s6
    6270:	4685                	li	a3,1
    6272:	842e                	mv	s0,a1
    6274:	97ba                	add	a5,a5,a4
    6276:	b761                	j	61fe <_svfiprintf_r+0x112>
    6278:	57fd                	li	a5,-1
    627a:	b7c5                	j	625a <_svfiprintf_r+0x16e>
    627c:	0405                	addi	s0,s0,1
    627e:	d202                	sw	zero,36(sp)
    6280:	4681                	li	a3,0
    6282:	4781                	li	a5,0
    6284:	4625                	li	a2,9
    6286:	2018                	lbu	a4,0(s0)
    6288:	00140593          	addi	a1,s0,1
    628c:	fd070713          	addi	a4,a4,-48
    6290:	06e67663          	bgeu	a2,a4,62fc <_svfiprintf_r+0x210>
    6294:	f2f9                	bnez	a3,625a <_svfiprintf_r+0x16e>
    6296:	200c                	lbu	a1,0(s0)
    6298:	460d                	li	a2,3
    629a:	00002517          	auipc	a0,0x2
    629e:	97e50513          	addi	a0,a0,-1666 # 7c18 <__sf_fake_stdout+0x28>
    62a2:	ba4ff0ef          	jal	ra,5646 <memchr>
    62a6:	cd11                	beqz	a0,62c2 <_svfiprintf_r+0x1d6>
    62a8:	00002797          	auipc	a5,0x2
    62ac:	97078793          	addi	a5,a5,-1680 # 7c18 <__sf_fake_stdout+0x28>
    62b0:	8d1d                	sub	a0,a0,a5
    62b2:	04000793          	li	a5,64
    62b6:	00a797b3          	sll	a5,a5,a0
    62ba:	5502                	lw	a0,32(sp)
    62bc:	0405                	addi	s0,s0,1
    62be:	8d5d                	or	a0,a0,a5
    62c0:	d02a                	sw	a0,32(sp)
    62c2:	200c                	lbu	a1,0(s0)
    62c4:	4619                	li	a2,6
    62c6:	00002517          	auipc	a0,0x2
    62ca:	95650513          	addi	a0,a0,-1706 # 7c1c <__sf_fake_stdout+0x2c>
    62ce:	00140493          	addi	s1,s0,1
    62d2:	02b10c23          	sb	a1,56(sp)
    62d6:	b70ff0ef          	jal	ra,5646 <memchr>
    62da:	c525                	beqz	a0,6342 <_svfiprintf_r+0x256>
    62dc:	ffffa797          	auipc	a5,0xffffa
    62e0:	d2478793          	addi	a5,a5,-732 # 0 <_sinit>
    62e4:	e795                	bnez	a5,6310 <_svfiprintf_r+0x224>
    62e6:	5702                	lw	a4,32(sp)
    62e8:	47f2                	lw	a5,28(sp)
    62ea:	10077713          	andi	a4,a4,256
    62ee:	cf09                	beqz	a4,6308 <_svfiprintf_r+0x21c>
    62f0:	0791                	addi	a5,a5,4
    62f2:	ce3e                	sw	a5,28(sp)
    62f4:	57d2                	lw	a5,52(sp)
    62f6:	97d2                	add	a5,a5,s4
    62f8:	da3e                	sw	a5,52(sp)
    62fa:	b541                	j	617a <_svfiprintf_r+0x8e>
    62fc:	036787b3          	mul	a5,a5,s6
    6300:	4685                	li	a3,1
    6302:	842e                	mv	s0,a1
    6304:	97ba                	add	a5,a5,a4
    6306:	b741                	j	6286 <_svfiprintf_r+0x19a>
    6308:	079d                	addi	a5,a5,7
    630a:	9be1                	andi	a5,a5,-8
    630c:	07a1                	addi	a5,a5,8
    630e:	b7d5                	j	62f2 <_svfiprintf_r+0x206>
    6310:	0878                	addi	a4,sp,28
    6312:	00000697          	auipc	a3,0x0
    6316:	cf668693          	addi	a3,a3,-778 # 6008 <__ssputs_r>
    631a:	864a                	mv	a2,s2
    631c:	100c                	addi	a1,sp,32
    631e:	854e                	mv	a0,s3
    6320:	00000097          	auipc	ra,0x0
    6324:	000000e7          	jalr	zero # 0 <_sinit>
    6328:	57fd                	li	a5,-1
    632a:	8a2a                	mv	s4,a0
    632c:	fcf514e3          	bne	a0,a5,62f4 <_svfiprintf_r+0x208>
    6330:	00c95783          	lhu	a5,12(s2)
    6334:	557d                	li	a0,-1
    6336:	0407f793          	andi	a5,a5,64
    633a:	de079de3          	bnez	a5,6134 <_svfiprintf_r+0x48>
    633e:	5552                	lw	a0,52(sp)
    6340:	bbd5                	j	6134 <_svfiprintf_r+0x48>
    6342:	0878                	addi	a4,sp,28
    6344:	00000697          	auipc	a3,0x0
    6348:	cc468693          	addi	a3,a3,-828 # 6008 <__ssputs_r>
    634c:	864a                	mv	a2,s2
    634e:	100c                	addi	a1,sp,32
    6350:	854e                	mv	a0,s3
    6352:	2121                	jal	675a <_printf_i>
    6354:	bfd1                	j	6328 <_svfiprintf_r+0x23c>

00006356 <__sfputc_r>:
    6356:	461c                	lw	a5,8(a2)
    6358:	17fd                	addi	a5,a5,-1
    635a:	c61c                	sw	a5,8(a2)
    635c:	0007da63          	bgez	a5,6370 <__sfputc_r+0x1a>
    6360:	4e18                	lw	a4,24(a2)
    6362:	00e7c563          	blt	a5,a4,636c <__sfputc_r+0x16>
    6366:	47a9                	li	a5,10
    6368:	00f59463          	bne	a1,a5,6370 <__sfputc_r+0x1a>
    636c:	fe0ff06f          	j	5b4c <__swbuf_r>
    6370:	421c                	lw	a5,0(a2)
    6372:	852e                	mv	a0,a1
    6374:	00178713          	addi	a4,a5,1
    6378:	c218                	sw	a4,0(a2)
    637a:	a38c                	sb	a1,0(a5)
    637c:	8082                	ret

0000637e <__sfputs_r>:
    637e:	1101                	addi	sp,sp,-32
    6380:	cc22                	sw	s0,24(sp)
    6382:	ca26                	sw	s1,20(sp)
    6384:	c84a                	sw	s2,16(sp)
    6386:	c64e                	sw	s3,12(sp)
    6388:	c452                	sw	s4,8(sp)
    638a:	ce06                	sw	ra,28(sp)
    638c:	892a                	mv	s2,a0
    638e:	89ae                	mv	s3,a1
    6390:	8432                	mv	s0,a2
    6392:	00d604b3          	add	s1,a2,a3
    6396:	5a7d                	li	s4,-1
    6398:	00941463          	bne	s0,s1,63a0 <__sfputs_r+0x22>
    639c:	4501                	li	a0,0
    639e:	a809                	j	63b0 <__sfputs_r+0x32>
    63a0:	200c                	lbu	a1,0(s0)
    63a2:	864e                	mv	a2,s3
    63a4:	854a                	mv	a0,s2
    63a6:	fb1ff0ef          	jal	ra,6356 <__sfputc_r>
    63aa:	0405                	addi	s0,s0,1
    63ac:	ff4516e3          	bne	a0,s4,6398 <__sfputs_r+0x1a>
    63b0:	40f2                	lw	ra,28(sp)
    63b2:	4462                	lw	s0,24(sp)
    63b4:	44d2                	lw	s1,20(sp)
    63b6:	4942                	lw	s2,16(sp)
    63b8:	49b2                	lw	s3,12(sp)
    63ba:	4a22                	lw	s4,8(sp)
    63bc:	6105                	addi	sp,sp,32
    63be:	8082                	ret

000063c0 <_vfiprintf_r>:
    63c0:	7135                	addi	sp,sp,-160
    63c2:	cd22                	sw	s0,152(sp)
    63c4:	cb26                	sw	s1,148(sp)
    63c6:	c94a                	sw	s2,144(sp)
    63c8:	c74e                	sw	s3,140(sp)
    63ca:	cf06                	sw	ra,156(sp)
    63cc:	c552                	sw	s4,136(sp)
    63ce:	c356                	sw	s5,132(sp)
    63d0:	c15a                	sw	s6,128(sp)
    63d2:	dede                	sw	s7,124(sp)
    63d4:	dce2                	sw	s8,120(sp)
    63d6:	dae6                	sw	s9,116(sp)
    63d8:	89aa                	mv	s3,a0
    63da:	84ae                	mv	s1,a1
    63dc:	8932                	mv	s2,a2
    63de:	8436                	mv	s0,a3
    63e0:	c509                	beqz	a0,63ea <_vfiprintf_r+0x2a>
    63e2:	4d1c                	lw	a5,24(a0)
    63e4:	e399                	bnez	a5,63ea <_vfiprintf_r+0x2a>
    63e6:	fedfe0ef          	jal	ra,53d2 <__sinit>
    63ea:	00001797          	auipc	a5,0x1
    63ee:	7e678793          	addi	a5,a5,2022 # 7bd0 <__sf_fake_stdin>
    63f2:	0cf49963          	bne	s1,a5,64c4 <_vfiprintf_r+0x104>
    63f6:	0049a483          	lw	s1,4(s3)
    63fa:	24de                	lhu	a5,12(s1)
    63fc:	8ba1                	andi	a5,a5,8
    63fe:	c7ed                	beqz	a5,64e8 <_vfiprintf_r+0x128>
    6400:	489c                	lw	a5,16(s1)
    6402:	c3fd                	beqz	a5,64e8 <_vfiprintf_r+0x128>
    6404:	02000793          	li	a5,32
    6408:	02f104a3          	sb	a5,41(sp)
    640c:	03000793          	li	a5,48
    6410:	d202                	sw	zero,36(sp)
    6412:	02f10523          	sb	a5,42(sp)
    6416:	c622                	sw	s0,12(sp)
    6418:	02500b93          	li	s7,37
    641c:	00001a97          	auipc	s5,0x1
    6420:	7f4a8a93          	addi	s5,s5,2036 # 7c10 <__sf_fake_stdout+0x20>
    6424:	4c05                	li	s8,1
    6426:	4b29                	li	s6,10
    6428:	844a                	mv	s0,s2
    642a:	201c                	lbu	a5,0(s0)
    642c:	c399                	beqz	a5,6432 <_vfiprintf_r+0x72>
    642e:	0f779063          	bne	a5,s7,650e <_vfiprintf_r+0x14e>
    6432:	41240cb3          	sub	s9,s0,s2
    6436:	000c8e63          	beqz	s9,6452 <_vfiprintf_r+0x92>
    643a:	86e6                	mv	a3,s9
    643c:	864a                	mv	a2,s2
    643e:	85a6                	mv	a1,s1
    6440:	854e                	mv	a0,s3
    6442:	f3dff0ef          	jal	ra,637e <__sfputs_r>
    6446:	57fd                	li	a5,-1
    6448:	1ef50263          	beq	a0,a5,662c <_vfiprintf_r+0x26c>
    644c:	5692                	lw	a3,36(sp)
    644e:	96e6                	add	a3,a3,s9
    6450:	d236                	sw	a3,36(sp)
    6452:	201c                	lbu	a5,0(s0)
    6454:	1c078c63          	beqz	a5,662c <_vfiprintf_r+0x26c>
    6458:	57fd                	li	a5,-1
    645a:	00140913          	addi	s2,s0,1
    645e:	c802                	sw	zero,16(sp)
    6460:	ce02                	sw	zero,28(sp)
    6462:	ca3e                	sw	a5,20(sp)
    6464:	cc02                	sw	zero,24(sp)
    6466:	040109a3          	sb	zero,83(sp)
    646a:	d482                	sw	zero,104(sp)
    646c:	00094583          	lbu	a1,0(s2)
    6470:	4615                	li	a2,5
    6472:	8556                	mv	a0,s5
    6474:	9d2ff0ef          	jal	ra,5646 <memchr>
    6478:	00190413          	addi	s0,s2,1
    647c:	47c2                	lw	a5,16(sp)
    647e:	e951                	bnez	a0,6512 <_vfiprintf_r+0x152>
    6480:	0107f713          	andi	a4,a5,16
    6484:	c709                	beqz	a4,648e <_vfiprintf_r+0xce>
    6486:	02000713          	li	a4,32
    648a:	04e109a3          	sb	a4,83(sp)
    648e:	0087f713          	andi	a4,a5,8
    6492:	c709                	beqz	a4,649c <_vfiprintf_r+0xdc>
    6494:	02b00713          	li	a4,43
    6498:	04e109a3          	sb	a4,83(sp)
    649c:	00094683          	lbu	a3,0(s2)
    64a0:	02a00713          	li	a4,42
    64a4:	06e68f63          	beq	a3,a4,6522 <_vfiprintf_r+0x162>
    64a8:	47f2                	lw	a5,28(sp)
    64aa:	844a                	mv	s0,s2
    64ac:	4681                	li	a3,0
    64ae:	4625                	li	a2,9
    64b0:	2018                	lbu	a4,0(s0)
    64b2:	00140593          	addi	a1,s0,1
    64b6:	fd070713          	addi	a4,a4,-48
    64ba:	0ae67763          	bgeu	a2,a4,6568 <_vfiprintf_r+0x1a8>
    64be:	cab5                	beqz	a3,6532 <_vfiprintf_r+0x172>
    64c0:	ce3e                	sw	a5,28(sp)
    64c2:	a885                	j	6532 <_vfiprintf_r+0x172>
    64c4:	00001797          	auipc	a5,0x1
    64c8:	72c78793          	addi	a5,a5,1836 # 7bf0 <__sf_fake_stdout>
    64cc:	00f49563          	bne	s1,a5,64d6 <_vfiprintf_r+0x116>
    64d0:	0089a483          	lw	s1,8(s3)
    64d4:	b71d                	j	63fa <_vfiprintf_r+0x3a>
    64d6:	00001797          	auipc	a5,0x1
    64da:	6da78793          	addi	a5,a5,1754 # 7bb0 <__sf_fake_stderr>
    64de:	f0f49ee3          	bne	s1,a5,63fa <_vfiprintf_r+0x3a>
    64e2:	00c9a483          	lw	s1,12(s3)
    64e6:	bf11                	j	63fa <_vfiprintf_r+0x3a>
    64e8:	85a6                	mv	a1,s1
    64ea:	854e                	mv	a0,s3
    64ec:	f54ff0ef          	jal	ra,5c40 <__swsetup_r>
    64f0:	d911                	beqz	a0,6404 <_vfiprintf_r+0x44>
    64f2:	557d                	li	a0,-1
    64f4:	40fa                	lw	ra,156(sp)
    64f6:	446a                	lw	s0,152(sp)
    64f8:	44da                	lw	s1,148(sp)
    64fa:	494a                	lw	s2,144(sp)
    64fc:	49ba                	lw	s3,140(sp)
    64fe:	4a2a                	lw	s4,136(sp)
    6500:	4a9a                	lw	s5,132(sp)
    6502:	4b0a                	lw	s6,128(sp)
    6504:	5bf6                	lw	s7,124(sp)
    6506:	5c66                	lw	s8,120(sp)
    6508:	5cd6                	lw	s9,116(sp)
    650a:	610d                	addi	sp,sp,160
    650c:	8082                	ret
    650e:	0405                	addi	s0,s0,1
    6510:	bf29                	j	642a <_vfiprintf_r+0x6a>
    6512:	41550533          	sub	a0,a0,s5
    6516:	00ac1533          	sll	a0,s8,a0
    651a:	8fc9                	or	a5,a5,a0
    651c:	c83e                	sw	a5,16(sp)
    651e:	8922                	mv	s2,s0
    6520:	b7b1                	j	646c <_vfiprintf_r+0xac>
    6522:	4732                	lw	a4,12(sp)
    6524:	00470693          	addi	a3,a4,4
    6528:	4318                	lw	a4,0(a4)
    652a:	c636                	sw	a3,12(sp)
    652c:	02074763          	bltz	a4,655a <_vfiprintf_r+0x19a>
    6530:	ce3a                	sw	a4,28(sp)
    6532:	2018                	lbu	a4,0(s0)
    6534:	02e00793          	li	a5,46
    6538:	04f71d63          	bne	a4,a5,6592 <_vfiprintf_r+0x1d2>
    653c:	3018                	lbu	a4,1(s0)
    653e:	02a00793          	li	a5,42
    6542:	02f71b63          	bne	a4,a5,6578 <_vfiprintf_r+0x1b8>
    6546:	47b2                	lw	a5,12(sp)
    6548:	0409                	addi	s0,s0,2
    654a:	00478713          	addi	a4,a5,4
    654e:	439c                	lw	a5,0(a5)
    6550:	c63a                	sw	a4,12(sp)
    6552:	0207c163          	bltz	a5,6574 <_vfiprintf_r+0x1b4>
    6556:	ca3e                	sw	a5,20(sp)
    6558:	a82d                	j	6592 <_vfiprintf_r+0x1d2>
    655a:	40e00733          	neg	a4,a4
    655e:	0027e793          	ori	a5,a5,2
    6562:	ce3a                	sw	a4,28(sp)
    6564:	c83e                	sw	a5,16(sp)
    6566:	b7f1                	j	6532 <_vfiprintf_r+0x172>
    6568:	036787b3          	mul	a5,a5,s6
    656c:	4685                	li	a3,1
    656e:	842e                	mv	s0,a1
    6570:	97ba                	add	a5,a5,a4
    6572:	bf3d                	j	64b0 <_vfiprintf_r+0xf0>
    6574:	57fd                	li	a5,-1
    6576:	b7c5                	j	6556 <_vfiprintf_r+0x196>
    6578:	0405                	addi	s0,s0,1
    657a:	ca02                	sw	zero,20(sp)
    657c:	4681                	li	a3,0
    657e:	4781                	li	a5,0
    6580:	4625                	li	a2,9
    6582:	2018                	lbu	a4,0(s0)
    6584:	00140593          	addi	a1,s0,1
    6588:	fd070713          	addi	a4,a4,-48
    658c:	06e67663          	bgeu	a2,a4,65f8 <_vfiprintf_r+0x238>
    6590:	f2f9                	bnez	a3,6556 <_vfiprintf_r+0x196>
    6592:	200c                	lbu	a1,0(s0)
    6594:	460d                	li	a2,3
    6596:	00001517          	auipc	a0,0x1
    659a:	68250513          	addi	a0,a0,1666 # 7c18 <__sf_fake_stdout+0x28>
    659e:	8a8ff0ef          	jal	ra,5646 <memchr>
    65a2:	cd11                	beqz	a0,65be <_vfiprintf_r+0x1fe>
    65a4:	00001797          	auipc	a5,0x1
    65a8:	67478793          	addi	a5,a5,1652 # 7c18 <__sf_fake_stdout+0x28>
    65ac:	8d1d                	sub	a0,a0,a5
    65ae:	04000793          	li	a5,64
    65b2:	00a797b3          	sll	a5,a5,a0
    65b6:	4542                	lw	a0,16(sp)
    65b8:	0405                	addi	s0,s0,1
    65ba:	8d5d                	or	a0,a0,a5
    65bc:	c82a                	sw	a0,16(sp)
    65be:	200c                	lbu	a1,0(s0)
    65c0:	4619                	li	a2,6
    65c2:	00001517          	auipc	a0,0x1
    65c6:	65a50513          	addi	a0,a0,1626 # 7c1c <__sf_fake_stdout+0x2c>
    65ca:	00140913          	addi	s2,s0,1
    65ce:	02b10423          	sb	a1,40(sp)
    65d2:	874ff0ef          	jal	ra,5646 <memchr>
    65d6:	c135                	beqz	a0,663a <_vfiprintf_r+0x27a>
    65d8:	ffffa797          	auipc	a5,0xffffa
    65dc:	a2878793          	addi	a5,a5,-1496 # 0 <_sinit>
    65e0:	e795                	bnez	a5,660c <_vfiprintf_r+0x24c>
    65e2:	4742                	lw	a4,16(sp)
    65e4:	47b2                	lw	a5,12(sp)
    65e6:	10077713          	andi	a4,a4,256
    65ea:	cf09                	beqz	a4,6604 <_vfiprintf_r+0x244>
    65ec:	0791                	addi	a5,a5,4
    65ee:	c63e                	sw	a5,12(sp)
    65f0:	5792                	lw	a5,36(sp)
    65f2:	97d2                	add	a5,a5,s4
    65f4:	d23e                	sw	a5,36(sp)
    65f6:	bd0d                	j	6428 <_vfiprintf_r+0x68>
    65f8:	036787b3          	mul	a5,a5,s6
    65fc:	4685                	li	a3,1
    65fe:	842e                	mv	s0,a1
    6600:	97ba                	add	a5,a5,a4
    6602:	b741                	j	6582 <_vfiprintf_r+0x1c2>
    6604:	079d                	addi	a5,a5,7
    6606:	9be1                	andi	a5,a5,-8
    6608:	07a1                	addi	a5,a5,8
    660a:	b7d5                	j	65ee <_vfiprintf_r+0x22e>
    660c:	0078                	addi	a4,sp,12
    660e:	00000697          	auipc	a3,0x0
    6612:	d7068693          	addi	a3,a3,-656 # 637e <__sfputs_r>
    6616:	8626                	mv	a2,s1
    6618:	080c                	addi	a1,sp,16
    661a:	854e                	mv	a0,s3
    661c:	00000097          	auipc	ra,0x0
    6620:	000000e7          	jalr	zero # 0 <_sinit>
    6624:	57fd                	li	a5,-1
    6626:	8a2a                	mv	s4,a0
    6628:	fcf514e3          	bne	a0,a5,65f0 <_vfiprintf_r+0x230>
    662c:	24de                	lhu	a5,12(s1)
    662e:	0407f793          	andi	a5,a5,64
    6632:	ec0790e3          	bnez	a5,64f2 <_vfiprintf_r+0x132>
    6636:	5512                	lw	a0,36(sp)
    6638:	bd75                	j	64f4 <_vfiprintf_r+0x134>
    663a:	0078                	addi	a4,sp,12
    663c:	00000697          	auipc	a3,0x0
    6640:	d4268693          	addi	a3,a3,-702 # 637e <__sfputs_r>
    6644:	8626                	mv	a2,s1
    6646:	080c                	addi	a1,sp,16
    6648:	854e                	mv	a0,s3
    664a:	2a01                	jal	675a <_printf_i>
    664c:	bfe1                	j	6624 <_vfiprintf_r+0x264>

0000664e <_printf_common>:
    664e:	7179                	addi	sp,sp,-48
    6650:	ca56                	sw	s5,20(sp)
    6652:	499c                	lw	a5,16(a1)
    6654:	8aba                	mv	s5,a4
    6656:	4598                	lw	a4,8(a1)
    6658:	d422                	sw	s0,40(sp)
    665a:	d226                	sw	s1,36(sp)
    665c:	ce4e                	sw	s3,28(sp)
    665e:	cc52                	sw	s4,24(sp)
    6660:	d606                	sw	ra,44(sp)
    6662:	d04a                	sw	s2,32(sp)
    6664:	c85a                	sw	s6,16(sp)
    6666:	c65e                	sw	s7,12(sp)
    6668:	89aa                	mv	s3,a0
    666a:	842e                	mv	s0,a1
    666c:	84b2                	mv	s1,a2
    666e:	8a36                	mv	s4,a3
    6670:	00e7d363          	bge	a5,a4,6676 <_printf_common+0x28>
    6674:	87ba                	mv	a5,a4
    6676:	c09c                	sw	a5,0(s1)
    6678:	04344703          	lbu	a4,67(s0)
    667c:	c319                	beqz	a4,6682 <_printf_common+0x34>
    667e:	0785                	addi	a5,a5,1
    6680:	c09c                	sw	a5,0(s1)
    6682:	401c                	lw	a5,0(s0)
    6684:	0207f793          	andi	a5,a5,32
    6688:	c781                	beqz	a5,6690 <_printf_common+0x42>
    668a:	409c                	lw	a5,0(s1)
    668c:	0789                	addi	a5,a5,2
    668e:	c09c                	sw	a5,0(s1)
    6690:	00042903          	lw	s2,0(s0)
    6694:	00697913          	andi	s2,s2,6
    6698:	00091a63          	bnez	s2,66ac <_printf_common+0x5e>
    669c:	01940b13          	addi	s6,s0,25
    66a0:	5bfd                	li	s7,-1
    66a2:	445c                	lw	a5,12(s0)
    66a4:	4098                	lw	a4,0(s1)
    66a6:	8f99                	sub	a5,a5,a4
    66a8:	04f94c63          	blt	s2,a5,6700 <_printf_common+0xb2>
    66ac:	401c                	lw	a5,0(s0)
    66ae:	04344683          	lbu	a3,67(s0)
    66b2:	0207f793          	andi	a5,a5,32
    66b6:	00d036b3          	snez	a3,a3
    66ba:	eba5                	bnez	a5,672a <_printf_common+0xdc>
    66bc:	04340613          	addi	a2,s0,67
    66c0:	85d2                	mv	a1,s4
    66c2:	854e                	mv	a0,s3
    66c4:	9a82                	jalr	s5
    66c6:	57fd                	li	a5,-1
    66c8:	04f50363          	beq	a0,a5,670e <_printf_common+0xc0>
    66cc:	401c                	lw	a5,0(s0)
    66ce:	4611                	li	a2,4
    66d0:	4098                	lw	a4,0(s1)
    66d2:	8b99                	andi	a5,a5,6
    66d4:	4454                	lw	a3,12(s0)
    66d6:	4481                	li	s1,0
    66d8:	00c79763          	bne	a5,a2,66e6 <_printf_common+0x98>
    66dc:	40e684b3          	sub	s1,a3,a4
    66e0:	0004d363          	bgez	s1,66e6 <_printf_common+0x98>
    66e4:	4481                	li	s1,0
    66e6:	441c                	lw	a5,8(s0)
    66e8:	4818                	lw	a4,16(s0)
    66ea:	00f75463          	bge	a4,a5,66f2 <_printf_common+0xa4>
    66ee:	8f99                	sub	a5,a5,a4
    66f0:	94be                	add	s1,s1,a5
    66f2:	4901                	li	s2,0
    66f4:	0469                	addi	s0,s0,26
    66f6:	5b7d                	li	s6,-1
    66f8:	05249863          	bne	s1,s2,6748 <_printf_common+0xfa>
    66fc:	4501                	li	a0,0
    66fe:	a809                	j	6710 <_printf_common+0xc2>
    6700:	4685                	li	a3,1
    6702:	865a                	mv	a2,s6
    6704:	85d2                	mv	a1,s4
    6706:	854e                	mv	a0,s3
    6708:	9a82                	jalr	s5
    670a:	01751e63          	bne	a0,s7,6726 <_printf_common+0xd8>
    670e:	557d                	li	a0,-1
    6710:	50b2                	lw	ra,44(sp)
    6712:	5422                	lw	s0,40(sp)
    6714:	5492                	lw	s1,36(sp)
    6716:	5902                	lw	s2,32(sp)
    6718:	49f2                	lw	s3,28(sp)
    671a:	4a62                	lw	s4,24(sp)
    671c:	4ad2                	lw	s5,20(sp)
    671e:	4b42                	lw	s6,16(sp)
    6720:	4bb2                	lw	s7,12(sp)
    6722:	6145                	addi	sp,sp,48
    6724:	8082                	ret
    6726:	0905                	addi	s2,s2,1
    6728:	bfad                	j	66a2 <_printf_common+0x54>
    672a:	00d40733          	add	a4,s0,a3
    672e:	03000613          	li	a2,48
    6732:	04c701a3          	sb	a2,67(a4)
    6736:	04544703          	lbu	a4,69(s0)
    673a:	00168793          	addi	a5,a3,1
    673e:	97a2                	add	a5,a5,s0
    6740:	0689                	addi	a3,a3,2
    6742:	04e781a3          	sb	a4,67(a5)
    6746:	bf9d                	j	66bc <_printf_common+0x6e>
    6748:	4685                	li	a3,1
    674a:	8622                	mv	a2,s0
    674c:	85d2                	mv	a1,s4
    674e:	854e                	mv	a0,s3
    6750:	9a82                	jalr	s5
    6752:	fb650ee3          	beq	a0,s6,670e <_printf_common+0xc0>
    6756:	0905                	addi	s2,s2,1
    6758:	b745                	j	66f8 <_printf_common+0xaa>

0000675a <_printf_i>:
    675a:	7179                	addi	sp,sp,-48
    675c:	d422                	sw	s0,40(sp)
    675e:	d226                	sw	s1,36(sp)
    6760:	d04a                	sw	s2,32(sp)
    6762:	ce4e                	sw	s3,28(sp)
    6764:	d606                	sw	ra,44(sp)
    6766:	cc52                	sw	s4,24(sp)
    6768:	ca56                	sw	s5,20(sp)
    676a:	c85a                	sw	s6,16(sp)
    676c:	89b6                	mv	s3,a3
    676e:	2d94                	lbu	a3,24(a1)
    6770:	06900793          	li	a5,105
    6774:	8932                	mv	s2,a2
    6776:	84aa                	mv	s1,a0
    6778:	842e                	mv	s0,a1
    677a:	04358613          	addi	a2,a1,67
    677e:	02f68d63          	beq	a3,a5,67b8 <_printf_i+0x5e>
    6782:	06d7e263          	bltu	a5,a3,67e6 <_printf_i+0x8c>
    6786:	05800793          	li	a5,88
    678a:	18f68763          	beq	a3,a5,6918 <_printf_i+0x1be>
    678e:	00d7ed63          	bltu	a5,a3,67a8 <_printf_i+0x4e>
    6792:	20068f63          	beqz	a3,69b0 <_printf_i+0x256>
    6796:	04300793          	li	a5,67
    679a:	0af68f63          	beq	a3,a5,6858 <_printf_i+0xfe>
    679e:	04240a93          	addi	s5,s0,66
    67a2:	04d40123          	sb	a3,66(s0)
    67a6:	a0d1                	j	686a <_printf_i+0x110>
    67a8:	06300793          	li	a5,99
    67ac:	0af68663          	beq	a3,a5,6858 <_printf_i+0xfe>
    67b0:	06400793          	li	a5,100
    67b4:	fef695e3          	bne	a3,a5,679e <_printf_i+0x44>
    67b8:	401c                	lw	a5,0(s0)
    67ba:	4308                	lw	a0,0(a4)
    67bc:	0807f693          	andi	a3,a5,128
    67c0:	00450593          	addi	a1,a0,4
    67c4:	c6cd                	beqz	a3,686e <_printf_i+0x114>
    67c6:	411c                	lw	a5,0(a0)
    67c8:	c30c                	sw	a1,0(a4)
    67ca:	0007d863          	bgez	a5,67da <_printf_i+0x80>
    67ce:	02d00713          	li	a4,45
    67d2:	40f007b3          	neg	a5,a5
    67d6:	04e401a3          	sb	a4,67(s0)
    67da:	00001697          	auipc	a3,0x1
    67de:	44a68693          	addi	a3,a3,1098 # 7c24 <__sf_fake_stdout+0x34>
    67e2:	4729                	li	a4,10
    67e4:	a86d                	j	689e <_printf_i+0x144>
    67e6:	07000793          	li	a5,112
    67ea:	16f68363          	beq	a3,a5,6950 <_printf_i+0x1f6>
    67ee:	02d7e563          	bltu	a5,a3,6818 <_printf_i+0xbe>
    67f2:	06e00793          	li	a5,110
    67f6:	18f68a63          	beq	a3,a5,698a <_printf_i+0x230>
    67fa:	06f00793          	li	a5,111
    67fe:	faf690e3          	bne	a3,a5,679e <_printf_i+0x44>
    6802:	400c                	lw	a1,0(s0)
    6804:	431c                	lw	a5,0(a4)
    6806:	0805f813          	andi	a6,a1,128
    680a:	00478513          	addi	a0,a5,4
    680e:	06080863          	beqz	a6,687e <_printf_i+0x124>
    6812:	c308                	sw	a0,0(a4)
    6814:	439c                	lw	a5,0(a5)
    6816:	a88d                	j	6888 <_printf_i+0x12e>
    6818:	07500793          	li	a5,117
    681c:	fef683e3          	beq	a3,a5,6802 <_printf_i+0xa8>
    6820:	07800793          	li	a5,120
    6824:	12f68a63          	beq	a3,a5,6958 <_printf_i+0x1fe>
    6828:	07300793          	li	a5,115
    682c:	f6f699e3          	bne	a3,a5,679e <_printf_i+0x44>
    6830:	431c                	lw	a5,0(a4)
    6832:	41d0                	lw	a2,4(a1)
    6834:	4581                	li	a1,0
    6836:	00478693          	addi	a3,a5,4
    683a:	c314                	sw	a3,0(a4)
    683c:	0007aa83          	lw	s5,0(a5)
    6840:	8556                	mv	a0,s5
    6842:	e05fe0ef          	jal	ra,5646 <memchr>
    6846:	c501                	beqz	a0,684e <_printf_i+0xf4>
    6848:	41550533          	sub	a0,a0,s5
    684c:	c048                	sw	a0,4(s0)
    684e:	405c                	lw	a5,4(s0)
    6850:	c81c                	sw	a5,16(s0)
    6852:	040401a3          	sb	zero,67(s0)
    6856:	a861                	j	68ee <_printf_i+0x194>
    6858:	431c                	lw	a5,0(a4)
    685a:	04240a93          	addi	s5,s0,66
    685e:	00478693          	addi	a3,a5,4
    6862:	439c                	lw	a5,0(a5)
    6864:	c314                	sw	a3,0(a4)
    6866:	04f40123          	sb	a5,66(s0)
    686a:	4785                	li	a5,1
    686c:	b7d5                	j	6850 <_printf_i+0xf6>
    686e:	0407f693          	andi	a3,a5,64
    6872:	411c                	lw	a5,0(a0)
    6874:	c30c                	sw	a1,0(a4)
    6876:	dab1                	beqz	a3,67ca <_printf_i+0x70>
    6878:	07c2                	slli	a5,a5,0x10
    687a:	87c1                	srai	a5,a5,0x10
    687c:	b7b9                	j	67ca <_printf_i+0x70>
    687e:	0405f593          	andi	a1,a1,64
    6882:	c308                	sw	a0,0(a4)
    6884:	d9c1                	beqz	a1,6814 <_printf_i+0xba>
    6886:	239e                	lhu	a5,0(a5)
    6888:	06f00713          	li	a4,111
    688c:	0ee68763          	beq	a3,a4,697a <_printf_i+0x220>
    6890:	00001697          	auipc	a3,0x1
    6894:	39468693          	addi	a3,a3,916 # 7c24 <__sf_fake_stdout+0x34>
    6898:	4729                	li	a4,10
    689a:	040401a3          	sb	zero,67(s0)
    689e:	404c                	lw	a1,4(s0)
    68a0:	c40c                	sw	a1,8(s0)
    68a2:	0005c563          	bltz	a1,68ac <_printf_i+0x152>
    68a6:	4008                	lw	a0,0(s0)
    68a8:	996d                	andi	a0,a0,-5
    68aa:	c008                	sw	a0,0(s0)
    68ac:	e399                	bnez	a5,68b2 <_printf_i+0x158>
    68ae:	8ab2                	mv	s5,a2
    68b0:	cd89                	beqz	a1,68ca <_printf_i+0x170>
    68b2:	8ab2                	mv	s5,a2
    68b4:	02e7f5b3          	remu	a1,a5,a4
    68b8:	1afd                	addi	s5,s5,-1
    68ba:	95b6                	add	a1,a1,a3
    68bc:	218c                	lbu	a1,0(a1)
    68be:	00ba8023          	sb	a1,0(s5)
    68c2:	02e7d5b3          	divu	a1,a5,a4
    68c6:	0ce7f063          	bgeu	a5,a4,6986 <_printf_i+0x22c>
    68ca:	47a1                	li	a5,8
    68cc:	00f71e63          	bne	a4,a5,68e8 <_printf_i+0x18e>
    68d0:	401c                	lw	a5,0(s0)
    68d2:	8b85                	andi	a5,a5,1
    68d4:	cb91                	beqz	a5,68e8 <_printf_i+0x18e>
    68d6:	4058                	lw	a4,4(s0)
    68d8:	481c                	lw	a5,16(s0)
    68da:	00e7c763          	blt	a5,a4,68e8 <_printf_i+0x18e>
    68de:	03000793          	li	a5,48
    68e2:	fefa8fa3          	sb	a5,-1(s5)
    68e6:	1afd                	addi	s5,s5,-1
    68e8:	41560633          	sub	a2,a2,s5
    68ec:	c810                	sw	a2,16(s0)
    68ee:	874e                	mv	a4,s3
    68f0:	86ca                	mv	a3,s2
    68f2:	0070                	addi	a2,sp,12
    68f4:	85a2                	mv	a1,s0
    68f6:	8526                	mv	a0,s1
    68f8:	d57ff0ef          	jal	ra,664e <_printf_common>
    68fc:	5a7d                	li	s4,-1
    68fe:	0b451d63          	bne	a0,s4,69b8 <_printf_i+0x25e>
    6902:	557d                	li	a0,-1
    6904:	50b2                	lw	ra,44(sp)
    6906:	5422                	lw	s0,40(sp)
    6908:	5492                	lw	s1,36(sp)
    690a:	5902                	lw	s2,32(sp)
    690c:	49f2                	lw	s3,28(sp)
    690e:	4a62                	lw	s4,24(sp)
    6910:	4ad2                	lw	s5,20(sp)
    6912:	4b42                	lw	s6,16(sp)
    6914:	6145                	addi	sp,sp,48
    6916:	8082                	ret
    6918:	04d582a3          	sb	a3,69(a1)
    691c:	00001697          	auipc	a3,0x1
    6920:	30868693          	addi	a3,a3,776 # 7c24 <__sf_fake_stdout+0x34>
    6924:	400c                	lw	a1,0(s0)
    6926:	4308                	lw	a0,0(a4)
    6928:	0805f813          	andi	a6,a1,128
    692c:	411c                	lw	a5,0(a0)
    692e:	0511                	addi	a0,a0,4
    6930:	02080d63          	beqz	a6,696a <_printf_i+0x210>
    6934:	c308                	sw	a0,0(a4)
    6936:	0015f713          	andi	a4,a1,1
    693a:	c701                	beqz	a4,6942 <_printf_i+0x1e8>
    693c:	0205e593          	ori	a1,a1,32
    6940:	c00c                	sw	a1,0(s0)
    6942:	4741                	li	a4,16
    6944:	fbb9                	bnez	a5,689a <_printf_i+0x140>
    6946:	400c                	lw	a1,0(s0)
    6948:	fdf5f593          	andi	a1,a1,-33
    694c:	c00c                	sw	a1,0(s0)
    694e:	b7b1                	j	689a <_printf_i+0x140>
    6950:	419c                	lw	a5,0(a1)
    6952:	0207e793          	ori	a5,a5,32
    6956:	c19c                	sw	a5,0(a1)
    6958:	07800793          	li	a5,120
    695c:	04f402a3          	sb	a5,69(s0)
    6960:	00001697          	auipc	a3,0x1
    6964:	2d868693          	addi	a3,a3,728 # 7c38 <__sf_fake_stdout+0x48>
    6968:	bf75                	j	6924 <_printf_i+0x1ca>
    696a:	0405f813          	andi	a6,a1,64
    696e:	c308                	sw	a0,0(a4)
    6970:	fc0803e3          	beqz	a6,6936 <_printf_i+0x1dc>
    6974:	07c2                	slli	a5,a5,0x10
    6976:	83c1                	srli	a5,a5,0x10
    6978:	bf7d                	j	6936 <_printf_i+0x1dc>
    697a:	00001697          	auipc	a3,0x1
    697e:	2aa68693          	addi	a3,a3,682 # 7c24 <__sf_fake_stdout+0x34>
    6982:	4721                	li	a4,8
    6984:	bf19                	j	689a <_printf_i+0x140>
    6986:	87ae                	mv	a5,a1
    6988:	b735                	j	68b4 <_printf_i+0x15a>
    698a:	4194                	lw	a3,0(a1)
    698c:	431c                	lw	a5,0(a4)
    698e:	49cc                	lw	a1,20(a1)
    6990:	0806f813          	andi	a6,a3,128
    6994:	00478513          	addi	a0,a5,4
    6998:	00080663          	beqz	a6,69a4 <_printf_i+0x24a>
    699c:	c308                	sw	a0,0(a4)
    699e:	439c                	lw	a5,0(a5)
    69a0:	c38c                	sw	a1,0(a5)
    69a2:	a039                	j	69b0 <_printf_i+0x256>
    69a4:	c308                	sw	a0,0(a4)
    69a6:	0406f693          	andi	a3,a3,64
    69aa:	439c                	lw	a5,0(a5)
    69ac:	daf5                	beqz	a3,69a0 <_printf_i+0x246>
    69ae:	a38e                	sh	a1,0(a5)
    69b0:	00042823          	sw	zero,16(s0)
    69b4:	8ab2                	mv	s5,a2
    69b6:	bf25                	j	68ee <_printf_i+0x194>
    69b8:	4814                	lw	a3,16(s0)
    69ba:	8656                	mv	a2,s5
    69bc:	85ca                	mv	a1,s2
    69be:	8526                	mv	a0,s1
    69c0:	9982                	jalr	s3
    69c2:	f54500e3          	beq	a0,s4,6902 <_printf_i+0x1a8>
    69c6:	401c                	lw	a5,0(s0)
    69c8:	8b89                	andi	a5,a5,2
    69ca:	e78d                	bnez	a5,69f4 <_printf_i+0x29a>
    69cc:	47b2                	lw	a5,12(sp)
    69ce:	4448                	lw	a0,12(s0)
    69d0:	f2f55ae3          	bge	a0,a5,6904 <_printf_i+0x1aa>
    69d4:	853e                	mv	a0,a5
    69d6:	b73d                	j	6904 <_printf_i+0x1aa>
    69d8:	4685                	li	a3,1
    69da:	8656                	mv	a2,s5
    69dc:	85ca                	mv	a1,s2
    69de:	8526                	mv	a0,s1
    69e0:	9982                	jalr	s3
    69e2:	f36500e3          	beq	a0,s6,6902 <_printf_i+0x1a8>
    69e6:	0a05                	addi	s4,s4,1
    69e8:	445c                	lw	a5,12(s0)
    69ea:	4732                	lw	a4,12(sp)
    69ec:	8f99                	sub	a5,a5,a4
    69ee:	fefa45e3          	blt	s4,a5,69d8 <_printf_i+0x27e>
    69f2:	bfe9                	j	69cc <_printf_i+0x272>
    69f4:	4a01                	li	s4,0
    69f6:	01940a93          	addi	s5,s0,25
    69fa:	5b7d                	li	s6,-1
    69fc:	b7f5                	j	69e8 <_printf_i+0x28e>

000069fe <_read_r>:
    69fe:	1141                	addi	sp,sp,-16
    6a00:	c422                	sw	s0,8(sp)
    6a02:	842a                	mv	s0,a0
    6a04:	852e                	mv	a0,a1
    6a06:	85b2                	mv	a1,a2
    6a08:	8636                	mv	a2,a3
    6a0a:	20002797          	auipc	a5,0x20002
    6a0e:	d807ab23          	sw	zero,-618(a5) # 200087a0 <errno>
    6a12:	c606                	sw	ra,12(sp)
    6a14:	288d                	jal	6a86 <_read>
    6a16:	57fd                	li	a5,-1
    6a18:	00f51963          	bne	a0,a5,6a2a <_read_r+0x2c>
    6a1c:	20002797          	auipc	a5,0x20002
    6a20:	d8478793          	addi	a5,a5,-636 # 200087a0 <errno>
    6a24:	439c                	lw	a5,0(a5)
    6a26:	c391                	beqz	a5,6a2a <_read_r+0x2c>
    6a28:	c01c                	sw	a5,0(s0)
    6a2a:	40b2                	lw	ra,12(sp)
    6a2c:	4422                	lw	s0,8(sp)
    6a2e:	0141                	addi	sp,sp,16
    6a30:	8082                	ret

00006a32 <_malloc_usable_size_r>:
    6a32:	ffc5a783          	lw	a5,-4(a1)
    6a36:	ffc78513          	addi	a0,a5,-4
    6a3a:	0007d563          	bgez	a5,6a44 <_malloc_usable_size_r+0x12>
    6a3e:	95aa                	add	a1,a1,a0
    6a40:	419c                	lw	a5,0(a1)
    6a42:	953e                	add	a0,a0,a5
    6a44:	8082                	ret

00006a46 <_close>:
    6a46:	05800793          	li	a5,88
    6a4a:	20002717          	auipc	a4,0x20002
    6a4e:	d4f72b23          	sw	a5,-682(a4) # 200087a0 <errno>
    6a52:	557d                	li	a0,-1
    6a54:	8082                	ret

00006a56 <_fstat>:
    6a56:	05800793          	li	a5,88
    6a5a:	20002717          	auipc	a4,0x20002
    6a5e:	d4f72323          	sw	a5,-698(a4) # 200087a0 <errno>
    6a62:	557d                	li	a0,-1
    6a64:	8082                	ret

00006a66 <_isatty>:
    6a66:	05800793          	li	a5,88
    6a6a:	20002717          	auipc	a4,0x20002
    6a6e:	d2f72b23          	sw	a5,-714(a4) # 200087a0 <errno>
    6a72:	4501                	li	a0,0
    6a74:	8082                	ret

00006a76 <_lseek>:
    6a76:	05800793          	li	a5,88
    6a7a:	20002717          	auipc	a4,0x20002
    6a7e:	d2f72323          	sw	a5,-730(a4) # 200087a0 <errno>
    6a82:	557d                	li	a0,-1
    6a84:	8082                	ret

00006a86 <_read>:
    6a86:	05800793          	li	a5,88
    6a8a:	20002717          	auipc	a4,0x20002
    6a8e:	d0f72b23          	sw	a5,-746(a4) # 200087a0 <errno>
    6a92:	557d                	li	a0,-1
    6a94:	8082                	ret
    6a96:	0000                	unimp
    6a98:	03d0                	addi	a2,sp,452
    6a9a:	0000                	unimp
    6a9c:	03de                	slli	t2,t2,0x17
    6a9e:	0000                	unimp
    6aa0:	03ea                	slli	t2,t2,0x1a
    6aa2:	0000                	unimp
    6aa4:	03f0                	addi	a2,sp,460
    6aa6:	0000                	unimp
    6aa8:	03f6                	slli	t2,t2,0x1d
    6aaa:	0000                	unimp
    6aac:	03fe                	slli	t2,t2,0x1f
    6aae:	0000                	unimp
    6ab0:	042e                	slli	s0,s0,0xb
    6ab2:	0000                	unimp
    6ab4:	636d                	lui	t1,0x1b
    6ab6:	7561                	lui	a0,0xffff8
    6ab8:	253a6573          	csrrsi	a0,0x253,20
    6abc:	3830                	lbu	a2,19(s0)
    6abe:	0d78                	addi	a4,sp,668
    6ac0:	000a                	c.slli	zero,0x2
    6ac2:	0000                	unimp
    6ac4:	746d                	lui	s0,0xffffb
    6ac6:	6176                	flw	ft2,92(sp)
    6ac8:	3a6c                	lbu	a1,23(a2)
    6aca:	3025                	jal	62f2 <_svfiprintf_r+0x206>
    6acc:	7838                	flw	fa4,112(s0)
    6ace:	0a0d                	addi	s4,s4,3
    6ad0:	0000                	unimp
    6ad2:	0000                	unimp
    6ad4:	656d                	lui	a0,0x1b
    6ad6:	6370                	flw	fa2,68(a4)
    6ad8:	253a                	lhu	a4,10(a0)
    6ada:	3830                	lbu	a2,19(s0)
    6adc:	0d78                	addi	a4,sp,668
    6ade:	000a                	c.slli	zero,0x2
    6ae0:	6e49                	lui	t3,0x12
    6ae2:	6176                	flw	ft2,92(sp)
    6ae4:	696c                	flw	fa1,84(a0)
    6ae6:	2064                	lbu	s1,6(s0)
    6ae8:	6164                	flw	fs1,68(a0)
    6aea:	6174                	flw	fa3,68(a0)
    6aec:	6c20                	flw	fs0,88(s0)
    6aee:	6e65                	lui	t3,0x19
    6af0:	3a687467          	0x3a687467
    6af4:	2520                	lbu	s0,10(a0)
    6af6:	0d64                	addi	s1,sp,668
    6af8:	000a                	c.slli	zero,0x2
    6afa:	0000                	unimp
    6afc:	74737953          	0x74737953
    6b00:	6d65                	lui	s10,0x19
    6b02:	3a6b6c43          	fmadd.d	fs8,fs6,ft6,ft7,unknown
    6b06:	6425                	lui	s0,0x9
    6b08:	0a0d                	addi	s4,s4,3
    6b0a:	0000                	unimp
    6b0c:	70696843          	fmadd.s	fa6,fs2,ft6,fa4,unknown
    6b10:	4449                	li	s0,18
    6b12:	253a                	lhu	a4,10(a0)
    6b14:	3830                	lbu	a2,19(s0)
    6b16:	0d78                	addi	a4,sp,668
    6b18:	000a                	c.slli	zero,0x2
    6b1a:	0000                	unimp
    6b1c:	6874                	flw	fa3,84(s0)
    6b1e:	6572                	flw	fa0,28(sp)
    6b20:	6461                	lui	s0,0x18
    6b22:	455f 6e69 006b      	0x6b6e69455f
    6b28:	61657243          	fmadd.s	ft4,fa0,fs6,fa2
    6b2c:	6974                	flw	fa3,84(a0)
    6b2e:	676e                	flw	fa4,216(sp)
    6b30:	7420                	flw	fs0,104(s0)
    6b32:	7268                	flw	fa0,100(a2)
    6b34:	6165                	addi	sp,sp,112
    6b36:	5f64                	lw	s1,124(a4)
    6b38:	6945                	lui	s2,0x11
    6b3a:	6b6e                	flw	fs6,216(sp)
    6b3c:	7420                	flw	fs0,104(s0)
    6b3e:	7361                	lui	t1,0xffff8
    6b40:	00002e6b          	0x2e6b
    6b44:	61657263          	bgeu	a0,s6,7148 <__FUNCTION__.6930+0x94>
    6b48:	6574                	flw	fa3,76(a0)
    6b4a:	7420                	flw	fs0,104(s0)
    6b4c:	7268                	flw	fa0,100(a2)
    6b4e:	6165                	addi	sp,sp,112
    6b50:	5f64                	lw	s1,124(a4)
    6b52:	6945                	lui	s2,0x11
    6b54:	6b6e                	flw	fs6,216(sp)
    6b56:	6620                	flw	fs0,72(a2)
    6b58:	6961                	lui	s2,0x18
    6b5a:	656c                	flw	fa1,76(a0)
    6b5c:	0064                	addi	s1,sp,12
    6b5e:	0000                	unimp
    6b60:	6874                	flw	fa3,84(s0)
    6b62:	6572                	flw	fa0,28(sp)
    6b64:	6461                	lui	s0,0x18
    6b66:	575f 4649 0049      	0x494649575f
    6b6c:	61657243          	fmadd.s	ft4,fa0,fs6,fa2
    6b70:	6974                	flw	fa3,84(a0)
    6b72:	676e                	flw	fa4,216(sp)
    6b74:	7420                	flw	fs0,104(s0)
    6b76:	7268                	flw	fa0,100(a2)
    6b78:	6165                	addi	sp,sp,112
    6b7a:	5f64                	lw	s1,124(a4)
    6b7c:	49464957          	0x49464957
    6b80:	7420                	flw	fs0,104(s0)
    6b82:	7361                	lui	t1,0xffff8
    6b84:	00002e6b          	0x2e6b
    6b88:	61657263          	bgeu	a0,s6,718c <__FUNCTION__.6856+0x4>
    6b8c:	6574                	flw	fa3,76(a0)
    6b8e:	7420                	flw	fs0,104(s0)
    6b90:	7268                	flw	fa0,100(a2)
    6b92:	6165                	addi	sp,sp,112
    6b94:	5f64                	lw	s1,124(a4)
    6b96:	49464957          	0x49464957
    6b9a:	6620                	flw	fs0,72(a2)
    6b9c:	6961                	lui	s2,0x18
    6b9e:	656c                	flw	fa1,76(a0)
    6ba0:	0064                	addi	s1,sp,12
    6ba2:	0000                	unimp
    6ba4:	8be8                	0x8be8
    6ba6:	9eb7e58f          	0x9eb7e58f
    6baa:	9ee6                	add	t4,t4,s9
    6bac:	e790                	fsw	fa2,8(a5)
    6bae:	bdbe                	sh	a5,58(a1)
    6bb0:	bfe4                	sb	s1,31(a5)
    6bb2:	e6a1                	bnez	a3,6bfa <_read+0x174>
    6bb4:	af81                	j	7304 <__func__.6102+0xb8>
    6bb6:	0000                	unimp
    6bb8:	6945                	lui	s2,0x11
    6bba:	6b6e                	flw	fs6,216(sp)
    6bbc:	7420                	flw	fs0,104(s0)
    6bbe:	7268                	flw	fa0,100(a2)
    6bc0:	6165                	addi	sp,sp,112
    6bc2:	2064                	lbu	s1,6(s0)
    6bc4:	72617473          	csrrci	s0,0x726,2
    6bc8:	6574                	flw	fa3,76(a0)
    6bca:	2e64                	lbu	s1,30(a2)
    6bcc:	0000                	unimp
    6bce:	0000                	unimp
    6bd0:	5045                	c.li	zero,-15
    6bd2:	2044                	lbu	s1,4(s0)
    6bd4:	6e49                	lui	t3,0x12
    6bd6:	7469                	lui	s0,0xffffa
    6bd8:	6169                	addi	sp,sp,208
    6bda:	696c                	flw	fa1,84(a0)
    6bdc:	657a                	flw	fa0,156(sp)
    6bde:	2e64                	lbu	s1,30(a2)
    6be0:	0000                	unimp
    6be2:	0000                	unimp
    6be4:	6946                	flw	fs2,80(sp)
    6be6:	7372                	flw	ft6,60(sp)
    6be8:	2074                	lbu	a3,6(s0)
    6bea:	6d69                	lui	s10,0x1a
    6bec:	6761                	lui	a4,0x18
    6bee:	2065                	jal	6c96 <_read+0x210>
    6bf0:	7270                	flw	fa2,100(a2)
    6bf2:	7065                	c.lui	zero,0xffff9
    6bf4:	7261                	lui	tp,0xffff8
    6bf6:	6465                	lui	s0,0x19
    6bf8:	002e                	c.slli	zero,0xb
    6bfa:	0000                	unimp
    6bfc:	6946                	flw	fs2,80(sp)
    6bfe:	7372                	flw	ft6,60(sp)
    6c00:	2074                	lbu	a3,6(s0)
    6c02:	6d69                	lui	s10,0x1a
    6c04:	6761                	lui	a4,0x18
    6c06:	2065                	jal	6cae <_read+0x228>
    6c08:	6964                	flw	fs1,84(a0)
    6c0a:	616c7073          	csrci	0x616,24
    6c0e:	6579                	lui	a0,0x1e
    6c10:	2e64                	lbu	s1,30(a2)
    6c12:	0000                	unimp
    6c14:	9ce6                	add	s9,s9,s9
    6c16:	e7aa                	fsw	fa0,204(sp)
    6c18:	a59f 91e5 e4bd      	0xe4bd91e5a59f
    6c1e:	b1e7a4bb          	0xb1e7a4bb
    6c22:	8b9ee5bb          	0x8b9ee5bb
    6c26:	203a                	lhu	a4,2(s0)
    6c28:	3025                	jal	6450 <_vfiprintf_r+0x90>
    6c2a:	5832                	lw	a6,44(sp)
    6c2c:	0a0d                	addi	s4,s4,3
    6c2e:	0000                	unimp
    6c30:	8ee6                	mv	t4,s9
    6c32:	e6a5                	bnez	a3,6c9a <_read+0x214>
    6c34:	b694                	sb	a3,9(a3)
    6c36:	9be5                	andi	a5,a5,-7
    6c38:	e5be                	fsw	fa5,200(sp)
    6c3a:	8ce58f83          	lb	t6,-1842(a1)
    6c3e:	ef85                	bnez	a5,6c76 <_read+0x1f0>
    6c40:	9abc                	0x9abc
    6c42:	6425                	lui	s0,0x9
    6c44:	2c64252f          	0x2c64252f
    6c48:	e920                	fsw	fs0,80(a0)
    6c4a:	bf95                	j	6bbe <_read+0x138>
    6c4c:	bae5                	j	6644 <_vfiprintf_r+0x284>
    6c4e:	3aa6                	lhu	s1,50(a3)
    6c50:	2520                	lbu	s0,10(a0)
    6c52:	0d64                	addi	s1,sp,668
    6c54:	000a                	c.slli	zero,0x2
    6c56:	0000                	unimp
    6c58:	e4acace7          	0xe4acace7
    6c5c:	80b8                	lhu	a4,16(sp)
    6c5e:	8ce5                	and	s1,s1,s1
    6c60:	e585                	bnez	a1,6c88 <_read+0x202>
    6c62:	83e5be9b          	0x83e5be9b
    6c66:	94e52c8f          	0x94e52c8f
    6c6a:	e9a4                	fsw	fs1,80(a1)
    6c6c:	9286                	add	t0,t0,ra
    6c6e:	b1e5                	j	6956 <_printf_i+0x1fc>
    6c70:	95b9e58f          	0x95b9e58f
    6c74:	000d                	c.nop	3
    6c76:	0000                	unimp
    6c78:	8ee6                	mv	t4,s9
    6c7a:	e6a5                	bnez	a3,6ce2 <_read+0x25c>
    6c7c:	b694                	sb	a3,9(a3)
    6c7e:	aee5                	j	7076 <_read+0x5f0>
    6c80:	e68c                	fsw	fa1,8(a3)
    6c82:	9088                	0x9088
    6c84:	e52c                	fsw	fa1,72(a0)
    6c86:	80bc                	lhu	a5,16(sp)
    6c88:	a7e5                	j	7470 <Font24CN_Table+0x10c>
    6c8a:	b788e58b          	0xb788e58b
    6c8e:	96e6                	add	a3,a3,s9
    6c90:	e5b0                	fsw	fa2,72(a1)
    6c92:	8fb1                	xor	a5,a5,a2
    6c94:	b9e5                	j	698c <_printf_i+0x232>
    6c96:	0d95                	addi	s11,s11,5
    6c98:	0000                	unimp
    6c9a:	0000                	unimp
    6c9c:	49464957          	0x49464957
    6ca0:	7420                	flw	fs0,104(s0)
    6ca2:	7268                	flw	fa0,100(a2)
    6ca4:	6165                	addi	sp,sp,112
    6ca6:	2064                	lbu	s1,6(s0)
    6ca8:	72617473          	csrrci	s0,0x726,2
    6cac:	6574                	flw	fa3,76(a0)
    6cae:	2e64                	lbu	s1,30(a2)
    6cb0:	0000                	unimp
    6cb2:	0000                	unimp
    6cb4:	49464957          	0x49464957
    6cb8:	4920                	lw	s0,80(a0)
    6cba:	696e                	flw	fs2,216(sp)
    6cbc:	6974                	flw	fa3,84(a0)
    6cbe:	6c61                	lui	s8,0x18
    6cc0:	7a69                	lui	s4,0xffffa
    6cc2:	6465                	lui	s0,0x19
    6cc4:	002e                	c.slli	zero,0xb
    6cc6:	0000                	unimp
    6cc8:	6978                	flw	fa4,84(a0)
    6cca:	7579                	lui	a0,0xffffe
    6ccc:	696a656b          	0x696a656b
    6cd0:	3331                	jal	69dc <_printf_i+0x282>
    6cd2:	0032302b          	0x32302b
    6cd6:	0000                	unimp
    6cd8:	3331                	jal	69e4 <_printf_i+0x28a>
    6cda:	3230                	lbu	a2,3(a2)
    6cdc:	0000                	unimp
    6cde:	0000                	unimp
    6ce0:	6e6e6f43          	fmadd.q	ft10,ft8,ft6,fa3,unknown
    6ce4:	6365                	lui	t1,0x19
    6ce6:	6574                	flw	fa3,76(a0)
    6ce8:	2064                	lbu	s1,6(s0)
    6cea:	6f74                	flw	fa3,92(a4)
    6cec:	5720                	lw	s0,104(a4)
    6cee:	4669                	li	a2,26
    6cf0:	2069                	jal	6d7a <_read+0x2f4>
    6cf2:	63637573          	csrrci	a0,0x636,6
    6cf6:	7365                	lui	t1,0xffff9
    6cf8:	6c756673          	csrrsi	a2,0x6c7,10
    6cfc:	796c                	flw	fa1,116(a0)
    6cfe:	002e                	c.slli	zero,0xb
    6d00:	6146                	flw	ft2,80(sp)
    6d02:	6c69                	lui	s8,0x1a
    6d04:	6465                	lui	s0,0x19
    6d06:	7420                	flw	fs0,104(s0)
    6d08:	6f63206f          	j	393fe <_data_lma+0x317b2>
    6d0c:	6e6e                	flw	ft8,216(sp)
    6d0e:	6365                	lui	t1,0x19
    6d10:	2074                	lbu	a3,6(s0)
    6d12:	6f74                	flw	fa3,92(a4)
    6d14:	5720                	lw	s0,104(a4)
    6d16:	4669                	li	a2,26
    6d18:	2e69                	jal	70b2 <__FUNCTION__.6873+0xa>
    6d1a:	0000                	unimp
    6d1c:	3131                	jal	6928 <_printf_i+0x1ce>
    6d1e:	3534                	lbu	a3,11(a0)
    6d20:	0031                	c.nop	12
    6d22:	0000                	unimp
    6d24:	3931                	jal	6940 <_printf_i+0x1e6>
    6d26:	2e32                	lhu	a2,26(a2)
    6d28:	3631                	jal	6834 <_printf_i+0xda>
    6d2a:	2e38                	lbu	a4,26(a2)
    6d2c:	36362e33          	0x36362e33
    6d30:	0000                	unimp
    6d32:	0000                	unimp
    6d34:	5245                	li	tp,-15
    6d36:	0052                	c.slli	zero,0x14
    6d38:	5d73255b          	0x5d73255b
    6d3c:	0000                	unimp
    6d3e:	0000                	unimp
    6d40:	276e6163          	bltu	t3,s6,6fa2 <_read+0x51c>
    6d44:	2074                	lbu	a3,6(s0)
    6d46:	7375                	lui	t1,0xffffd
    6d48:	2065                	jal	6df0 <_read+0x36a>
    6d4a:	554e                	lw	a0,240(sp)
    6d4c:	4c4c                	lw	a1,28(s0)
    6d4e:	6120                	flw	fs0,64(a0)
    6d50:	6464                	flw	fs1,76(s0)
    6d52:	2072                	lhu	a2,6(s0)
    6d54:	6f74                	flw	fa3,92(a4)
    6d56:	7320                	flw	fs0,96(a4)
    6d58:	7661                	lui	a2,0xffff8
    6d5a:	2065                	jal	6e02 <_read+0x37c>
    6d5c:	6e69                	lui	t3,0x1a
    6d5e:	6f66                	flw	ft10,88(sp)
    6d60:	0000                	unimp
    6d62:	0000                	unimp
    6d64:	6e6f7277          	0x6e6f7277
    6d68:	656d2067          	0x656d2067
    6d6c:	206d                	jal	6e16 <_read+0x390>
    6d6e:	6f70                	flw	fa2,92(a4)
    6d70:	61206c6f          	jal	s8,d382 <_data_lma+0x5736>
    6d74:	6464                	flw	fs1,76(s0)
    6d76:	3a72                	lhu	a2,54(a2)
    6d78:	3020                	lbu	s0,3(s0)
    6d7a:	2578                	lbu	a4,14(a0)
    6d7c:	2c78                	lbu	a4,30(s0)
    6d7e:	6c20                	flw	fs0,88(s0)
    6d80:	6e69                	lui	t3,0x1a
    6d82:	3a65                	jal	673a <_printf_common+0xec>
    6d84:	6425                	lui	s0,0x9
    6d86:	000a                	c.slli	zero,0x2
    6d88:	694c                	flw	fa1,20(a0)
    6d8a:	6574                	flw	fa3,76(a0)
    6d8c:	6820534f          	fnmadd.s	ft6,ft0,ft2,fa3,unknown
    6d90:	6165                	addi	sp,sp,112
    6d92:	2070                	lbu	a2,6(s0)
    6d94:	656d                	lui	a0,0x1b
    6d96:	6f6d                	lui	t5,0x1b
    6d98:	7972                	flw	fs2,60(sp)
    6d9a:	6120                	flw	fs0,64(a0)
    6d9c:	6464                	flw	fs1,76(s0)
    6d9e:	6572                	flw	fa0,28(sp)
    6da0:	6f207373          	csrrci	t1,0x6f2,0
    6da4:	2072                	lhu	a2,6(s0)
    6da6:	657a6973          	csrrsi	s2,0x657,20
    6daa:	6320                	flw	fs0,64(a4)
    6dac:	69666e6f          	jal	t3,6d442 <_data_lma+0x657f6>
    6db0:	65727567          	0x65727567
    6db4:	2064                	lbu	s1,6(s0)
    6db6:	6f6e                	flw	ft10,216(sp)
    6db8:	2074                	lbu	a3,6(s0)
    6dba:	6c61                	lui	s8,0x18
    6dbc:	6769                	lui	a4,0x1a
    6dbe:	656e                	flw	fa0,216(sp)
    6dc0:	3a64                	lbu	s1,23(a2)
    6dc2:	6461                	lui	s0,0x18
    6dc4:	7264                	flw	fs1,100(a2)
    6dc6:	7365                	lui	t1,0xffff9
    6dc8:	78303a73          	csrrc	s4,0x783,zero
    6dcc:	7825                	lui	a6,0xfffe9
    6dce:	732c                	flw	fa1,96(a4)
    6dd0:	7a69                	lui	s4,0xffffa
    6dd2:	3a65                	jal	678a <_printf_i+0x30>
    6dd4:	7830                	flw	fa2,112(s0)
    6dd6:	7825                	lui	a6,0xfffe9
    6dd8:	202c                	lbu	a1,2(s0)
    6dda:	6c61                	lui	s8,0x18
    6ddc:	6769                	lui	a4,0x1a
    6dde:	736e                	flw	ft6,248(sp)
    6de0:	7a69                	lui	s4,0xffffa
    6de2:	3a65                	jal	679a <_printf_i+0x40>
    6de4:	6425                	lui	s0,0x9
    6de6:	000a                	c.slli	zero,0x2
    6de8:	3a73255b          	0x3a73255b
    6dec:	6425                	lui	s0,0x9
    6dee:	675d                	lui	a4,0x17
    6df0:	7061                	c.lui	zero,0xffff8
    6df2:	657a6953          	0x657a6953
    6df6:	303a                	lhu	a4,34(s0)
    6df8:	2578                	lbu	a4,14(a0)
    6dfa:	2078                	lbu	a4,6(s0)
    6dfc:	7265                	lui	tp,0xffff9
    6dfe:	6f72                	flw	ft10,28(sp)
    6e00:	0a72                	slli	s4,s4,0x1c
    6e02:	0000                	unimp
    6e04:	2d2d                	jal	743e <Font24CN_Table+0xda>
    6e06:	2d2d                	jal	7440 <Font24CN_Table+0xdc>
    6e08:	2d2d                	jal	7442 <Font24CN_Table+0xde>
    6e0a:	2d2d                	jal	7444 <Font24CN_Table+0xe0>
    6e0c:	2d2d                	jal	7446 <Font24CN_Table+0xe2>
    6e0e:	2d2d                	jal	7448 <Font24CN_Table+0xe4>
    6e10:	2d2d                	jal	744a <Font24CN_Table+0xe6>
    6e12:	2d2d                	jal	744c <Font24CN_Table+0xe8>
    6e14:	2d2d                	jal	744e <Font24CN_Table+0xea>
    6e16:	2d2d                	jal	7450 <Font24CN_Table+0xec>
    6e18:	2d2d                	jal	7452 <Font24CN_Table+0xee>
    6e1a:	2d2d                	jal	7454 <Font24CN_Table+0xf0>
    6e1c:	2d2d                	jal	7456 <Font24CN_Table+0xf2>
    6e1e:	2d2d                	jal	7458 <Font24CN_Table+0xf4>
    6e20:	2d2d                	jal	745a <Font24CN_Table+0xf6>
    6e22:	2d2d                	jal	745c <Font24CN_Table+0xf8>
    6e24:	2d2d                	jal	745e <Font24CN_Table+0xfa>
    6e26:	2d2d                	jal	7460 <Font24CN_Table+0xfc>
    6e28:	2d2d                	jal	7462 <Font24CN_Table+0xfe>
    6e2a:	2d2d                	jal	7464 <Font24CN_Table+0x100>
    6e2c:	2d2d                	jal	7466 <Font24CN_Table+0x102>
    6e2e:	2d2d                	jal	7468 <Font24CN_Table+0x104>
    6e30:	2d2d                	jal	746a <Font24CN_Table+0x106>
    6e32:	2d2d                	jal	746c <Font24CN_Table+0x108>
    6e34:	2d2d                	jal	746e <Font24CN_Table+0x10a>
    6e36:	2d2d                	jal	7470 <Font24CN_Table+0x10c>
    6e38:	2d2d                	jal	7472 <Font24CN_Table+0x10e>
    6e3a:	2d2d                	jal	7474 <Font24CN_Table+0x110>
    6e3c:	2d2d                	jal	7476 <Font24CN_Table+0x112>
    6e3e:	2d2d                	jal	7478 <Font24CN_Table+0x114>
    6e40:	2d2d                	jal	747a <Font24CN_Table+0x116>
    6e42:	2d2d                	jal	747c <Font24CN_Table+0x118>
    6e44:	2d2d                	jal	747e <Font24CN_Table+0x11a>
    6e46:	2d2d                	jal	7480 <Font24CN_Table+0x11c>
    6e48:	2d2d                	jal	7482 <Font24CN_Table+0x11e>
    6e4a:	2d2d                	jal	7484 <Font24CN_Table+0x120>
    6e4c:	2d2d                	jal	7486 <Font24CN_Table+0x122>
    6e4e:	2d2d                	jal	7488 <Font24CN_Table+0x124>
    6e50:	2d2d                	jal	748a <Font24CN_Table+0x126>
    6e52:	2d2d                	jal	748c <Font24CN_Table+0x128>
    6e54:	2d2d                	jal	748e <Font24CN_Table+0x12a>
    6e56:	2d2d                	jal	7490 <Font24CN_Table+0x12c>
    6e58:	2d2d                	jal	7492 <Font24CN_Table+0x12e>
    6e5a:	2d2d                	jal	7494 <Font24CN_Table+0x130>
    6e5c:	2d2d                	jal	7496 <Font24CN_Table+0x132>
    6e5e:	2d2d                	jal	7498 <Font24CN_Table+0x134>
    6e60:	2d2d                	jal	749a <Font24CN_Table+0x136>
    6e62:	2d2d                	jal	749c <Font24CN_Table+0x138>
    6e64:	2d2d                	jal	749e <Font24CN_Table+0x13a>
    6e66:	2d2d                	jal	74a0 <Font24CN_Table+0x13c>
    6e68:	2d2d                	jal	74a2 <Font24CN_Table+0x13e>
    6e6a:	2d2d                	jal	74a4 <Font24CN_Table+0x140>
    6e6c:	2d2d                	jal	74a6 <Font24CN_Table+0x142>
    6e6e:	002d                	c.nop	11
    6e70:	6f70                	flw	fa2,92(a4)
    6e72:	61206c6f          	jal	s8,d484 <_data_lma+0x5838>
    6e76:	6464                	flw	fs1,76(s0)
    6e78:	2072                	lhu	a2,6(s0)
    6e7a:	2020                	lbu	s0,2(s0)
    6e7c:	2020                	lbu	s0,2(s0)
    6e7e:	2020                	lbu	s0,2(s0)
    6e80:	2020                	lbu	s0,2(s0)
    6e82:	7020                	flw	fs0,96(s0)
    6e84:	206c6f6f          	jal	t5,cd08a <_data_lma+0xc543e>
    6e88:	657a6973          	csrrsi	s2,0x657,20
    6e8c:	2020                	lbu	s0,2(s0)
    6e8e:	2020                	lbu	s0,2(s0)
    6e90:	7375                	lui	t1,0xffffd
    6e92:	6465                	lui	s0,0x19
    6e94:	7320                	flw	fs0,96(a4)
    6e96:	7a69                	lui	s4,0xffffa
    6e98:	2065                	jal	6f40 <_read+0x4ba>
    6e9a:	2020                	lbu	s0,2(s0)
    6e9c:	2020                	lbu	s0,2(s0)
    6e9e:	7266                	flw	ft4,120(sp)
    6ea0:	6565                	lui	a0,0x19
    6ea2:	7320                	flw	fs0,96(a4)
    6ea4:	7a69                	lui	s4,0xffffa
    6ea6:	2065                	jal	6f4e <_read+0x4c8>
    6ea8:	2020                	lbu	s0,2(s0)
    6eaa:	6d20                	flw	fs0,88(a0)
    6eac:	7861                	lui	a6,0xffff8
    6eae:	6620                	flw	fs0,72(a2)
    6eb0:	6572                	flw	fa0,28(sp)
    6eb2:	2065                	jal	6f5a <_read+0x4d4>
    6eb4:	6f6e                	flw	ft10,216(sp)
    6eb6:	6564                	flw	fs1,76(a0)
    6eb8:	7320                	flw	fs0,96(a4)
    6eba:	7a69                	lui	s4,0xffffa
    6ebc:	2065                	jal	6f64 <_read+0x4de>
    6ebe:	2020                	lbu	s0,2(s0)
    6ec0:	7375                	lui	t1,0xffffd
    6ec2:	6465                	lui	s0,0x19
    6ec4:	6e20                	flw	fs0,88(a2)
    6ec6:	2065646f          	jal	s0,5d0cc <_data_lma+0x55480>
    6eca:	756e                	flw	fa0,248(sp)
    6ecc:	206d                	jal	6f76 <_read+0x4f0>
    6ece:	2020                	lbu	s0,2(s0)
    6ed0:	2020                	lbu	s0,2(s0)
    6ed2:	7266                	flw	ft4,120(sp)
    6ed4:	6565                	lui	a0,0x19
    6ed6:	6e20                	flw	fs0,88(a2)
    6ed8:	2065646f          	jal	s0,5d0de <_data_lma+0x55492>
    6edc:	756e                	flw	fa0,248(sp)
    6ede:	206d                	jal	6f88 <_read+0x502>
    6ee0:	2020                	lbu	s0,2(s0)
    6ee2:	2020                	lbu	s0,2(s0)
    6ee4:	5520                	lw	s0,104(a0)
    6ee6:	65676173          	csrrsi	sp,0x656,14
    6eea:	65746157          	0x65746157
    6eee:	4c72                	lw	s8,28(sp)
    6ef0:	6e69                	lui	t3,0x1a
    6ef2:	0065                	c.nop	25
    6ef4:	2d2d                	jal	752e <Font24CN_Table+0x1ca>
    6ef6:	2d2d                	jal	7530 <Font24CN_Table+0x1cc>
    6ef8:	2d2d                	jal	7532 <Font24CN_Table+0x1ce>
    6efa:	2d2d                	jal	7534 <Font24CN_Table+0x1d0>
    6efc:	2d2d                	jal	7536 <Font24CN_Table+0x1d2>
    6efe:	2d2d                	jal	7538 <Font24CN_Table+0x1d4>
    6f00:	2d2d                	jal	753a <Font24CN_Table+0x1d6>
    6f02:	202d                	jal	6f2c <_read+0x4a6>
    6f04:	2020                	lbu	s0,2(s0)
    6f06:	2d20                	lbu	s0,26(a0)
    6f08:	2d2d                	jal	7542 <Font24CN_Table+0x1de>
    6f0a:	2d2d                	jal	7544 <Font24CN_Table+0x1e0>
    6f0c:	2d2d                	jal	7546 <Font24CN_Table+0x1e2>
    6f0e:	202d                	jal	6f38 <_read+0x4b2>
    6f10:	2020                	lbu	s0,2(s0)
    6f12:	2020                	lbu	s0,2(s0)
    6f14:	2d2d                	jal	754e <Font24CN_Table+0x1ea>
    6f16:	2d2d                	jal	7550 <Font24CN_Table+0x1ec>
    6f18:	2d2d                	jal	7552 <Font24CN_Table+0x1ee>
    6f1a:	202d                	jal	6f44 <_read+0x4be>
    6f1c:	2020                	lbu	s0,2(s0)
    6f1e:	2020                	lbu	s0,2(s0)
    6f20:	2020                	lbu	s0,2(s0)
    6f22:	2d2d                	jal	755c <Font24CN_Table+0x1f8>
    6f24:	2d2d                	jal	755e <Font24CN_Table+0x1fa>
    6f26:	2d2d                	jal	7560 <Font24CN_Table+0x1fc>
    6f28:	2d2d                	jal	7562 <Font24CN_Table+0x1fe>
    6f2a:	2020                	lbu	s0,2(s0)
    6f2c:	2020                	lbu	s0,2(s0)
    6f2e:	2d20                	lbu	s0,26(a0)
    6f30:	2d2d                	jal	756a <Font24CN_Table+0x206>
    6f32:	2d2d                	jal	756c <Font24CN_Table+0x208>
    6f34:	2d2d                	jal	756e <Font24CN_Table+0x20a>
    6f36:	2d2d                	jal	7570 <Font24CN_Table+0x20c>
    6f38:	2d2d                	jal	7572 <Font24CN_Table+0x20e>
    6f3a:	2d2d                	jal	7574 <Font24CN_Table+0x210>
    6f3c:	202d                	jal	6f66 <_read+0x4e0>
    6f3e:	2020                	lbu	s0,2(s0)
    6f40:	2020                	lbu	s0,2(s0)
    6f42:	2020                	lbu	s0,2(s0)
    6f44:	2d2d                	jal	757e <Font24CN_Table+0x21a>
    6f46:	2d2d                	jal	7580 <Font24CN_Table+0x21c>
    6f48:	2d2d                	jal	7582 <Font24CN_Table+0x21e>
    6f4a:	2d2d                	jal	7584 <Font24CN_Table+0x220>
    6f4c:	2d2d                	jal	7586 <Font24CN_Table+0x222>
    6f4e:	2d2d                	jal	7588 <Font24CN_Table+0x224>
    6f50:	202d                	jal	6f7a <_read+0x4f4>
    6f52:	2020                	lbu	s0,2(s0)
    6f54:	2020                	lbu	s0,2(s0)
    6f56:	2d20                	lbu	s0,26(a0)
    6f58:	2d2d                	jal	7592 <Font24CN_Table+0x22e>
    6f5a:	2d2d                	jal	7594 <Font24CN_Table+0x230>
    6f5c:	2d2d                	jal	7596 <Font24CN_Table+0x232>
    6f5e:	2d2d                	jal	7598 <Font24CN_Table+0x234>
    6f60:	2d2d                	jal	759a <Font24CN_Table+0x236>
    6f62:	202d                	jal	6f8c <_read+0x506>
    6f64:	2020                	lbu	s0,2(s0)
    6f66:	2020                	lbu	s0,2(s0)
    6f68:	2d20                	lbu	s0,26(a0)
    6f6a:	2d2d                	jal	75a4 <Font24CN_Table+0x240>
    6f6c:	2d2d                	jal	75a6 <Font24CN_Table+0x242>
    6f6e:	2d2d                	jal	75a8 <Font24CN_Table+0x244>
    6f70:	2d2d                	jal	75aa <Font24CN_Table+0x246>
    6f72:	2d2d                	jal	75ac <Font24CN_Table+0x248>
    6f74:	002d                	c.nop	11
    6f76:	0000                	unimp
    6f78:	2d25                	jal	75b0 <Font24CN_Table+0x24c>
    6f7a:	3631                	jal	6a86 <_read>
    6f7c:	2070                	lbu	a2,6(s0)
    6f7e:	2020                	lbu	s0,2(s0)
    6f80:	7830                	flw	fa2,112(s0)
    6f82:	2d25                	jal	75ba <Font24CN_Table+0x256>
    6f84:	7838                	flw	fa4,112(s0)
    6f86:	2020                	lbu	s0,2(s0)
    6f88:	3020                	lbu	s0,3(s0)
    6f8a:	2578                	lbu	a4,14(a0)
    6f8c:	382d                	jal	67c6 <_printf_i+0x6c>
    6f8e:	2078                	lbu	a4,6(s0)
    6f90:	2020                	lbu	s0,2(s0)
    6f92:	3020                	lbu	s0,3(s0)
    6f94:	2578                	lbu	a4,14(a0)
    6f96:	382d                	jal	67d0 <_printf_i+0x76>
    6f98:	2078                	lbu	a4,6(s0)
    6f9a:	2020                	lbu	s0,2(s0)
    6f9c:	7830                	flw	fa2,112(s0)
    6f9e:	2d25                	jal	75d6 <Font24CN_Table+0x272>
    6fa0:	3631                	jal	6aac <_read+0x26>
    6fa2:	2078                	lbu	a4,6(s0)
    6fa4:	2020                	lbu	s0,2(s0)
    6fa6:	7830                	flw	fa2,112(s0)
    6fa8:	2d25                	jal	75e0 <Font24CN_Table+0x27c>
    6faa:	3331                	jal	6cb6 <_read+0x230>
    6fac:	2078                	lbu	a4,6(s0)
    6fae:	2020                	lbu	s0,2(s0)
    6fb0:	3020                	lbu	s0,3(s0)
    6fb2:	2578                	lbu	a4,14(a0)
    6fb4:	312d                	jal	6bde <_read+0x158>
    6fb6:	20207833          	0x20207833
    6fba:	2020                	lbu	s0,2(s0)
    6fbc:	7830                	flw	fa2,112(s0)
    6fbe:	2d25                	jal	75f6 <Font24CN_Table+0x292>
    6fc0:	3331                	jal	6ccc <_read+0x246>
    6fc2:	0a78                	addi	a4,sp,284
    6fc4:	0000                	unimp
    6fc6:	0000                	unimp
    6fc8:	5d73255b          	0x5d73255b
    6fcc:	4e20                	lw	s0,88(a2)
    6fce:	7573206f          	j	39f24 <_data_lma+0x322d8>
    6fd2:	7469                	lui	s0,0xffffa
    6fd4:	6261                	lui	tp,0x18
    6fd6:	656c                	flw	fa1,76(a0)
    6fd8:	6620                	flw	fs0,72(a2)
    6fda:	6572                	flw	fa0,28(sp)
    6fdc:	2065                	jal	7084 <_read+0x5fe>
    6fde:	6c62                	flw	fs8,24(sp)
    6fe0:	2c6b636f          	jal	t1,bd2a6 <_data_lma+0xb565a>
    6fe4:	7220                	flw	fs0,96(a2)
    6fe6:	7165                	addi	sp,sp,-400
    6fe8:	6975                	lui	s2,0x1d
    6fea:	6572                	flw	fa0,28(sp)
    6fec:	6620                	flw	fs0,72(a2)
    6fee:	6572                	flw	fa0,28(sp)
    6ff0:	2065                	jal	7098 <_read+0x612>
    6ff2:	6f6e                	flw	ft10,216(sp)
    6ff4:	6564                	flw	fs1,76(a0)
    6ff6:	7320                	flw	fs0,96(a4)
    6ff8:	7a69                	lui	s4,0xffffa
    6ffa:	3a65                	jal	69b2 <_printf_i+0x258>
    6ffc:	3020                	lbu	s0,3(s0)
    6ffe:	2578                	lbu	a4,14(a0)
    7000:	0a78                	addi	a4,sp,284
    7002:	0000                	unimp
    7004:	654d734f          	0x654d734f
    7008:	466d                	li	a2,27
    700a:	6572                	flw	fa0,28(sp)
    700c:	2065                	jal	70b4 <__FUNCTION__.6930>
    700e:	63656863          	bltu	a0,s6,763e <Font24CN_Table+0x2da>
    7012:	7265206b          	0x7265206b
    7016:	6f72                	flw	ft10,28(sp)
    7018:	2172                	lhu	a2,6(a0)
    701a:	0000                	unimp
    701c:	6854                	flw	fa3,20(s0)
    701e:	2065                	jal	70c6 <__FUNCTION__.6930+0x12>
    7020:	6e69                	lui	t3,0x1a
    7022:	6564                	flw	fs1,76(a0)
    7024:	2078                	lbu	a4,6(s0)
    7026:	6620666f          	jal	a2,d688 <_data_lma+0x5a3c>
    702a:	6572                	flw	fa0,28(sp)
    702c:	2065                	jal	70d4 <__FUNCTION__.6930+0x20>
    702e:	696c                	flw	fa1,84(a0)
    7030:	20737473          	csrrci	s0,0x207,6
    7034:	7369                	lui	t1,0xffffa
    7036:	6520                	flw	fs0,72(a0)
    7038:	7272                	flw	ft4,60(sp)
    703a:	202c726f          	jal	tp,ce23c <_data_lma+0xc65f0>
    703e:	6e69                	lui	t3,0x1a
    7040:	6564                	flw	fs1,76(a0)
    7042:	2078                	lbu	a4,6(s0)
    7044:	203d                	jal	7072 <_read+0x5ec>
    7046:	7525                	lui	a0,0xfffe9
    7048:	000a                	c.slli	zero,0x2
    704a:	0000                	unimp
    704c:	6c66                	flw	fs8,88(sp)
    704e:	6f20                	flw	fs0,88(a4)
    7050:	2072                	lhu	a2,6(s0)
    7052:	657a6973          	csrrsi	s2,0x657,20
    7056:	6920                	flw	fs0,80(a0)
    7058:	6f742073          	csrs	0x6f7,s0
    705c:	6d73206f          	j	39f32 <_data_lma+0x322e6>
    7060:	6c61                	lui	s8,0x18
    7062:	2c6c                	lbu	a1,30(s0)
    7064:	6620                	flw	fs0,72(a2)
    7066:	206c                	lbu	a1,6(s0)
    7068:	203d                	jal	7096 <_read+0x610>
    706a:	7525                	lui	a0,0xfffe9
    706c:	202c                	lbu	a1,2(s0)
    706e:	657a6973          	csrrsi	s2,0x657,20
    7072:	3d20                	lbu	s0,27(a0)
    7074:	2520                	lbu	s0,10(a0)
    7076:	0a75                	addi	s4,s4,29
    7078:	0000                	unimp
    707a:	0000                	unimp
    707c:	694c                	flw	fa1,20(a0)
    707e:	6574                	flw	fa3,76(a0)
    7080:	6820534f          	fnmadd.s	ft6,ft0,ft2,fa3,unknown
    7084:	6165                	addi	sp,sp,112
    7086:	2070                	lbu	a2,6(s0)
    7088:	656d                	lui	a0,0x1b
    708a:	6f6d                	lui	t5,0x1b
    708c:	7972                	flw	fs2,60(sp)
    708e:	6120                	flw	fs0,64(a0)
    7090:	6464                	flw	fs1,76(s0)
    7092:	6572                	flw	fa0,28(sp)
    7094:	253a7373          	csrrci	t1,0x253,20
    7098:	2c70                	lbu	a2,30(s0)
    709a:	7320                	flw	fs0,96(a4)
    709c:	7a69                	lui	s4,0xffffa
    709e:	3a65                	jal	6a56 <_fstat>
    70a0:	7830                	flw	fa2,112(s0)
    70a2:	6c25                	lui	s8,0x9
    70a4:	0a78                	addi	a4,sp,284
	...

000070a8 <__FUNCTION__.6873>:
    70a8:	734f 654d 416d 6c6c 636f 0000               OsMemAlloc..

000070b4 <__FUNCTION__.6930>:
    70b4:	734f 6547 5274 6165 506c 7274 0000 0000     OsGetRealPtr....
    70c4:	6e65 6574 6972 676e 6b20 7265 656e 206c     entering kernel 
    70d4:	6e69 7469 2e2e 002e 734f 654d 536d 7379     init....OsMemSys
    70e4:	6574 496d 696e 2074 7265 6f72 2072 6425     temInit error %d
    70f4:	000a 0000 734f 6154 6b73 6e49 7469 6520     ....OsTaskInit e
    7104:	7272 726f 0000 0000 734f 7551 7565 4965     rror....OsQueueI
    7114:	696e 2074 7265 6f72 0072 0000 734f 7753     nit error...OsSw
    7124:	6d74 4972 696e 2074 7265 6f72 0072 0000     tmrInit error...
    7134:	6d50 6920 696e 2074 6166 6c69 6465 0021     Pm init failed!.
    7144:	6e69 6176 696c 2064 7571 7565 2065 706f     invalid queue op
    7154:	7265 7461 2065 7974 6570 0021 7325 255b     erate type!.%s[%
    7164:	5d64 6d20 6d65 7063 2079 6166 6c69 6465     d] memcpy failed
    7174:	202c 7265 6f72 2072 7974 6570 3d20 2520     , error type = %
    7184:	0a75 0000                                   u...

00007188 <__FUNCTION__.6856>:
    7188:	734f 7551 7565 4265 6675 6566 4f72 6570     OsQueueBufferOpe
    7198:	6172 6574 0000 0000 6e45 6574 6972 676e     rate....Entering
    71a8:	7320 6863 6465 6c75 7265 0000 2e2e 4c2f      scheduler..../L
    71b8:	7469 4f65 2f53 656b 6e72 6c65 732f 6372     iteOS/kernel/src
    71c8:	6c2f 736f 735f 6863 6465 632e 0000 0000     /los_sched.c....
    71d8:	5341 4553 5452 4520 5252 524f 2021 7325     ASSERT ERROR! %s
    71e8:	202c 6425 202c 7325 000a 0000               , %d, %s....

000071f4 <__func__.5962>:
    71f4:	734f 6353 6568 5464 6d69 7265 6142 6573     OsSchedTimerBase
    7204:	6552 6573 0074 0000                         Reset...

0000720c <__func__.5972>:
    720c:	734f 6547 4374 7275 5372 6863 6465 6954     OsGetCurrSchedTi
    721c:	656d 7943 6c63 0065                         meCycle.

00007224 <__func__.5978>:
    7224:	734f 6954 656d 6c53 6369 5565 6470 7461     OsTimeSliceUpdat
    7234:	0065 0000                                   e...

00007238 <__func__.6029>:
    7238:	734f 6353 6568 5464 7361 456b 516e 6575     OsSchedTaskEnQue
    7248:	6575 0000                                   ue..

0000724c <__func__.6102>:
    724c:	4f4c 5f53 6353 6568 5464 6369 486b 6e61     LOS_SchedTickHan
    725c:	6c64 7265 0000 0000 6f53 7472 6c20 6e69     dler....Sort lin
    726c:	206b 7974 6570 6520 7272 726f 3a20 2520     k type error : %
    727c:	0a75 0000 6e49 6176 696c 2064 6f73 7472     u...Invalid sort
    728c:	6c20 6e69 206b 7974 6570 0021 6974 656d      link type!.time
    729c:	5f72 6168 646e 656c 2872 7025 2029 6f63     r_handler(%p) co
    72ac:	7473 7420 6f6f 6d20 6e61 2079 736d 2528     st too many ms(%
    72bc:	2964 000a 7753 5f74 6154 6b73 0000 0000     d)..Swt_Task....
    72cc:	6e49 6320 7361 2065 666f 7420 7361 206b     In case of task 
    72dc:	6f6c 6b63 202c 6174 6b73 6420 6c65 7465     lock, task delet
    72ec:	6f69 206e 7369 6e20 746f 7220 6365 6d6f     ion is not recom
    72fc:	656d 646e 6465 0000 6449 656c 6f43 6572     mended..IdleCore
    730c:	3030 0030 6544 656c 6574 5420 7361 5b6b     000.Delete Task[
    731c:	4954 3a44 2520 5d64 4620 6961 656c 2164     TID: %d] Failed!
    732c:	000a 0000 2e2e 4c2f 7469 4f65 2f53 6f63     ....../LiteOS/co
    733c:	706d 6e6f 6e65 7374 702f 776f 7265 6c2f     mponents/power/l
    734c:	736f 705f 2e6d 0063                         os_pm.c.

00007354 <__func__.6739>:
    7354:	734f 6d50 7043 5375 7375 6570 646e 0000     OsPmCpuSuspend..

00007364 <Font24CN_Table>:
    7364:	8be8 008f 0000 0000 0000 0000 0000 0000     ................
	...
    7380:	0ff0 0000 0ff0 0000 0ff0 0000 0ff0 ff00     ................
    7390:	ffff ffff ffff 7fff ffff 00fe 0ff0 0000     ................
    73a0:	0fff 0000 066f 0000 000f 1f00 ffff 3f80     ....o..........?
    73b0:	ffff 3fc0 ffff 1fc0 ffff 00c0 031e 0fd8     ...?............
    73c0:	031e 0ffc 031e 1efc 033e 3efc 033c 3cfe     ........>..><..<
    73d0:	033c 7cde 037c f8df 0378 f0cf 03f8 61cf     <..||...x......a
    73e0:	03f0 03ce 07e0 07c0 07e0 1f80 ffc7 3f80     ...............?
    73f0:	ff87 7e80 ff07 3c00 fc07 3000 0000 0000     ...~...<...0....
	...
    7408:	0000 e500 9eb7 0000 0000 0000 0000 0000     ................
	...
    7428:	3800 c003 3cf0 c003 3cf0 c003 3cf0 c003     .8...<...<...<..
    7438:	3cf0 c003 3cf0 c003 3cf0 c003 3cf0 c003     .<...<...<...<..
    7448:	3cf0 d83f 3cf6 f83f 3cfe fc3f 3cff fc7b     .<?..<?..<?..<{.
    7458:	3cff de7b bcf7 de7b bcf7 dff3 bcf7 cff3     .<{...{.........
    7468:	fcf3 cef3 bcf3 c067 3cf0 8007 3cf0 8007     ......g..<...<..
    7478:	3cf0 8007 3cf0 8007 3cf0 000f 3cf0 000f     .<...<...<...<..
    7488:	3cf0 001f 3cf0 001e 3cf0 003e 3cf0 007c     .<...<...<>..<|.
    7498:	3cf0 0078 3cf0 0030 3ce0 0000 0000 0000     .<x..<0..<......
	...
    74b0:	0000 9ee6 0090 0000 0000 0000 0000 0000     ................
	...
    74cc:	0700 0000 0700 0000 070c 7f00 07fc ff07     ................
    74dc:	07fe ff07 07f8 c007 0700 8007 ff00 80ff     ................
    74ec:	ff00 80ff 0f00 8007 0f00 8007 0f00 8007     ................
    74fc:	0f00 ffc7 1fff ffe7 1fff fff7 3fff 83ff     .............?..
    750c:	3fc0 837f 7fc0 833f 7fc0 8337 f7c0 8307     .?....?...7.....
    751c:	f7c0 8307 e7c0 8307 67c0 030f 07c0 030f     .........g......
    752c:	07c0 030f 07c0 031e 07c0 031e 07c0 033e     ..............>.
    753c:	07c0 037c 07c0 0378 07c0 0338 00c0 0000     ..|...x...8.....
	...
    7558:	e700 bdbe 0000 0000 0000 0000 0000 0000     ................
	...
    757c:	fe7f fcff fe7f fcff fe7f fcff 1e00 3c00     ...............<
    758c:	1e00 3c00 1e3c 3c78 1e3e 3c78 1e1e 3c3c     ...<<.x<>.x<..<<
    759c:	1e1f 3c3e 1e0f 3c1e 9e07 3c1f de07 3c0f     ..><...<...<...<
    75ac:	1e03 3c0e 7e00 fc00 fe00 fc01 fe03 fc07     ...<.~..........
    75bc:	fe07 fc1f de1f bc3f 1e7f 3cfe 1ffe 3cfc     ......?....<...<
    75cc:	1ef8 3cf0 1e70 3c60 1e00 3c00 1e00 3c00     ...<p.`<...<...<
    75dc:	1e00 3c00 1e00 3c00 fe0f fc1f fe07 f80f     ...<...<........
    75ec:	f807 f00f 0000 0000 0000 0000 0000 0000     ................
    75fc:	0000 0000 bfe4 00a1 0000 0000 0000 0000     ................
	...
    7618:	0000 0100 3880 0300 78c0 0300 3cc0 0300     .....8...x...<..
    7628:	3ec0 0700 ffff 07ff ffff 0fff ffff 0fff     .>..............
    7638:	0000 0f00 0000 1f00 ff1f 1ffc ff3f 3ffc     ............?..?
    7648:	ff3f 3ffc 0000 7f00 0000 ff00 ff1f fffc     ?..?............
    7658:	ff3f effc ff3f effc 0000 0f00 0000 0f00     ?...?...........
    7668:	ff1f 0ff8 ff1f 0ffc ff1f 0ffc 001e 0f3c     ..............<.
    7678:	001e 0f3c 001e 0f3c 001e 0f3c 001e 0f3c     ..<...<...<...<.
    7688:	ff1f 0ffc ff1f 0ffc ff1f 0ffc 001e 0e3c     ..............<.
    7698:	001c 0018 0000 0000 0000 0000 0000 e600     ................
    76a8:	af81 0000 0000 0000 0000 0000 0000 0000     ................
	...
    76c0:	0000 0f00 0000 0f00 0000 0f00 0000 ff0f     ................
    76d0:	f0ff ff0f f0ff ff0f f0ff 000f f000 000f     ................
    76e0:	f000 ff0f f0ff ff0f f0ff ff0f f0ff 000f     ................
    76f0:	f000 ff0f f0ff ff0f f0ff ff0f f0ff 000f     ................
    7700:	f000 000f f000 ff0f f0ff ff0f f0ff ff0f     ................
    7710:	f0ff 070f f000 c738 3880 e33d 7cc0 e13d     ......8..8=..|=.
    7720:	bce3 e179 def3 e079 dfc3 e0f1 8f07 e0f1     ..y...y.........
    7730:	8607 fff1 80ff ff00 00ff 3f00 00fc 0000     ...........?....
	...
    774c:	0000 9ce7 009f 0000 0000 0000 0000 0000     ................
	...
    7768:	0000 c003 0000 c003 7f00 ffff fffe ffff     ................
    7778:	fffe ffff 00fe c003 0000 c003 0700 ffff     ................
    7788:	07e0 ffff 07e0 0000 07e0 0000 07e0 ffff     ................
    7798:	07e0 ffff 07e0 0000 07e0 0000 07e0 ffff     ................
    77a8:	07e0 ffff 07e0 0000 07e0 0000 07e0 ffff     ................
    77b8:	07e0 ffff 07e0 0000 07e0 0000 ffe0 ffff     ................
    77c8:	ffff ffff 7fff ffff 00fe 3ffc 0780 3ffc     ...........?...?
    77d8:	3ff0 07f0 7ffe 0080 7cfe 0000 303e 0000     .?.......|..>0..
	...
    77f4:	e500 a397 0000 0000 0000 0000 0000 0000     ................
	...
    7814:	fe1f 0000 ff3f fe7f ff3f fe7f 0f3c fe7f     ....?...?...<...
    7824:	0f3c 1e00 0f3c 1e00 0f3c 1e00 ff3f fe7f     <...<...<...?...
    7834:	ff3f fe7f 0f3c de7f 0000 1e00 0000 1e00     ?...<...........
    7844:	ff7f debf ff7f debf bb77 debf bb77 deb9     ........w...w...
    7854:	bb77 deb9 bb77 deb9 bb77 deb9 ff7f deb9     w...w...w.......
    7864:	ff7f deb9 bb77 debf bb77 debf bb77 debf     ....w...w...w...
    7874:	bb77 1eb8 bb77 1eb8 bb77 1e80 0773 fc87     w...w...w...s...
    7884:	3f70 fc87 3f70 f807 0000 0000 0000 0000     p?..p?..........
	...
    789c:	4b4f 0000 5245 4f52 0052 0000 4146 4c49     OK..ERROR...FAIL
    78ac:	0000 0000 2b2b 002b 5441 3045 0a0d 0000     ....+++.ATE0....
    78bc:	8ae7 e6b6 8180 bcef 259a 0d64 000a 0000     .........%d.....
    78cc:	9be5 e69e be98 85e5 e9b3 ad97 88e6 e590     ................
    78dc:	9f8a 000d bce5 e580 8ba7 aee8 e7be aebd     ................
    78ec:	4957 4946 a8e6 e5a1 8fbc b8e4 53ba 4154     WIFI.........STA
    78fc:	a8e6 e5a1 8fbc 0000 5441 432b 4d57 444f     ........AT+CWMOD
    790c:	3d45 0000 7325 6425 0a0d 0000 aee8 e7be     E=..%s%d........
    791c:	aebd 4957 4946 a8e6 e5a1 8fbc b8e4 53ba     ..WIFI.........S
    792c:	4154 a8e6 e5a1 8fbc 88e6 e590 9f8a 000d     TA..............
    793c:	5441 432b 4157 5455 434f 4e4f 3d4e 0d30     AT+CWAUTOCONN=0.
    794c:	000a 0000 002c 0000 5441 432b 4a57 5041     ....,...AT+CWJAP
    795c:	003d 0000 7325 2522 2273 7325 2522 2273     =...%s"%s"%s"%s"
    796c:	0a0d 0000 8fe5 e991 8180 5441 8ce6 e487     ..........AT....
    797c:	a4bb e728 acac 6425 ace6 29a1 203a 7325     ..(...%d...): %s
    798c:	0000 0000 91e5 e4bd a4bb 89e6 e8a7 8ca1     ................
    799c:	88e6 e590 9f8a 000d 91e5 e4bd a4bb 89e6     ................
    79ac:	e8a7 8ca1 a4e5 e8b1 a5b4 bcef e58c 8687     ................
    79bc:	a4e5 e987 8d87 afe8 0d95 0000 91e5 e4bd     ................
    79cc:	a4bb b6e8 e685 b697 bcef e68c a097 93e5     ................
    79dc:	e58d 94ba 000d 0000 91e5 e4bd a4bb 89e6     ................
    79ec:	e8a7 8ca1 a4e5 e8b1 a5b4 bcef e58c b2b7     ................
    79fc:	87e9 e88d 95af 6425 ace6 0da1 000a 0000     ......%d........
    7a0c:	5441 432b 5049 4f4d 4544 003d 5441 432b     AT+CIPMODE=.AT+C
    7a1c:	5049 4553 444e 0000 4354 0050 5441 432b     IPSEND..TCP.AT+C
    7a2c:	5049 5453 5241 3d54 0000 0000 7325 2522     IPSTART=....%s"%
    7a3c:	2273 222c 7325 2c22 7325 0a0d 0000 0000     s","%s",%s......
    7a4c:	4354 e850 9ebf 8ee6 e5a5 babb abe7 e68b     TCP.............
    7a5c:	9088 8ae5 009f 0000 7058 696f 746e 3d20     ........Xpoint =
    7a6c:	2520 2064 202c 6150 6e69 2e74 6957 7464      %d , Paint.Widt
    7a7c:	2068 203d 6425 2020 0a0d 0020 7059 696f     h = %d  .. .Ypoi
    7a8c:	746e 3d20 2520 2064 202c 6150 6e69 2e74     nt = %d , Paint.
    7a9c:	6548 6769 7468 3d20 2520 2064 0d20 200a     Height = %d  .. 
    7aac:	0000 0000                                   ....

00007ab0 <__clz_tab>:
    7ab0:	0100 0202 0303 0303 0404 0404 0404 0404     ................
    7ac0:	0505 0505 0505 0505 0505 0505 0505 0505     ................
    7ad0:	0606 0606 0606 0606 0606 0606 0606 0606     ................
    7ae0:	0606 0606 0606 0606 0606 0606 0606 0606     ................
    7af0:	0707 0707 0707 0707 0707 0707 0707 0707     ................
    7b00:	0707 0707 0707 0707 0707 0707 0707 0707     ................
    7b10:	0707 0707 0707 0707 0707 0707 0707 0707     ................
    7b20:	0707 0707 0707 0707 0707 0707 0707 0707     ................
    7b30:	0808 0808 0808 0808 0808 0808 0808 0808     ................
    7b40:	0808 0808 0808 0808 0808 0808 0808 0808     ................
    7b50:	0808 0808 0808 0808 0808 0808 0808 0808     ................
    7b60:	0808 0808 0808 0808 0808 0808 0808 0808     ................
    7b70:	0808 0808 0808 0808 0808 0808 0808 0808     ................
    7b80:	0808 0808 0808 0808 0808 0808 0808 0808     ................
    7b90:	0808 0808 0808 0808 0808 0808 0808 0808     ................
    7ba0:	0808 0808 0808 0808 0808 0808 0808 0808     ................

00007bb0 <__sf_fake_stderr>:
	...

00007bd0 <__sf_fake_stdin>:
	...

00007bf0 <__sf_fake_stdout>:
	...
    7c10:	2d23 2b30 0020 0000 6c68 004c 6665 4567     #-0+ ...hlL.efgE
    7c20:	4746 0000 3130 3332 3534 3736 3938 4241     FG..0123456789AB
    7c30:	4443 4645 0000 0000 3130 3332 3534 3736     CDEF....01234567
    7c40:	3938 6261 6463 6665 0000 0000               89abcdef....
